 qconstruct

 Timestamp is 48822f43 (Sat Jul 19 14:15:31 2008)

 Preferred load address is 00400000

 Start         Length     Name                   Class
 0001:00000000 000b50baH .textbss                DATA
 0002:00000000 001715d6H .text                   CODE
 0003:00000000 0002500cH .rdata                  DATA
 0003:0002500c 00000150H .rdata$debug            DATA
 0003:0002515c 00000104H .rtc$IAA                DATA
 0003:00025260 000002a1H .rtc$IMZ                DATA
 0003:00025504 00000104H .rtc$IZZ                DATA
 0003:00025608 00000104H .rtc$TAA                DATA
 0003:0002570c 000002a1H .rtc$TMZ                DATA
 0003:000259b0 00000104H .rtc$TZZ                DATA
 0003:00025ab4 00000000H .edata                  DATA
 0004:00000000 00000104H .CRT$XCA                DATA
 0004:00000104 00000104H .CRT$XCAA               DATA
 0004:00000208 00000104H .CRT$XCZ                DATA
 0004:0000030c 00000104H .CRT$XIA                DATA
 0004:00000410 00000118H .CRT$XIC                DATA
 0004:00000528 00000104H .CRT$XIZ                DATA
 0004:0000062c 00000104H .CRT$XPA                DATA
 0004:00000730 00000104H .CRT$XPX                DATA
 0004:00000834 00000104H .CRT$XPZ                DATA
 0004:00000938 00000104H .CRT$XTA                DATA
 0004:00000a3c 00000104H .CRT$XTZ                DATA
 0004:00000b40 00006b72H .data                   DATA
 0004:000076c0 00914578H .bss                    DATA
 0005:00000000 0000008cH .idata$2                DATA
 0005:0000008c 00000014H .idata$3                DATA
 0005:000000a0 000004f0H .idata$4                DATA
 0005:00000590 000004f0H .idata$5                DATA
 0005:00000a80 00000f3bH .idata$6                DATA
 0006:00000000 00000216H .rsrc$01                DATA
 0006:00000220 000004d3H .rsrc$02                DATA

  Address         Publics by Value              Rva+Base     Lib:Object

 0000:00000000       __except_list              00000000     <absolute>
 0000:00000000       ___safe_se_handler_count   00000000     <absolute>
 0000:00000000       ___safe_se_handler_table   00000000     <absolute>
 0001:00000000       __enc$textbss$begin        00401000     <linker-defined>
 0001:000b50ba       __enc$textbss$end          004b60ba     <linker-defined>
 0002:00006e00       _CL_GetGameState           004bde00 f   cl_cgame.obj
 0002:00006e30       _CL_GetGlconfig            004bde30 f   cl_cgame.obj
 0002:00006e60       _CL_GetUserCmd             004bde60 f   cl_cgame.obj
 0002:00006f00       _CL_GetCurrentCmdNumber    004bdf00 f   cl_cgame.obj
 0002:00006f20       _CL_GetParseEntityState    004bdf20 f   cl_cgame.obj
 0002:00006fb0       _CL_GetCurrentSnapshotNumber 004bdfb0 f   cl_cgame.obj
 0002:00006fe0       _CL_GetSnapshot            004bdfe0 f   cl_cgame.obj
 0002:000071c0       _CL_SetUserCmdValue        004be1c0 f   cl_cgame.obj
 0002:000071f0       _CL_AddCgameCommand        004be1f0 f   cl_cgame.obj
 0002:00007220       _CL_CgameError             004be220 f   cl_cgame.obj
 0002:00007250       _CL_ConfigstringModified   004be250 f   cl_cgame.obj
 0002:00007450       _CL_GetServerCommand       004be450 f   cl_cgame.obj
 0002:000077f0       _CL_CM_LoadMap             004be7f0 f   cl_cgame.obj
 0002:00007820       _CL_ShutdownCGame          004be820 f   cl_cgame.obj
 0002:00007890       _CL_CgameSystemCalls       004be890 f   cl_cgame.obj
 0002:00008fd0       _CL_InitCGame              004bffd0 f   cl_cgame.obj
 0002:00009150       _CL_GameCommand            004c0150 f   cl_cgame.obj
 0002:00009190       _CL_CGameRendering         004c0190 f   cl_cgame.obj
 0002:000091e0       _CL_AdjustTimeDelta        004c01e0 f   cl_cgame.obj
 0002:00009390       _CL_FirstSnapshot          004c0390 f   cl_cgame.obj
 0002:00009440       _CL_SetCGameTime           004c0440 f   cl_cgame.obj
 0002:000096a0       _CIN_CloseAllVideos        004c06a0 f   cl_cin.obj
 0002:00009700       _RllDecodeMonoToMono       004c0700 f   cl_cin.obj
 0002:000097a0       _RllDecodeMonoToStereo     004c07a0 f   cl_cin.obj
 0002:00009850       _RllDecodeStereoToStereo   004c0850 f   cl_cin.obj
 0002:00009970       _RllDecodeStereoToMono     004c0970 f   cl_cin.obj
 0002:00009a60       _CIN_StopCinematic         004c0a60 f   cl_cin.obj
 0002:00009d00       _CIN_RunCinematic          004c0d00 f   cl_cin.obj
 0002:0000e560       _CIN_PlayCinematic         004c5560 f   cl_cin.obj
 0002:0000f8c0       _CIN_SetExtents            004c68c0 f   cl_cin.obj
 0002:0000f970       _CIN_SetLooping            004c6970 f   cl_cin.obj
 0002:0000f9d0       _CIN_DrawCinematic         004c69d0 f   cl_cin.obj
 0002:0000ff60       _CL_PlayCinematic_f        004c6f60 f   cl_cin.obj
 0002:000100c0       _SCR_DrawCinematic         004c70c0 f   cl_cin.obj
 0002:00010100       _SCR_RunCinematic          004c7100 f   cl_cin.obj
 0002:00010140       _SCR_StopCinematic         004c7140 f   cl_cin.obj
 0002:00010190       _CIN_UploadCinematic       004c7190 f   cl_cin.obj
 0002:00010320       _Con_ToggleConsole_f       004c7320 f   cl_console.obj
 0002:00010390       _Con_MessageMode_f         004c7390 f   cl_console.obj
 0002:000103f0       _Con_MessageMode2_f        004c73f0 f   cl_console.obj
 0002:00010450       _Con_MessageMode3_f        004c7450 f   cl_console.obj
 0002:000104e0       _Con_MessageMode4_f        004c74e0 f   cl_console.obj
 0002:00010570       _Con_Clear_f               004c7570 f   cl_console.obj
 0002:000105c0       _Con_Dump_f                004c75c0 f   cl_console.obj
 0002:00010840       _Con_ClearNotify           004c7840 f   cl_console.obj
 0002:00010890       _Con_CheckResize           004c7890 f   cl_console.obj
 0002:00010ab0       _Con_Init                  004c7ab0 f   cl_console.obj
 0002:00010c20       _Con_Linefeed              004c7c20 f   cl_console.obj
 0002:00010d20       _CL_ConsolePrint           004c7d20 f   cl_console.obj
 0002:00011010       _Con_DrawInput             004c8010 f   cl_console.obj
 0002:000110c0       _Con_DrawNotify            004c80c0 f   cl_console.obj
 0002:000113a0       _Con_DrawSolidConsole      004c83a0 f   cl_console.obj
 0002:000117b0       _Con_DrawConsole           004c87b0 f   cl_console.obj
 0002:00011840       _Con_RunConsole            004c8840 f   cl_console.obj
 0002:00011950       _Con_PageUp                004c8950 f   cl_console.obj
 0002:000119b0       _Con_PageDown              004c89b0 f   cl_console.obj
 0002:00011a00       _Con_Top                   004c8a00 f   cl_console.obj
 0002:00011a50       _Con_Bottom                004c8a50 f   cl_console.obj
 0002:00011a70       _Con_Close                 004c8a70 f   cl_console.obj
 0002:00011ae0       _IN_MLookDown              004c8ae0 f   cl_input.obj
 0002:00011b00       _IN_MLookUp                004c8b00 f   cl_input.obj
 0002:00011b40       _IN_KeyDown                004c8b40 f   cl_input.obj
 0002:00011c40       _IN_KeyUp                  004c8c40 f   cl_input.obj
 0002:00011d80       _CL_KeyState               004c8d80 f   cl_input.obj
 0002:00011e60       _IN_UpDown                 004c8e60 f   cl_input.obj
 0002:00011e90       _IN_UpUp                   004c8e90 f   cl_input.obj
 0002:00011ec0       _IN_DownDown               004c8ec0 f   cl_input.obj
 0002:00011ef0       _IN_DownUp                 004c8ef0 f   cl_input.obj
 0002:00011f20       _IN_LeftDown               004c8f20 f   cl_input.obj
 0002:00011f50       _IN_LeftUp                 004c8f50 f   cl_input.obj
 0002:00011f80       _IN_RightDown              004c8f80 f   cl_input.obj
 0002:00011fb0       _IN_RightUp                004c8fb0 f   cl_input.obj
 0002:00011fe0       _IN_ForwardDown            004c8fe0 f   cl_input.obj
 0002:00012010       _IN_ForwardUp              004c9010 f   cl_input.obj
 0002:00012040       _IN_BackDown               004c9040 f   cl_input.obj
 0002:00012070       _IN_BackUp                 004c9070 f   cl_input.obj
 0002:000120a0       _IN_LookupDown             004c90a0 f   cl_input.obj
 0002:000120d0       _IN_LookupUp               004c90d0 f   cl_input.obj
 0002:00012100       _IN_LookdownDown           004c9100 f   cl_input.obj
 0002:00012130       _IN_LookdownUp             004c9130 f   cl_input.obj
 0002:00012160       _IN_MoveleftDown           004c9160 f   cl_input.obj
 0002:00012190       _IN_MoveleftUp             004c9190 f   cl_input.obj
 0002:000121c0       _IN_MoverightDown          004c91c0 f   cl_input.obj
 0002:000121f0       _IN_MoverightUp            004c91f0 f   cl_input.obj
 0002:00012220       _IN_SpeedDown              004c9220 f   cl_input.obj
 0002:00012250       _IN_SpeedUp                004c9250 f   cl_input.obj
 0002:00012280       _IN_StrafeDown             004c9280 f   cl_input.obj
 0002:000122b0       _IN_StrafeUp               004c92b0 f   cl_input.obj
 0002:000122e0       _IN_Button0Down            004c92e0 f   cl_input.obj
 0002:00012310       _IN_Button0Up              004c9310 f   cl_input.obj
 0002:00012340       _IN_Button1Down            004c9340 f   cl_input.obj
 0002:00012370       _IN_Button1Up              004c9370 f   cl_input.obj
 0002:000123a0       _IN_Button2Down            004c93a0 f   cl_input.obj
 0002:000123d0       _IN_Button2Up              004c93d0 f   cl_input.obj
 0002:00012400       _IN_Button3Down            004c9400 f   cl_input.obj
 0002:00012430       _IN_Button3Up              004c9430 f   cl_input.obj
 0002:00012460       _IN_Button4Down            004c9460 f   cl_input.obj
 0002:00012490       _IN_Button4Up              004c9490 f   cl_input.obj
 0002:000124c0       _IN_Button5Down            004c94c0 f   cl_input.obj
 0002:000124f0       _IN_Button5Up              004c94f0 f   cl_input.obj
 0002:00012520       _IN_Button6Down            004c9520 f   cl_input.obj
 0002:00012550       _IN_Button6Up              004c9550 f   cl_input.obj
 0002:00012580       _IN_Button7Down            004c9580 f   cl_input.obj
 0002:000125b0       _IN_Button7Up              004c95b0 f   cl_input.obj
 0002:000125e0       _IN_Button8Down            004c95e0 f   cl_input.obj
 0002:00012610       _IN_Button8Up              004c9610 f   cl_input.obj
 0002:00012640       _IN_Button9Down            004c9640 f   cl_input.obj
 0002:00012670       _IN_Button9Up              004c9670 f   cl_input.obj
 0002:000126a0       _IN_Button10Down           004c96a0 f   cl_input.obj
 0002:000126d0       _IN_Button10Up             004c96d0 f   cl_input.obj
 0002:00012700       _IN_Button11Down           004c9700 f   cl_input.obj
 0002:00012730       _IN_Button11Up             004c9730 f   cl_input.obj
 0002:00012760       _IN_Button12Down           004c9760 f   cl_input.obj
 0002:00012790       _IN_Button12Up             004c9790 f   cl_input.obj
 0002:000127c0       _IN_Button13Down           004c97c0 f   cl_input.obj
 0002:000127f0       _IN_Button13Up             004c97f0 f   cl_input.obj
 0002:00012820       _IN_Button14Down           004c9820 f   cl_input.obj
 0002:00012850       _IN_Button14Up             004c9850 f   cl_input.obj
 0002:00012880       _IN_Button15Down           004c9880 f   cl_input.obj
 0002:000128b0       _IN_Button15Up             004c98b0 f   cl_input.obj
 0002:000128e0       _IN_ButtonDown             004c98e0 f   cl_input.obj
 0002:00012910       _IN_ButtonUp               004c9910 f   cl_input.obj
 0002:00012940       _IN_CenterView             004c9940 f   cl_input.obj
 0002:00012970       _CL_AdjustAngles           004c9970 f   cl_input.obj
 0002:00012aa0       _CL_KeyMove                004c9aa0 f   cl_input.obj
 0002:00012cc0       _CL_MouseEvent             004c9cc0 f   cl_input.obj
 0002:00012d80       _CL_JoystickEvent          004c9d80 f   cl_input.obj
 0002:00012dd0       _CL_JoystickMove           004c9dd0 f   cl_input.obj
 0002:00012f30       _CL_MouseMove              004c9f30 f   cl_input.obj
 0002:000131e0       _CL_CmdButtons             004ca1e0 f   cl_input.obj
 0002:000132c0       _CL_FinishMove             004ca2c0 f   cl_input.obj
 0002:00013350       _CL_CreateCmd              004ca350 f   cl_input.obj
 0002:00013510       _CL_CreateNewCommands      004ca510 f   cl_input.obj
 0002:000135f0       _CL_ReadyToSendPacket      004ca5f0 f   cl_input.obj
 0002:000137a0       _CL_WritePacket            004ca7a0 f   cl_input.obj
 0002:00013c30       _CL_SendCmd                004cac30 f   cl_input.obj
 0002:00013cc0       _CL_InitInput              004cacc0 f   cl_input.obj
 0002:00014250       _Field_VariableSizeDraw    004cb250 f   cl_keys.obj
 0002:000144d0       _Field_Draw                004cb4d0 f   cl_keys.obj
 0002:00014510       _Field_BigDraw             004cb510 f   cl_keys.obj
 0002:00014550       _Field_Paste               004cb550 f   cl_keys.obj
 0002:000145e0       _Field_KeyDownEvent        004cb5e0 f   cl_keys.obj
 0002:000147e0       _Field_CharEvent           004cb7e0 f   cl_keys.obj
 0002:00014a20       _Console_Key               004cba20 f   cl_keys.obj
 0002:00014e80       _Message_Key               004cbe80 f   cl_keys.obj
 0002:00014fe0       _Key_GetOverstrikeMode     004cbfe0 f   cl_keys.obj
 0002:00015000       _Key_SetOverstrikeMode     004cc000 f   cl_keys.obj
 0002:00015020       _Key_IsDown                004cc020 f   cl_keys.obj
 0002:00015050       _Key_StringToKeynum        004cc050 f   cl_keys.obj
 0002:000151e0       _Key_KeynumToString        004cc1e0 f   cl_keys.obj
 0002:00015330       _Key_SetBinding            004cc330 f   cl_keys.obj
 0002:000153b0       _Key_GetBinding            004cc3b0 f   cl_keys.obj
 0002:000153f0       _Key_GetKey                004cc3f0 f   cl_keys.obj
 0002:00015470       _Key_Unbind_f              004cc470 f   cl_keys.obj
 0002:00015500       _Key_Unbindall_f           004cc500 f   cl_keys.obj
 0002:00015560       _Key_Bind_f                004cc560 f   cl_keys.obj
 0002:000156e0       _Key_WriteBindings         004cc6e0 f   cl_keys.obj
 0002:00015790       _Key_Bindlist_f            004cc790 f   cl_keys.obj
 0002:00015830       _CL_InitKeyCommands        004cc830 f   cl_keys.obj
 0002:000158a0       _CL_AddKeyUpCommands       004cc8a0 f   cl_keys.obj
 0002:00015a50       _CL_KeyEvent               004cca50 f   cl_keys.obj
 0002:00016040       _CL_CharEvent              004cd040 f   cl_keys.obj
 0002:00016100       _Key_ClearStates           004cd100 f   cl_keys.obj
 0002:000161a0       _CL_CDDialog               004cd1a0 f   cl_main.obj
 0002:000161c0       _CL_AddReliableCommand     004cd1c0 f   cl_main.obj
 0002:00016240       _CL_ChangeReliableCommand  004cd240 f   cl_main.obj
 0002:00016300       _CL_WriteDemoMessage       004cd300 f   cl_main.obj
 0002:000163a0       _CL_StopRecord_f           004cd3a0 f   cl_main.obj
 0002:00016460       _CL_DemoFilename           004cd460 f   cl_main.obj
 0002:00016550       _CL_Record_f               004cd550 f   cl_main.obj
 0002:00016ab0       _CL_DemoCompleted          004cdab0 f   cl_main.obj
 0002:00016b50       _CL_ReadDemoMessage        004cdb50 f   cl_main.obj
 0002:00016cb0       _CL_PlayDemo_f             004cdcb0 f   cl_main.obj
 0002:000170e0       _CL_StartDemoLoop          004ce0e0 f   cl_main.obj
 0002:00017110       _CL_NextDemo               004ce110 f   cl_main.obj
 0002:000171c0       _CL_ShutdownAll            004ce1c0 f   cl_main.obj
 0002:00017240       _CL_FlushMemory            004ce240 f   cl_main.obj
 0002:00017290       _CL_MapLoading             004ce290 f   cl_main.obj
 0002:000173f0       _CL_ClearState             004ce3f0 f   cl_main.obj
 0002:00017420       _CL_Disconnect             004ce420 f   cl_main.obj
 0002:000175b0       _CL_ForwardCommandToServer 004ce5b0 f   cl_main.obj
 0002:00017650       _CL_RequestMotd            004ce650 f   cl_main.obj
 0002:00017860       _CL_RequestAuthorization   004ce860 f   cl_main.obj
 0002:00017b10       _CL_ForwardToServer_f      004ceb10 f   cl_main.obj
 0002:00017b70       _CL_Setenv_f               004ceb70 f   cl_main.obj
 0002:00017ce0       _CL_Disconnect_f           004cece0 f   cl_main.obj
 0002:00017d40       _CL_Reconnect_f            004ced40 f   cl_main.obj
 0002:00017dd0       _CL_Connect_f              004cedd0 f   cl_main.obj
 0002:00018030       _CL_Rcon_f                 004cf030 f   cl_main.obj
 0002:00018240       _CL_SendPureChecksums      004cf240 f   cl_main.obj
 0002:00018340       _CL_ResetPureClientAtServer 004cf340 f   cl_main.obj
 0002:00018370       _CL_Vid_Restart_f          004cf370 f   cl_main.obj
 0002:00018470       _CL_Snd_Restart_f          004cf470 f   cl_main.obj
 0002:000184a0       _CL_OpenedPK3List_f        004cf4a0 f   cl_main.obj
 0002:000184d0       _CL_ReferencedPK3List_f    004cf4d0 f   cl_main.obj
 0002:00018500       _CL_Configstrings_f        004cf500 f   cl_main.obj
 0002:000185a0       _CL_Clientinfo_f           004cf5a0 f   cl_main.obj
 0002:00018630       _CL_DownloadsComplete      004cf630 f   cl_main.obj
 0002:000186f0       _CL_BeginDownload          004cf6f0 f   cl_main.obj
 0002:00018800       _CL_NextDownload           004cf800 f   cl_main.obj
 0002:00018930       _CL_InitDownloads          004cf930 f   cl_main.obj
 0002:000189f0       _CL_CheckForResend         004cf9f0 f   cl_main.obj
 0002:00018d20       _CL_DisconnectPacket       004cfd20 f   cl_main.obj
 0002:00018e10       _CL_MotdPacket             004cfe10 f   cl_main.obj
 0002:00018f30       _CL_InitServerInfo         004cff30 f   cl_main.obj
 0002:00019020       _CL_ServersResponsePacket  004d0020 f   cl_main.obj
 0002:00019600       _CL_ConnectionlessPacket   004d0600 f   cl_main.obj
 0002:00019c30       _CL_PacketEvent            004d0c30 f   cl_main.obj
 0002:00019e60       _CL_CheckTimeout           004d0e60 f   cl_main.obj
 0002:00019f30       _CL_CheckUserinfo          004d0f30 f   cl_main.obj
 0002:00019fb0       _CL_Frame                  004d0fb0 f   cl_main.obj
 0002:0001a170       _CL_RefPrintf              004d1170 f   cl_main.obj
 0002:0001a230       _CL_ShutdownRef            004d1230 f   cl_main.obj
 0002:0001a280       _CL_InitRenderer           004d1280 f   cl_main.obj
 0002:0001a320       _CL_StartHunkUsers         004d1320 f   cl_main.obj
 0002:0001a3d0       _CL_RefMalloc              004d13d0 f   cl_main.obj
 0002:0001a410       _CL_ScaledMilliseconds     004d1410 f   cl_main.obj
 0002:0001a450       _CL_InitRef                004d1450 f   cl_main.obj
 0002:0001a5d0       _CL_SetModel_f             004d15d0 f   cl_main.obj
 0002:0001a670       _CL_Init                   004d1670 f   cl_main.obj
 0002:0001af20       _CL_Shutdown               004d1f20 f   cl_main.obj
 0002:0001b120       _CL_ServerInfoPacket       004d2120 f   cl_main.obj
 0002:0001bc90       _CL_GetServerStatus        004d2c90 f   cl_main.obj
 0002:0001be60       _CL_ServerStatus           004d2e60 f   cl_main.obj
 0002:0001c1b0       _CL_ServerStatusResponse   004d31b0 f   cl_main.obj
 0002:0001c740       _CL_LocalServers_f         004d3740 f   cl_main.obj
 0002:0001c930       _CL_GlobalServers_f        004d3930 f   cl_main.obj
 0002:0001cb40       _CL_GetPing                004d3b40 f   cl_main.obj
 0002:0001cce0       _CL_UpdateServerInfo       004d3ce0 f   cl_main.obj
 0002:0001cd80       _CL_GetPingInfo            004d3d80 f   cl_main.obj
 0002:0001cdf0       _CL_ClearPing              004d3df0 f   cl_main.obj
 0002:0001ce30       _CL_GetPingQueueCount      004d3e30 f   cl_main.obj
 0002:0001ceb0       _CL_GetFreePing            004d3eb0 f   cl_main.obj
 0002:0001cfd0       _CL_Ping_f                 004d3fd0 f   cl_main.obj
 0002:0001d100       _CL_UpdateVisiblePings_f   004d4100 f   cl_main.obj
 0002:0001d600       _CL_ServerStatus_f         004d4600 f   cl_main.obj
 0002:0001d770       _CL_ShowIP_f               004d4770 f   cl_main.obj
 0002:0001d790       _CL_CDKeyValidate          004d4790 f   cl_main.obj
 0002:0001d930       _CL_Netchan_TransmitNextFragment 004d4930 f   cl_net_chan.obj
 0002:0001d960       _CL_Netchan_Transmit       004d4960 f   cl_net_chan.obj
 0002:0001dba0       _CL_Netchan_Process        004d4ba0 f   cl_net_chan.obj
 0002:0001dda0       _SHOWNET                   004d4da0 f   cl_parse.obj
 0002:0001ddf0       _CL_DeltaEntity            004d4df0 f   cl_parse.obj
 0002:0001dea0       _CL_ParsePacketEntities    004d4ea0 f   cl_parse.obj
 0002:0001e250       _CL_ParseSnapshot          004d5250 f   cl_parse.obj
 0002:0001e650       _CL_SystemInfoChanged      004d5650 f   cl_parse.obj
 0002:0001e860       _CL_ParseGamestate         004d5860 f   cl_parse.obj
 0002:0001eb10       _CL_ParseDownload          004d5b10 f   cl_parse.obj
 0002:0001edc0       _CL_ParseCommandString     004d5dc0 f   cl_parse.obj
 0002:0001ee50       _CL_ParseServerMessage     004d5e50 f   cl_parse.obj
 0002:0001f070       _SCR_DrawNamedPic          004d6070 f   cl_scrn.obj
 0002:0001f130       _SCR_AdjustFrom640         004d6130 f   cl_scrn.obj
 0002:0001f1d0       _SCR_FillRect              004d61d0 f   cl_scrn.obj
 0002:0001f250       _SCR_DrawPic               004d6250 f   cl_scrn.obj
 0002:0001f2c0       _SCR_DrawSmallChar         004d62c0 f   cl_scrn.obj
 0002:0001f390       _SCR_DrawStringExt         004d6390 f   cl_scrn.obj
 0002:0001f6b0       _SCR_DrawBigString         004d66b0 f   cl_scrn.obj
 0002:0001f710       _SCR_DrawBigStringColor    004d6710 f   cl_scrn.obj
 0002:0001f750       _SCR_DrawSmallStringExt    004d6750 f   cl_scrn.obj
 0002:0001f870       _SCR_GetBigStringWidth     004d6870 f   cl_scrn.obj
 0002:0001f930       _SCR_DrawDemoRecording     004d6930 f   cl_scrn.obj
 0002:0001fa00       _SCR_DebugGraph            004d6a00 f   cl_scrn.obj
 0002:0001fa60       _SCR_DrawDebugGraph        004d6a60 f   cl_scrn.obj
 0002:0001fc60       _SCR_Init                  004d6c60 f   cl_scrn.obj
 0002:0001fd30       _SCR_DrawScreenField       004d6d30 f   cl_scrn.obj
 0002:0001ffb0       _SCR_UpdateScreen          004d6fb0 f   cl_scrn.obj
 0002:00020090       _LAN_LoadCachedServers     004d7090 f   cl_ui.obj
 0002:00020200       _LAN_SaveServersToCache    004d7200 f   cl_ui.obj
 0002:000202f0       _LAN_UpdateVisiblePings    004d72f0 f   cl_ui.obj
 0002:00020320       _LAN_GetServerStatus       004d7320 f   cl_ui.obj
 0002:00020350       _Key_GetCatcher            004d7350 f   cl_ui.obj
 0002:00020370       _Key_SetCatcher            004d7370 f   cl_ui.obj
 0002:00020390       _CL_UISystemCalls          004d7390 f   cl_ui.obj
 0002:00022e60       _CL_ShutdownUI             004d9e60 f   cl_ui.obj
 0002:00022ed0       _CL_InitUI                 004d9ed0 f   cl_ui.obj
 0002:00023030       _UI_usesUniqueCDKey        004da030 f   cl_ui.obj
 0002:00023080       _UI_GameCommand            004da080 f   cl_ui.obj
 0002:000230d0       _CMod_LoadShaders          004da0d0 f   cm_load.obj
 0002:00023210       _CMod_LoadSubmodels        004da210 f   cm_load.obj
 0002:000234e0       _CMod_LoadNodes            004da4e0 f   cm_load.obj
 0002:00023640       _CM_BoundBrush             004da640 f   cm_load.obj
 0002:000236f0       _CMod_LoadBrushes          004da6f0 f   cm_load.obj
 0002:00023880       _CMod_LoadLeafs            004da880 f   cm_load.obj
 0002:00023ab0       _CMod_LoadPlanes           004daab0 f   cm_load.obj
 0002:00023ce0       _CMod_LoadLeafBrushes      004dace0 f   cm_load.obj
 0002:00023de0       _CMod_LoadLeafSurfaces     004dade0 f   cm_load.obj
 0002:00023ed0       _CMod_LoadBrushSides       004daed0 f   cm_load.obj
 0002:00024040       _CMod_LoadEntityString     004db040 f   cm_load.obj
 0002:000240c0       _CMod_LoadVisibility       004db0c0 f   cm_load.obj
 0002:000241e0       _CMod_LoadPatches          004db1e0 f   cm_load.obj
 0002:000244a0       _CM_LumpChecksum           004db4a0 f   cm_load.obj
 0002:000244e0       _CM_Checksum               004db4e0 f   cm_load.obj
 0002:00024600       _CM_LoadMap                004db600 f   cm_load.obj
 0002:00024970       _CM_ClearMap               004db970 f   cm_load.obj
 0002:000249b0       _CM_ClipHandleToModel      004db9b0 f   cm_load.obj
 0002:00024a70       _CM_InlineModel            004dba70 f   cm_load.obj
 0002:00024ab0       _CM_NumClusters            004dbab0 f   cm_load.obj
 0002:00024ad0       _CM_NumInlineModels        004dbad0 f   cm_load.obj
 0002:00024af0       _CM_EntityString           004dbaf0 f   cm_load.obj
 0002:00024b10       _CM_LeafCluster            004dbb10 f   cm_load.obj
 0002:00024b60       _CM_LeafArea               004dbb60 f   cm_load.obj
 0002:00024bb0       _CM_InitBoxHull            004dbbb0 f   cm_load.obj
 0002:00024dc0       _CM_TempBoxModel           004dbdc0 f   cm_load.obj
 0002:00024fb0       _CM_ModelBounds            004dbfb0 f   cm_load.obj
 0002:00025030       _CM_ClearLevelPatches      004dc030 f   cm_patch.obj
 0002:00025060       _CM_PlaneEqual             004dc060 f   cm_patch.obj
 0002:00025250       _CM_SnapVector             004dc250 f   cm_patch.obj
 0002:00025370       _CM_FindPlane2             004dc370 f   cm_patch.obj
 0002:00025520       _CM_AddFacetBevels         004dc520 f   cm_patch.obj
 0002:00025f20       _CM_GeneratePatchCollide   004dcf20 f   cm_patch.obj
 0002:00029490       _CM_TracePointThroughPatchCollide 004e0490 f   cm_patch.obj
 0002:00029b20       _CM_CheckFacetPlane        004e0b20 f   cm_patch.obj
 0002:00029d00       _CM_TraceThroughPatchCollide 004e0d00 f   cm_patch.obj
 0002:0002a4f0       _CM_PositionTestInPatchCollide 004e14f0 f   cm_patch.obj
 0002:0002a9f0       _CM_DrawDebugSurface       004e19f0 f   cm_patch.obj
 0002:0002b0a0       _pw                        004e20a0 f   cm_polylib.obj
 0002:0002b140       _AllocWinding              004e2140 f   cm_polylib.obj
 0002:0002b200       _FreeWinding               004e2200 f   cm_polylib.obj
 0002:0002b260       _RemoveColinearPoints      004e2260 f   cm_polylib.obj
 0002:0002b4e0       _WindingPlane              004e24e0 f   cm_polylib.obj
 0002:0002b660       _WindingArea               004e2660 f   cm_polylib.obj
 0002:0002b800       _WindingBounds             004e2800 f   cm_polylib.obj
 0002:0002b910       _WindingCenter             004e2910 f   cm_polylib.obj
 0002:0002ba20       _BaseWindingForPlane       004e2a20 f   cm_polylib.obj
 0002:0002bdf0       _CopyWinding               004e2df0 f   cm_polylib.obj
 0002:0002be50       _ReverseWinding            004e2e50 f   cm_polylib.obj
 0002:0002bf30       _ClipWindingEpsilon        004e2f30 f   cm_polylib.obj
 0002:0002c790       _ChopWindingInPlace        004e3790 f   cm_polylib.obj
 0002:0002cdf0       _ChopWinding               004e3df0 f   cm_polylib.obj
 0002:0002ce60       _CheckWinding              004e3e60 f   cm_polylib.obj
 0002:0002d1e0       _WindingOnPlaneSide        004e41e0 f   cm_polylib.obj
 0002:0002d310       _AddWindingToConvexHull    004e4310 f   cm_polylib.obj
 0002:0002d7f0       _CM_PointLeafnum_r         004e47f0 f   cm_test.obj
 0002:0002d8e0       _CM_PointLeafnum           004e48e0 f   cm_test.obj
 0002:0002d920       _CM_StoreLeafs             004e4920 f   cm_test.obj
 0002:0002d9b0       _CM_StoreBrushes           004e49b0 f   cm_test.obj
 0002:0002db20       _CM_BoxLeafnums_r          004e4b20 f   cm_test.obj
 0002:0002dc00       _CM_BoxLeafnums            004e4c00 f   cm_test.obj
 0002:0002dcc0       _CM_BoxBrushes             004e4cc0 f   cm_test.obj
 0002:0002dd70       _CM_PointContents          004e4d70 f   cm_test.obj
 0002:0002df20       _CM_TransformedPointContents 004e4f20 f   cm_test.obj
 0002:0002e070       _CM_ClusterPVS             004e5070 f   cm_test.obj
 0002:0002e0d0       _CM_FloodArea_r            004e50d0 f   cm_test.obj
 0002:0002e1b0       _CM_FloodAreaConnections   004e51b0 f   cm_test.obj
 0002:0002e250       _CM_AdjustAreaPortalState  004e5250 f   cm_test.obj
 0002:0002e3e0       _CM_AreasConnected         004e53e0 f   cm_test.obj
 0002:0002e480       _CM_WriteAreaBits          004e5480 f   cm_test.obj
 0002:0002e570       _RotatePoint               004e5570 f   cm_trace.obj
 0002:0002e630       _TransposeMatrix           004e5630 f   cm_trace.obj
 0002:0002e6b0       _CreateRotationMatrix      004e56b0 f   cm_trace.obj
 0002:0002e700       _CM_ProjectPointOntoVector 004e5700 f   cm_trace.obj
 0002:0002e800       _CM_DistanceFromLineSquared 004e5800 f   cm_trace.obj
 0002:0002ea40       _CM_VectorDistanceSquared  004e5a40 f   cm_trace.obj
 0002:0002eaa0       _SquareRootFloat           004e5aa0 f   cm_trace.obj
 0002:0002eb80       _CM_TestBoxInBrush         004e5b80 f   cm_trace.obj
 0002:0002ef40       _CM_TestInLeaf             004e5f40 f   cm_trace.obj
 0002:0002f120       _CM_TestCapsuleInCapsule   004e6120 f   cm_trace.obj
 0002:0002f5c0       _CM_TestBoundingBoxInCapsule 004e65c0 f   cm_trace.obj
 0002:0002f790       _CM_PositionTest           004e6790 f   cm_trace.obj
 0002:0002f9b0       _CM_TraceThroughPatch      004e69b0 f   cm_trace.obj
 0002:0002fa40       _CM_TraceThroughBrush      004e6a40 f   cm_trace.obj
 0002:000301f0       _CM_TraceThroughLeaf       004e71f0 f   cm_trace.obj
 0002:000303c0       _CM_TraceThroughSphere     004e73c0 f   cm_trace.obj
 0002:000308a0       _CM_TraceThroughVerticalCylinder 004e78a0 f   cm_trace.obj
 0002:00030e00       _CM_TraceCapsuleThroughCapsule 004e7e00 f   cm_trace.obj
 0002:00031240       _CM_TraceBoundingBoxThroughCapsule 004e8240 f   cm_trace.obj
 0002:00031410       _CM_TraceThroughTree       004e8410 f   cm_trace.obj
 0002:000318d0       _CM_Trace                  004e88d0 f   cm_trace.obj
 0002:00032240       _CM_BoxTrace               004e9240 f   cm_trace.obj
 0002:00032290       _CM_TransformedBoxTrace    004e9290 f   cm_trace.obj
 0002:000326e0       _Cmd_Wait_f                004e96e0 f   cmd.obj
 0002:00032730       _Cbuf_Init                 004e9730 f   cmd.obj
 0002:00032770       _Cbuf_AddText              004e9770 f   cmd.obj
 0002:00032800       _Cbuf_InsertText           004e9800 f   cmd.obj
 0002:000328e0       _Cbuf_ExecuteText          004e98e0 f   cmd.obj
 0002:00032980       _Cbuf_Execute              004e9980 f   cmd.obj
 0002:00032b30       _Cmd_Exec_f                004e9b30 f   cmd.obj
 0002:00032c20       _Cmd_Vstr_f                004e9c20 f   cmd.obj
 0002:00032c90       _Cmd_Echo_f                004e9c90 f   cmd.obj
 0002:00032d00       _Cmd_Argc                  004e9d00 f   cmd.obj
 0002:00032d20       _Cmd_Argv                  004e9d20 f   cmd.obj
 0002:00032d60       _Cmd_ArgvBuffer            004e9d60 f   cmd.obj
 0002:00032da0       _Cmd_Args                  004e9da0 f   cmd.obj
 0002:00032e30       _Cmd_ArgsFrom              004e9e30 f   cmd.obj
 0002:00032ed0       _Cmd_ArgsBuffer            004e9ed0 f   cmd.obj
 0002:00032f00       _Cmd_Cmd                   004e9f00 f   cmd.obj
 0002:00032f20       _Cmd_TokenizeString        004e9f20 f   cmd.obj
 0002:00033210       _Cmd_AddCommand            004ea210 f   cmd.obj
 0002:000332f0       _Cmd_RemoveCommand         004ea2f0 f   cmd.obj
 0002:00033390       _Cmd_CommandCompletion     004ea390 f   cmd.obj
 0002:000333e0       _Cmd_ExecuteString         004ea3e0 f   cmd.obj
 0002:00033530       _Cmd_List_f                004ea530 f   cmd.obj
 0002:00033600       _Cmd_Init                  004ea600 f   cmd.obj
 0002:00033690       _Com_BeginRedirect         004ea690 f   common.obj
 0002:000336f0       _Com_EndRedirect           004ea6f0 f   common.obj
 0002:00033750       _Com_Printf                004ea750 f   common.obj
 0002:000339b0       _Com_DPrintf               004ea9b0 f   common.obj
 0002:00033a40       _Com_Error                 004eaa40 f   common.obj
 0002:00033cf0       _Com_Quit_f                004eacf0 f   common.obj
 0002:00033d40       _Com_ParseCommandLine      004ead40 f   common.obj
 0002:00033e20       _Com_SafeMode              004eae20 f   common.obj
 0002:00033ee0       _Com_StartupVariable       004eaee0 f   common.obj
 0002:00033fe0       _Com_AddStartupCommands    004eafe0 f   common.obj
 0002:000340b0       _Info_Print                004eb0b0 f   common.obj
 0002:00034290       _Com_StringContains        004eb290 f   common.obj
 0002:000343b0       _Com_Filter                004eb3b0 f   common.obj
 0002:00034810       _Com_FilterPath            004eb810 f   common.obj
 0002:00034950       _Com_HashKey               004eb950 f   common.obj
 0002:000349e0       _Com_RealTime              004eb9e0 f   common.obj
 0002:00034ac0       _Z_ClearZone               004ebac0 f   common.obj
 0002:00034b90       _Z_AvailableZoneMemory     004ebb90 f   common.obj
 0002:00034bc0       _Z_AvailableMemory         004ebbc0 f   common.obj
 0002:00034bf0       _Z_Free                    004ebbf0 f   common.obj
 0002:00034de0       _Z_FreeTags                004ebde0 f   common.obj
 0002:00034e90       _Z_TagMallocDebug          004ebe90 f   common.obj
 0002:000350d0       _Z_MallocDebug             004ec0d0 f   common.obj
 0002:00035130       _S_MallocDebug             004ec130 f   common.obj
 0002:00035170       _Z_CheckHeap               004ec170 f   common.obj
 0002:00035230       _Z_LogZoneHeap             004ec230 f   common.obj
 0002:00035570       _Z_LogHeap                 004ec570 f   common.obj
 0002:000355c0       _CopyString                004ec5c0 f   common.obj
 0002:00035680       _Com_Meminfo_f             004ec680 f   common.obj
 0002:00035ab0       _Com_TouchMemory           004ecab0 f   common.obj
 0002:00035c20       _Com_InitSmallZoneMemory   004ecc20 f   common.obj
 0002:00035cb0       _Com_InitZoneMemory        004eccb0 f   common.obj
 0002:00035d80       _Hunk_Log                  004ecd80 f   common.obj
 0002:00035f90       _Hunk_SmallLog             004ecf90 f   common.obj
 0002:00036280       _Com_InitHunkMemory        004ed280 f   common.obj
 0002:00036440       _Hunk_MemoryRemaining      004ed440 f   common.obj
 0002:000364d0       _Hunk_SetMark              004ed4d0 f   common.obj
 0002:00036500       _Hunk_ClearToMark          004ed500 f   common.obj
 0002:00036550       _Hunk_CheckMark            004ed550 f   common.obj
 0002:00036590       _Hunk_Clear                004ed590 f   common.obj
 0002:00036660       _Hunk_AllocDebug           004ed660 f   common.obj
 0002:000368d0       _Hunk_AllocateTempMemory   004ed8d0 f   common.obj
 0002:00036a40       _Hunk_FreeTempMemory       004eda40 f   common.obj
 0002:00036b60       _Hunk_ClearTempMemory      004edb60 f   common.obj
 0002:00036ba0       _Hunk_Trash                004edba0 f   common.obj
 0002:00036c10       _Com_InitJournaling        004edc10 f   common.obj
 0002:00036d60       _Com_GetRealEvent          004edd60 f   common.obj
 0002:00036f30       _Com_InitPushEvent         004edf30 f   common.obj
 0002:00036f80       _Com_PushEvent             004edf80 f   common.obj
 0002:00037070       _Com_GetEvent              004ee070 f   common.obj
 0002:00037140       _Com_RunAndTimeServerPacket 004ee140 f   common.obj
 0002:00037200       _Com_EventLoop             004ee200 f   common.obj
 0002:000375a0       _Com_Milliseconds          004ee5a0 f   common.obj
 0002:00037610       _Com_ReadCDKey             004ee610 f   common.obj
 0002:00037710       _Com_AppendCDKey           004ee710 f   common.obj
 0002:00037810       _Com_Init                  004ee810 f   common.obj
 0002:00037f20       _Com_WriteConfigToFile     004eef20 f   common.obj
 0002:00037fb0       _Com_WriteConfiguration    004eefb0 f   common.obj
 0002:00038190       _Com_WriteConfig_f         004ef190 f   common.obj
 0002:00038230       _Com_ModifyMsec            004ef230 f   common.obj
 0002:00038360       _Com_Frame                 004ef360 f   common.obj
 0002:00038750       _Com_Shutdown              004ef750 f   common.obj
 0002:000387c0       __copyDWord                004ef7c0 f   common.obj
 0002:00038880       _Com_Memcpy                004ef880 f   common.obj
 0002:000389d0       _Com_Memset                004ef9d0 f   common.obj
 0002:00038ac0       _Com_Memcmp                004efac0 f   common.obj
 0002:00038c00       _Com_Prefetch              004efc00 f   common.obj
 0002:00038c70       _Q_acos                    004efc70 f   common.obj
 0002:00038ce0       _Field_Clear               004efce0 f   common.obj
 0002:00038d30       _Field_CompleteCommand     004efd30 f   common.obj
 0002:00039260       _Cvar_VariableValue        004f0260 f   cvar.obj
 0002:000393b0       _Cvar_VariableIntegerValue 004f03b0 f   cvar.obj
 0002:000393f0       _Cvar_VariableString       004f03f0 f   cvar.obj
 0002:00039430       _Cvar_VariableStringBuffer 004f0430 f   cvar.obj
 0002:00039490       _Cvar_CommandCompletion    004f0490 f   cvar.obj
 0002:000394e0       _Cvar_Get                  004f04e0 f   cvar.obj
 0002:00039890       _Cvar_Set2                 004f0890 f   cvar.obj
 0002:00039c00       _Cvar_Set                  004f0c00 f   cvar.obj
 0002:00039c30       _Cvar_SetLatched           004f0c30 f   cvar.obj
 0002:00039c60       _Cvar_SetValue             004f0c60 f   cvar.obj
 0002:00039d00       _Cvar_Reset                004f0d00 f   cvar.obj
 0002:00039d30       _Cvar_SetCheatState        004f0d30 f   cvar.obj
 0002:00039de0       _Cvar_Command              004f0de0 f   cvar.obj
 0002:00039eb0       _Cvar_Toggle_f             004f0eb0 f   cvar.obj
 0002:00039f50       _Cvar_Set_f                004f0f50 f   cvar.obj
 0002:0003a080       _Cvar_SetU_f               004f1080 f   cvar.obj
 0002:0003a100       _Cvar_SetS_f               004f1100 f   cvar.obj
 0002:0003a180       _Cvar_SetA_f               004f1180 f   cvar.obj
 0002:0003a200       _Cvar_Reset_f              004f1200 f   cvar.obj
 0002:0003a250       _Cvar_WriteVariables       004f1250 f   cvar.obj
 0002:0003a350       _Cvar_List_f               004f1350 f   cvar.obj
 0002:0003a5a0       _Cvar_Restart_f            004f15a0 f   cvar.obj
 0002:0003a6e0       _Cvar_InfoString           004f16e0 f   cvar.obj
 0002:0003a760       _Cvar_InfoString_Big       004f1760 f   cvar.obj
 0002:0003a7e0       _Cvar_InfoStringBuffer     004f17e0 f   cvar.obj
 0002:0003a820       _Cvar_Register             004f1820 f   cvar.obj
 0002:0003a890       _Cvar_Update               004f1890 f   cvar.obj
 0002:0003a9e0       _Cvar_Init                 004f19e0 f   cvar.obj
 0002:0003aad0       _FS_Initialized            004f1ad0 f   files.obj
 0002:0003ab00       _FS_PakIsPure              004f1b00 f   files.obj
 0002:0003ab80       _FS_LoadStack              004f1b80 f   files.obj
 0002:0003aba0       _FS_ForceFlush             004f1ba0 f   files.obj
 0002:0003ac80       _FS_filelength             004f1c80 f   files.obj
 0002:0003ad00       _FS_BuildOSPath            004f1d00 f   files.obj
 0002:0003ae30       _FS_FileExists             004f1e30 f   files.obj
 0002:0003aeb0       _FS_SV_FileExists          004f1eb0 f   files.obj
 0002:0003af40       _FS_SV_FOpenFileWrite      004f1f40 f   files.obj
 0002:0003b1f0       _FS_SV_FOpenFileRead       004f21f0 f   files.obj
 0002:0003b530       _FS_SV_Rename              004f2530 f   files.obj
 0002:0003b840       _FS_Rename                 004f2840 f   files.obj
 0002:0003b930       _FS_FCloseFile             004f2930 f   files.obj
 0002:0003ba80       _FS_FOpenFileWrite         004f2a80 f   files.obj
 0002:0003bbd0       _FS_FOpenFileAppend        004f2bd0 f   files.obj
 0002:0003bd20       _FS_FilenameCompare        004f2d20 f   files.obj
 0002:0003bdf0       _FS_ShiftedStrStr          004f2df0 f   files.obj
 0002:0003be90       _FS_FOpenFileRead          004f2e90 f   files.obj
 0002:0003ca80       _FS_Read2                  004f3a80 f   files.obj
 0002:0003cb50       _FS_Read                   004f3b50 f   files.obj
 0002:0003cca0       _FS_Write                  004f3ca0 f   files.obj
 0002:0003cdd0       _FS_Printf                 004f3dd0 f   files.obj
 0002:0003ce50       _FS_Seek                   004f3e50 f   files.obj
 0002:0003d0b0       _FS_FileIsInPAK            004f40b0 f   files.obj
 0002:0003d280       _FS_ReadFile               004f4280 f   files.obj
 0002:0003d680       _FS_FreeFile               004f4680 f   files.obj
 0002:0003d700       _FS_WriteFile              004f4700 f   files.obj
 0002:0003d7b0       _FS_ListFilteredFiles      004f47b0 f   files.obj
 0002:0003de70       _FS_ListFiles              004f4e70 f   files.obj
 0002:0003dea0       _FS_FreeFileList           004f4ea0 f   files.obj
 0002:0003df30       _FS_GetFileList            004f4f30 f   files.obj
 0002:0003e060       _FS_GetModList             004f5060 f   files.obj
 0002:0003e7a0       _FS_Dir_f                  004f57a0 f   files.obj
 0002:0003e8d0       _FS_ConvertPath            004f58d0 f   files.obj
 0002:0003e930       _FS_PathCmp                004f5930 f   files.obj
 0002:0003ea10       _FS_SortFileList           004f5a10 f   files.obj
 0002:0003eb70       _FS_NewDir_f               004f5b70 f   files.obj
 0002:0003ec90       _FS_Path_f                 004f5c90 f   files.obj
 0002:0003ee00       _FS_TouchFile_f            004f5e00 f   files.obj
 0002:0003ee70       _FS_idPak                  004f5e70 f   files.obj
 0002:0003eef0       _FS_ComparePaks            004f5ef0 f   files.obj
 0002:0003f240       _FS_Shutdown               004f6240 f   files.obj
 0002:0003f390       _FS_GamePureChecksum       004f6390 f   files.obj
 0002:0003f430       _FS_LoadedPakChecksums     004f6430 f   files.obj
 0002:0003f4c0       _FS_LoadedPakNames         004f64c0 f   files.obj
 0002:0003f570       _FS_LoadedPakPureChecksums 004f6570 f   files.obj
 0002:0003f600       _FS_ReferencedPakChecksums 004f6600 f   files.obj
 0002:0003f6e0       _FS_ReferencedPakPureChecksums 004f66e0 f   files.obj
 0002:0003f8d0       _FS_ReferencedPakNames     004f68d0 f   files.obj
 0002:0003fa10       _FS_ClearPakReferences     004f6a10 f   files.obj
 0002:0003fa90       _FS_PureServerSetLoadedPaks 004f6a90 f   files.obj
 0002:0003fc60       _FS_PureServerSetReferencedPaks 004f6c60 f   files.obj
 0002:0003fde0       _FS_InitFilesystem         004f6de0 f   files.obj
 0002:00041030       _FS_Restart                004f8030 f   files.obj
 0002:000411d0       _FS_ConditionalRestart     004f81d0 f   files.obj
 0002:00041220       _FS_FOpenFileByMode        004f8220 f   files.obj
 0002:00041450       _FS_FTell                  004f8450 f   files.obj
 0002:000414d0       _FS_Flush                  004f84d0 f   files.obj
 0002:00041510       _Huff_putBit               004f8510 f   huffman.obj
 0002:000415b0       _Huff_getBit               004f85b0 f   huffman.obj
 0002:00041620       _Huff_addRef               004f8620 f   huffman.obj
 0002:00041db0       _Huff_Receive              004f8db0 f   huffman.obj
 0002:00041e80       _Huff_offsetReceive        004f8e80 f   huffman.obj
 0002:00041f20       _Huff_transmit             004f8f20 f   huffman.obj
 0002:000420c0       _Huff_offsetTransmit       004f90c0 f   huffman.obj
 0002:00042110       _Huff_Decompress           004f9110 f   huffman.obj
 0002:000423c0       _Huff_Compress             004f93c0 f   huffman.obj
 0002:000425e0       _Huff_Init                 004f95e0 f   huffman.obj
 0002:00042810       _MD4Init                   004f9810 f   md4.obj
 0002:00042870       _MD4Update                 004f9870 f   md4.obj
 0002:000429c0       _MD4Final                  004f99c0 f   md4.obj
 0002:000437a0       _Com_BlockChecksum         004fa7a0 f   md4.obj
 0002:00043810       _Com_BlockChecksumKey      004fa810 f   md4.obj
 0002:00043890       _MSG_Init                  004fa890 f   msg.obj
 0002:000438e0       _MSG_InitOOB               004fa8e0 f   msg.obj
 0002:00043940       _MSG_Clear                 004fa940 f   msg.obj
 0002:00043980       _MSG_Bitstream             004fa980 f   msg.obj
 0002:000439a0       _MSG_BeginReading          004fa9a0 f   msg.obj
 0002:000439e0       _MSG_BeginReadingOOB       004fa9e0 f   msg.obj
 0002:00043a20       _MSG_Copy                  004faa20 f   msg.obj
 0002:00043aa0       _MSG_WriteBits             004faaa0 f   msg.obj
 0002:00043dc0       _MSG_ReadBits              004fadc0 f   msg.obj
 0002:00044050       _MSG_WriteChar             004fb050 f   msg.obj
 0002:00044080       _MSG_WriteByte             004fb080 f   msg.obj
 0002:000440b0       _MSG_WriteData             004fb0b0 f   msg.obj
 0002:00044110       _MSG_WriteShort            004fb110 f   msg.obj
 0002:00044140       _MSG_WriteLong             004fb140 f   msg.obj
 0002:00044170       _MSG_WriteFloat            004fb170 f   msg.obj
 0002:000441b0       _MSG_WriteString           004fb1b0 f   msg.obj
 0002:000442c0       _MSG_WriteBigString        004fb2c0 f   msg.obj
 0002:000443d0       _MSG_WriteAngle            004fb3d0 f   msg.obj
 0002:00044420       _MSG_WriteAngle16          004fb420 f   msg.obj
 0002:00044470       _MSG_ReadChar              004fb470 f   msg.obj
 0002:000444c0       _MSG_ReadByte              004fb4c0 f   msg.obj
 0002:00044510       _MSG_ReadShort             004fb510 f   msg.obj
 0002:00044560       _MSG_ReadLong              004fb560 f   msg.obj
 0002:000445b0       _MSG_ReadFloat             004fb5b0 f   msg.obj
 0002:00044600       _MSG_ReadString            004fb600 f   msg.obj
 0002:000446a0       _MSG_ReadBigString         004fb6a0 f   msg.obj
 0002:00044730       _MSG_ReadStringLine        004fb730 f   msg.obj
 0002:000447d0       _MSG_ReadAngle16           004fb7d0 f   msg.obj
 0002:00044810       _MSG_ReadData              004fb810 f   msg.obj
 0002:00044860       _MSG_WriteDelta            004fb860 f   msg.obj
 0002:000448d0       _MSG_ReadDelta             004fb8d0 f   msg.obj
 0002:00044920       _MSG_WriteDeltaFloat       004fb920 f   msg.obj
 0002:00044990       _MSG_ReadDeltaFloat        004fb990 f   msg.obj
 0002:000449e0       _MSG_WriteDeltaKey         004fb9e0 f   msg.obj
 0002:00044a50       _MSG_ReadDeltaKey          004fba50 f   msg.obj
 0002:00044ab0       _MSG_WriteDeltaKeyFloat    004fbab0 f   msg.obj
 0002:00044b20       _MSG_ReadDeltaKeyFloat     004fbb20 f   msg.obj
 0002:00044b70       _MSG_WriteDeltaUsercmd     004fbb70 f   msg.obj
 0002:00044d20       _MSG_ReadDeltaUsercmd      004fbd20 f   msg.obj
 0002:00044ea0       _MSG_WriteDeltaUsercmdKey  004fbea0 f   msg.obj
 0002:00045170       _MSG_ReadDeltaUsercmdKey   004fc170 f   msg.obj
 0002:000453c0       _MSG_ReportChangeVectors_f 004fc3c0 f   msg.obj
 0002:00045430       _MSG_WriteDeltaEntity      004fc430 f   msg.obj
 0002:00045830       _MSG_ReadDeltaEntity       004fc830 f   msg.obj
 0002:00045c70       _MSG_WriteDeltaPlayerstate 004fcc70 f   msg.obj
 0002:00046440       _MSG_ReadDeltaPlayerstate  004fd440 f   msg.obj
 0002:00046a30       _MSG_initHuffman           004fda30 f   msg.obj
 0002:00046ae0       _Netchan_Init              004fdae0 f   net_chan.obj
 0002:00046b80       _Netchan_Setup             004fdb80 f   net_chan.obj
 0002:00046c10       _Netchan_TransmitNextFragment 004fdc10 f   net_chan.obj
 0002:00046e40       _Netchan_Transmit          004fde40 f   net_chan.obj
 0002:00047010       _Netchan_Process           004fe010 f   net_chan.obj
 0002:00047530       _NET_CompareBaseAdr        004fe530 f   net_chan.obj
 0002:00047600       _NET_AdrToString           004fe600 f   net_chan.obj
 0002:00047760       _NET_CompareAdr            004fe760 f   net_chan.obj
 0002:00047850       _NET_IsLocalAddress        004fe850 f   net_chan.obj
 0002:00047870       _NET_GetLoopPacket         004fe870 f   net_chan.obj
 0002:000479a0       _NET_SendLoopPacket        004fe9a0 f   net_chan.obj
 0002:00047a40       _NET_SendPacket            004fea40 f   net_chan.obj
 0002:00047b30       _NET_OutOfBandPrint        004feb30 f   net_chan.obj
 0002:00047c00       _NET_OutOfBandData         004fec00 f   net_chan.obj
 0002:00047d10       _NET_StringToAdr           004fed10 f   net_chan.obj
 0002:00047ec0       _Q_rand                    004feec0 f   q_math.obj
 0002:00047f00       _Q_random                  004fef00 f   q_math.obj
 0002:00047f40       _Q_crandom                 004fef40 f   q_math.obj
 0002:00047f70       _ClampChar                 004fef70 f   q_math.obj
 0002:00047fa0       _ClampShort                004fefa0 f   q_math.obj
 0002:00047fe0       _DirToByte                 004fefe0 f   q_math.obj
 0002:000480b0       _ByteToDir                 004ff0b0 f   q_math.obj
 0002:00048150       _ColorBytes3               004ff150 f   q_math.obj
 0002:000481b0       _ColorBytes4               004ff1b0 f   q_math.obj
 0002:00048220       _NormalizeColor            004ff220 f   q_math.obj
 0002:00048300       _PlaneFromPoints           004ff300 f   q_math.obj
 0002:00048490       _RotatePointAroundVector   004ff490 f   q_math.obj
 0002:00048750       _RotateAroundDirection     004ff750 f   q_math.obj
 0002:00048800       _vectoangles               004ff800 f   q_math.obj
 0002:000489e0       _AnglesToAxis              004ff9e0 f   q_math.obj
 0002:00048a50       _AxisClear                 004ffa50 f   q_math.obj
 0002:00048ae0       _AxisCopy                  004ffae0 f   q_math.obj
 0002:00048b80       _ProjectPointOnPlane       004ffb80 f   q_math.obj
 0002:00048cc0       _MakeNormalVectors         004ffcc0 f   q_math.obj
 0002:00048dc0       _VectorRotate              004ffdc0 f   q_math.obj
 0002:00048e80       _Q_rsqrt                   004ffe80 f   q_math.obj
 0002:00048ef0       _Q_fabs                    004ffef0 f   q_math.obj
 0002:00048f20       _LerpAngle                 004fff20 f   q_math.obj
 0002:00048fa0       _AngleSubtract             004fffa0 f   q_math.obj
 0002:00049010       _AnglesSubtract            00500010 f   q_math.obj
 0002:00049090       _AngleMod                  00500090 f   q_math.obj
 0002:000490e0       _AngleNormalize360         005000e0 f   q_math.obj
 0002:00049120       _AngleNormalize180         00500120 f   q_math.obj
 0002:00049170       _AngleDelta                00500170 f   q_math.obj
 0002:000491a0       _SetPlaneSignbits          005001a0 f   q_math.obj
 0002:00049220       _BoxOnPlaneSide            00500220 f   q_math.obj
 0002:000494f0       _RadiusFromBounds          005004f0 f   q_math.obj
 0002:00049610       _ClearBounds               00500610 f   q_math.obj
 0002:00049670       _AddPointToBounds          00500670 f   q_math.obj
 0002:00049770       _VectorNormalize           00500770 f   q_math.obj
 0002:00049830       _VectorNormalize2          00500830 f   q_math.obj
 0002:00049920       __VectorMA                 00500920 f   q_math.obj
 0002:00049980       __DotProduct               00500980 f   q_math.obj
 0002:000499d0       __VectorSubtract           005009d0 f   q_math.obj
 0002:00049a30       __VectorAdd                00500a30 f   q_math.obj
 0002:00049a90       __VectorCopy               00500a90 f   q_math.obj
 0002:00049ad0       __VectorScale              00500ad0 f   q_math.obj
 0002:00049b20       _Vector4Scale              00500b20 f   q_math.obj
 0002:00049b80       _Q_log2                    00500b80 f   q_math.obj
 0002:00049bc0       _MatrixMultiply            00500bc0 f   q_math.obj
 0002:00049dd0       _AngleVectors              00500dd0 f   q_math.obj
 0002:0004a040       _PerpendicularVector       00501040 f   q_math.obj
 0002:0004a130       _Com_Clamp                 00501130 f   q_shared.obj
 0002:0004a180       _COM_SkipPath              00501180 f   q_shared.obj
 0002:0004a1e0       _COM_StripExtension        005011e0 f   q_shared.obj
 0002:0004a240       _COM_DefaultExtension      00501240 f   q_shared.obj
 0002:0004a2f0       _ShortSwap                 005012f0 f   q_shared.obj
 0002:0004a340       _ShortNoSwap               00501340 f   q_shared.obj
 0002:0004a360       _LongSwap                  00501360 f   q_shared.obj
 0002:0004a3e0       _LongNoSwap                005013e0 f   q_shared.obj
 0002:0004a400       _Long64Swap                00501400 f   q_shared.obj
 0002:0004a460       _Long64NoSwap              00501460 f   q_shared.obj
 0002:0004a480       _FloatSwap                 00501480 f   q_shared.obj
 0002:0004a4c0       _FloatNoSwap               005014c0 f   q_shared.obj
 0002:0004a4e0       _COM_BeginParseSession     005014e0 f   q_shared.obj
 0002:0004a530       _COM_GetCurrentParseLine   00501530 f   q_shared.obj
 0002:0004a550       _COM_Parse                 00501550 f   q_shared.obj
 0002:0004a580       _COM_ParseError            00501580 f   q_shared.obj
 0002:0004a5f0       _COM_ParseWarning          005015f0 f   q_shared.obj
 0002:0004a660       _COM_Compress              00501660 f   q_shared.obj
 0002:0004a8e0       _COM_ParseExt              005018e0 f   q_shared.obj
 0002:0004ac10       _COM_MatchToken            00501c10 f   q_shared.obj
 0002:0004ac70       _SkipBracedSection         00501c70 f   q_shared.obj
 0002:0004ad00       _SkipRestOfLine            00501d00 f   q_shared.obj
 0002:0004ad70       _Parse1DMatrix             00501d70 f   q_shared.obj
 0002:0004ae00       _Parse2DMatrix             00501e00 f   q_shared.obj
 0002:0004ae90       _Parse3DMatrix             00501e90 f   q_shared.obj
 0002:0004af30       _Q_isprint                 00501f30 f   q_shared.obj
 0002:0004af60       _Q_islower                 00501f60 f   q_shared.obj
 0002:0004af90       _Q_isupper                 00501f90 f   q_shared.obj
 0002:0004afc0       _Q_isalpha                 00501fc0 f   q_shared.obj
 0002:0004b000       _Q_strrchr                 00502000 f   q_shared.obj
 0002:0004b080       _Q_strncpyz                00502080 f   q_shared.obj
 0002:0004b110       _Q_stricmpn                00502110 f   q_shared.obj
 0002:0004b210       _Q_strncmp                 00502210 f   q_shared.obj
 0002:0004b2a0       _Q_stricmp                 005022a0 f   q_shared.obj
 0002:0004b2f0       _Q_strlwr                  005022f0 f   q_shared.obj
 0002:0004b350       _Q_strupr                  00502350 f   q_shared.obj
 0002:0004b3b0       _Q_strcat                  005023b0 f   q_shared.obj
 0002:0004b420       _Q_PrintStrlen             00502420 f   q_shared.obj
 0002:0004b4c0       _Q_CleanStr                005024c0 f   q_shared.obj
 0002:0004b580       _Com_sprintf               00502580 f   q_shared.obj
 0002:0004b630       _va                        00502630 f   q_shared.obj
 0002:0004b6a0       _Info_ValueForKey          005026a0 f   q_shared.obj
 0002:0004b880       _Info_NextPair             00502880 f   q_shared.obj
 0002:0004b990       _Info_RemoveKey            00502990 f   q_shared.obj
 0002:0004bb60       _Info_RemoveKey_Big        00502b60 f   q_shared.obj
 0002:0004bd30       _Info_Validate             00502d30 f   q_shared.obj
 0002:0004bd90       _Info_SetValueForKey       00502d90 f   q_shared.obj
 0002:0004bf70       _Info_SetValueForKey_Big   00502f70 f   q_shared.obj
 0002:0004c140       _S_AdpcmEncode             00503140 f   snd_adpcm.obj
 0002:0004c3b0       _S_AdpcmDecode             005033b0 f   snd_adpcm.obj
 0002:0004c5a0       _S_AdpcmMemoryNeeded       005035a0 f   snd_adpcm.obj
 0002:0004c640       _S_AdpcmGetSamples         00503640 f   snd_adpcm.obj
 0002:0004c6a0       _S_AdpcmEncodeSound        005036a0 f   snd_adpcm.obj
 0002:0004c7b0       _S_SoundInfo_f             005037b0 f   snd_dma.obj
 0002:0004c8f0       _S_Init                    005038f0 f   snd_dma.obj
 0002:0004cb70       _S_ChannelFree             00503b70 f   snd_dma.obj
 0002:0004cbb0       _S_ChannelMalloc           00503bb0 f   snd_dma.obj
 0002:0004cc00       _S_ChannelSetup            00503c00 f   snd_dma.obj
 0002:0004cca0       _S_Shutdown                00503ca0 f   snd_dma.obj
 0002:0004cd30       _S_DefaultSound            00503d30 f   snd_dma.obj
 0002:0004cdb0       _S_DisableSounds           00503db0 f   snd_dma.obj
 0002:0004cde0       _S_BeginRegistration       00503de0 f   snd_dma.obj
 0002:0004ce70       _S_RegisterSound           00503e70 f   snd_dma.obj
 0002:0004d200       _S_memoryLoad              00504200 f   snd_dma.obj
 0002:0004d250       _S_SpatializeOrigin        00504250 f   snd_dma.obj
 0002:0004d410       _S_StartSound              00504410 f   snd_dma.obj
 0002:0004d860       _S_StartLocalSound         00504860 f   snd_dma.obj
 0002:0004d8e0       _S_ClearSoundBuffer        005048e0 f   snd_dma.obj
 0002:0004d9d0       _S_StopAllSounds           005049d0 f   snd_dma.obj
 0002:0004da00       _S_StopLoopingSound        00504a00 f   snd_dma.obj
 0002:0004da40       _S_ClearLoopingSounds      00504a40 f   snd_dma.obj
 0002:0004daf0       _S_AddLoopingSound         00504af0 f   snd_dma.obj
 0002:0004df30       _S_AddRealLoopingSound     00504f30 f   snd_dma.obj
 0002:0004e0c0       _S_AddLoopSounds           005050c0 f   snd_dma.obj
 0002:0004e360       _S_ByteSwapRawSamples      00505360 f   snd_dma.obj
 0002:0004e3e0       _S_GetRawSamplePointer     005053e0 f   snd_dma.obj
 0002:0004e400       _S_RawSamples              00505400 f   snd_dma.obj
 0002:0004e860       _S_UpdateEntityPosition    00505860 f   snd_dma.obj
 0002:0004e8e0       _S_Respatialize            005058e0 f   snd_dma.obj
 0002:0004eaf0       _S_ScanChannelStarts       00505af0 f   snd_dma.obj
 0002:0004ebb0       _S_Update                  00505bb0 f   snd_dma.obj
 0002:0004ecd0       _S_GetSoundtime            00505cd0 f   snd_dma.obj
 0002:0004edd0       _S_Update_                 00505dd0 f   snd_dma.obj
 0002:0004ef60       _S_Play_f                  00505f60 f   snd_dma.obj
 0002:0004f050       _S_Music_f                 00506050 f   snd_dma.obj
 0002:0004f0f0       _S_SoundList_f             005060f0 f   snd_dma.obj
 0002:0004f240       _FGetLittleLong            00506240 f   snd_dma.obj
 0002:0004f270       _FGetLittleShort           00506270 f   snd_dma.obj
 0002:0004f2a0       _S_FindWavChunk            005062a0 f   snd_dma.obj
 0002:0004f350       _S_StopBackgroundTrack     00506350 f   snd_dma.obj
 0002:0004f3b0       _S_StartBackgroundTrack    005063b0 f   snd_dma.obj
 0002:0004f6f0       _S_UpdateBackgroundTrack   005066f0 f   snd_dma.obj
 0002:0004f990       _S_FreeOldestSound         00506990 f   snd_dma.obj
 0002:0004faa0       _SND_free                  00506aa0 f   snd_mem.obj
 0002:0004fae0       _SND_malloc                00506ae0 f   snd_mem.obj
 0002:0004fb60       _SND_setup                 00506b60 f   snd_mem.obj
 0002:0004fc80       _S_LoadSound               00506c80 f   snd_mem.obj
 0002:000505c0       _S_DisplayFreeMemory       005075c0 f   snd_mem.obj
 0002:00050600       _S_WriteLinearBlastStereo16 00507600 f   snd_mix.obj
 0002:000506a0       _S_TransferStereo16        005076a0 f   snd_mix.obj
 0002:00050780       _S_TransferPaintBuffer     00507780 f   snd_mix.obj
 0002:00050a00       _S_PaintChannelFromWavelet 00507a00 f   snd_mix.obj
 0002:00050bc0       _S_PaintChannelFromADPCM   00507bc0 f   snd_mix.obj
 0002:00050da0       _S_PaintChannelFromMuLaw   00507da0 f   snd_mix.obj
 0002:00051010       _S_PaintChannels           00508010 f   snd_mix.obj
 0002:00051870       _daub4                     00508870 f   snd_wavelet.obj
 0002:00051df0       _wt1                       00508df0 f   snd_wavelet.obj
 0002:00051ea0       _MuLawEncode               00508ea0 f   snd_wavelet.obj
 0002:00051f60       _MuLawDecode               00508f60 f   snd_wavelet.obj
 0002:00051fe0       _NXPutc                    00508fe0 f   snd_wavelet.obj
 0002:00052020       _encodeWavelet             00509020 f   snd_wavelet.obj
 0002:00052310       _decodeWavelet             00509310 f   snd_wavelet.obj
 0002:00052450       _encodeMuLaw               00509450 f   snd_wavelet.obj
 0002:00052620       _decodeMuLaw               00509620 f   snd_wavelet.obj
 0002:00052690       _SV_BotAllocateClient      00509690 f   sv_bot.obj
 0002:00052780       _SV_BotFreeClient          00509780 f   sv_bot.obj
 0002:00052830       _BotDrawDebugPolygons      00509830 f   sv_bot.obj
 0002:00052a60       _BotImport_Print           00509a60 f   sv_bot.obj
 0002:00052ba0       _BotImport_Trace           00509ba0 f   sv_bot.obj
 0002:00052cb0       _BotImport_EntityTrace     00509cb0 f   sv_bot.obj
 0002:00052dc0       _BotImport_PointContents   00509dc0 f   sv_bot.obj
 0002:00052df0       _BotImport_inPVS           00509df0 f   sv_bot.obj
 0002:00052e20       _BotImport_BSPEntityData   00509e20 f   sv_bot.obj
 0002:00052e40       _BotImport_BSPModelMinsMaxsOrigin 00509e40 f   sv_bot.obj
 0002:00052fa0       _BotImport_GetMemory       00509fa0 f   sv_bot.obj
 0002:00052ff0       _BotImport_FreeMemory      00509ff0 f   sv_bot.obj
 0002:00053020       _BotImport_HunkAlloc       0050a020 f   sv_bot.obj
 0002:00053080       _BotImport_DebugPolygonCreate 0050a080 f   sv_bot.obj
 0002:00053160       _BotImport_DebugPolygonShow 0050a160 f   sv_bot.obj
 0002:000531e0       _BotImport_DebugPolygonDelete 0050a1e0 f   sv_bot.obj
 0002:00053220       _BotImport_DebugLineCreate 0050a220 f   sv_bot.obj
 0002:00053250       _BotImport_DebugLineDelete 0050a250 f   sv_bot.obj
 0002:00053280       _BotImport_DebugLineShow   0050a280 f   sv_bot.obj
 0002:00053580       _BotClientCommand          0050a580 f   sv_bot.obj
 0002:000535c0       _SV_BotFrame               0050a5c0 f   sv_bot.obj
 0002:00053610       _SV_BotLibSetup            0050a610 f   sv_bot.obj
 0002:00053670       _SV_BotLibShutdown         0050a670 f   sv_bot.obj
 0002:000536b0       _SV_BotInitCvars           0050a6b0 f   sv_bot.obj
 0002:000539e0       _SV_BotInitBotLib          0050a9e0 f   sv_bot.obj
 0002:00053bb0       _SV_BotGetConsoleMessage   0050abb0 f   sv_bot.obj
 0002:00053c90       _SV_BotGetSnapshotEntity   0050ac90 f   sv_bot.obj
 0002:00053d30       _SV_Heartbeat_f            0050ad30 f   sv_ccmds.obj
 0002:00053d50       _SV_AddOperatorCommands    0050ad50 f   sv_ccmds.obj
 0002:00055420       _SV_RemoveOperatorCommands 0050c420 f   sv_ccmds.obj
 0002:00055440       _SV_GetChallenge           0050c440 f   sv_client.obj
 0002:000559a0       _SV_AuthorizeIpPacket      0050c9a0 f   sv_client.obj
 0002:00055e70       _SV_DirectConnect          0050ce70 f   sv_client.obj
 0002:00056cc0       _SV_DropClient             0050dcc0 f   sv_client.obj
 0002:00056f60       _SV_SendClientGameState    0050df60 f   sv_client.obj
 0002:00057220       _SV_ClientEnterWorld       0050e220 f   sv_client.obj
 0002:000573f0       _SV_StopDownload_f         0050e3f0 f   sv_client.obj
 0002:00057460       _SV_DoneDownload_f         0050e460 f   sv_client.obj
 0002:000574a0       _SV_NextDownload_f         0050e4a0 f   sv_client.obj
 0002:000575d0       _SV_BeginDownload_f        0050e5d0 f   sv_client.obj
 0002:00057620       _SV_WriteDownloadToClient  0050e620 f   sv_client.obj
 0002:00058480       _SV_UserinfoChanged        0050f480 f   sv_client.obj
 0002:00058870       _SV_ExecuteClientCommand   0050f870 f   sv_client.obj
 0002:00058980       _SV_ClientThink            0050f980 f   sv_client.obj
 0002:00058a10       _SV_ExecuteClientMessage   0050fa10 f   sv_client.obj
 0002:00059150       _SV_GameError              00510150 f   sv_game.obj
 0002:00059180       _SV_GamePrint              00510180 f   sv_game.obj
 0002:000591b0       _SV_NumForGentity          005101b0 f   sv_game.obj
 0002:000591e0       _SV_GentityNum             005101e0 f   sv_game.obj
 0002:00059210       _SV_GameClientNum          00510210 f   sv_game.obj
 0002:00059240       _SV_SvEntityForGentity     00510240 f   sv_game.obj
 0002:000592a0       _SV_GEntityForSvEntity     005102a0 f   sv_game.obj
 0002:000592e0       _SV_GameSendServerCommand  005102e0 f   sv_game.obj
 0002:00059360       _SV_GameDropClient         00510360 f   sv_game.obj
 0002:000593c0       _SV_SetBrushModel          005103c0 f   sv_game.obj
 0002:000594f0       _SV_inPVS                  005104f0 f   sv_game.obj
 0002:000595e0       _SV_inPVSIgnorePortals     005105e0 f   sv_game.obj
 0002:000596b0       _SV_AdjustAreaPortalState  005106b0 f   sv_game.obj
 0002:00059710       _SV_EntityContact          00510710 f   sv_game.obj
 0002:000597a0       _SV_GetServerinfo          005107a0 f   sv_game.obj
 0002:00059800       _SV_LocateGameData         00510800 f   sv_game.obj
 0002:00059850       _SV_GetUsercmd             00510850 f   sv_game.obj
 0002:000598e0       _SV_GameSystemCalls        005108e0 f   sv_game.obj
 0002:0005cab0       _SV_ShutdownGameProgs      00513ab0 f   sv_game.obj
 0002:0005cb10       _SV_RestartGameProgs       00513b10 f   sv_game.obj
 0002:0005cc30       _SV_InitGameProgs          00513c30 f   sv_game.obj
 0002:0005ccf0       _SV_GameCommand            00513cf0 f   sv_game.obj
 0002:0005cd30       _SV_SetConfigstring        00513d30 f   sv_init.obj
 0002:0005cf90       _SV_GetConfigstring        00513f90 f   sv_init.obj
 0002:0005d030       _SV_SetUserinfo            00514030 f   sv_init.obj
 0002:0005d100       _SV_GetUserinfo            00514100 f   sv_init.obj
 0002:0005d190       _SV_CreateBaseline         00514190 f   sv_init.obj
 0002:0005d220       _SV_BoundMaxClients        00514220 f   sv_init.obj
 0002:0005d2d0       _SV_Startup                005142d0 f   sv_init.obj
 0002:0005d3b0       _SV_ChangeMaxClients       005143b0 f   sv_init.obj
 0002:0005d640       _SV_ClearServer            00514640 f   sv_init.obj
 0002:0005d6c0       _SV_TouchCGame             005146c0 f   sv_init.obj
 0002:0005d730       _SV_SpawnServer            00514730 f   sv_init.obj
 0002:0005de20       _SV_Init                   00514e20 f   sv_init.obj
 0002:0005e310       _SV_FinalMessage           00515310 f   sv_init.obj
 0002:0005e400       _SV_Shutdown               00515400 f   sv_init.obj
 0002:0005e510       _SV_ExpandNewlines         00515510 f   sv_main.obj
 0002:0005e5d0       _SV_ReplacePendingServerCommands 005155d0 f   sv_main.obj
 0002:0005e6f0       _SV_AddServerCommand       005156f0 f   sv_main.obj
 0002:0005e830       _SV_SendServerCommand      00515830 f   sv_main.obj
 0002:0005e980       _SV_MasterHeartbeat        00515980 f   sv_main.obj
 0002:0005ec70       _SV_MasterShutdown         00515c70 f   sv_main.obj
 0002:0005ecb0       _SVC_Status                00515cb0 f   sv_main.obj
 0002:0005ef70       _SVC_Info                  00515f70 f   sv_main.obj
 0002:0005f2c0       _SV_FlushRedirect          005162c0 f   sv_main.obj
 0002:0005f330       _SVC_RemoteCommand         00516330 f   sv_main.obj
 0002:0005f600       _SV_ConnectionlessPacket   00516600 f   sv_main.obj
 0002:0005f950       _SV_PacketEvent            00516950 f   sv_main.obj
 0002:0005fba0       _SV_CalcPings              00516ba0 f   sv_main.obj
 0002:0005fd80       _SV_CheckTimeouts          00516d80 f   sv_main.obj
 0002:0005ff00       _SV_CheckPaused            00516f00 f   sv_main.obj
 0002:00060000       _SV_Frame                  00517000 f   sv_main.obj
 0002:00060310       _SV_Netchan_TransmitNextFragment 00517310 f   sv_net_chan.obj
 0002:00060600       _SV_Netchan_Transmit       00517600 f   sv_net_chan.obj
 0002:00060730       _SV_Netchan_Process        00517730 f   sv_net_chan.obj
 0002:00060950       _SV_UpdateServerCommandsToClient 00517950 f   sv_snapshot.obj
 0002:00060a00       _SV_SendMessageToClient    00517a00 f   sv_snapshot.obj
 0002:00060c90       _SV_SendClientSnapshot     00517c90 f   sv_snapshot.obj
 0002:00061b80       _SV_SendClientMessages     00518b80 f   sv_snapshot.obj
 0002:00061c70       _SV_ClipHandleForEntity    00518c70 f   sv_world.obj
 0002:00061d10       _SV_SectorList_f           00518d10 f   sv_world.obj
 0002:00061db0       _SV_CreateworldSector      00518db0 f   sv_world.obj
 0002:00061fb0       _SV_ClearWorld             00518fb0 f   sv_world.obj
 0002:00062030       _SV_UnlinkEntity           00519030 f   sv_world.obj
 0002:00062100       _SV_LinkEntity             00519100 f   sv_world.obj
 0002:00062980       _SV_AreaEntities_r         00519980 f   sv_world.obj
 0002:00062b80       _SV_AreaEntities           00519b80 f   sv_world.obj
 0002:00062be0       _SV_ClipToEntity           00519be0 f   sv_world.obj
 0002:00062cf0       _SV_ClipMoveToEntities     00519cf0 f   sv_world.obj
 0002:00063000       _SV_Trace                  0051a000 f   sv_world.obj
 0002:00063240       _SV_PointContents          0051a240 f   sv_world.obj
 0002:000633c0       _unzStringFileNameCompare  0051a3c0 f   unzip.obj
 0002:00063510       _unzlocal_SearchCentralDir 0051a510 f   unzip.obj
 0002:00063720       _unzReOpen                 0051a720 f   unzip.obj
 0002:000637b0       _unzOpen                   0051a7b0 f   unzip.obj
 0002:00063b50       _unzClose                  0051ab50 f   unzip.obj
 0002:00063bc0       _unzGetGlobalInfo          0051abc0 f   unzip.obj
 0002:00063c10       _unzGetCurrentFileInfo     0051ac10 f   unzip.obj
 0002:00064250       _unzGoToFirstFile          0051b250 f   unzip.obj
 0002:000642f0       _unzGoToNextFile           0051b2f0 f   unzip.obj
 0002:000643e0       _unzGetCurrentFileInfoPosition 0051b3e0 f   unzip.obj
 0002:00064420       _unzSetCurrentFileInfoPosition 0051b420 f   unzip.obj
 0002:000644a0       _unzLocateFile             0051b4a0 f   unzip.obj
 0002:000645c0       _unzOpenCurrentFile        0051b5c0 f   unzip.obj
 0002:00064b90       _unzReadCurrentFile        0051bb90 f   unzip.obj
 0002:00064f10       _unztell                   0051bf10 f   unzip.obj
 0002:00064f60       _unzeof                    0051bf60 f   unzip.obj
 0002:00064fc0       _unzGetLocalExtrafield     0051bfc0 f   unzip.obj
 0002:000650c0       _unzCloseCurrentFile       0051c0c0 f   unzip.obj
 0002:00065190       _unzGetGlobalComment       0051c190 f   unzip.obj
 0002:0006a490       _VM_VM2C                   00521490 f   vm.obj
 0002:0006a4b0       _VM_Debug                  005214b0 f   vm.obj
 0002:0006a4d0       _VM_Init                   005214d0 f   vm.obj
 0002:0006a580       _VM_ValueToSymbol          00521580 f   vm.obj
 0002:0006a630       _VM_ValueToFunctionSymbol  00521630 f   vm.obj
 0002:0006a690       _VM_SymbolToValue          00521690 f   vm.obj
 0002:0006a6f0       _VM_SymbolForCompiledPointer 005216f0 f   vm.obj
 0002:0006a7a0       _ParseHex                  005217a0 f   vm.obj
 0002:0006a860       _VM_LoadSymbols            00521860 f   vm.obj
 0002:0006ab80       _VM_DllSyscall             00521b80 f   vm.obj
 0002:0006abb0       _VM_Restart                00521bb0 f   vm.obj
 0002:0006ae50       _VM_Create                 00521e50 f   vm.obj
 0002:0006b380       _VM_Free                   00522380 f   vm.obj
 0002:0006b400       _VM_Clear                  00522400 f   vm.obj
 0002:0006b4b0       _VM_ArgPtr                 005224b0 f   vm.obj
 0002:0006b520       _VM_ExplicitArgPtr         00522520 f   vm.obj
 0002:0006b580       _VM_Call                   00522580 f   vm.obj
 0002:0006b710       _VM_VmProfile_f            00522710 f   vm.obj
 0002:0006b930       _VM_VmInfo_f               00522930 f   vm.obj
 0002:0006ba60       _VM_LogSyscalls            00522a60 f   vm.obj
 0002:0006bb10       _VM_Indent                 00522b10 f   vm_interpreted.obj
 0002:0006bb60       _VM_StackTrace             00522b60 f   vm_interpreted.obj
 0002:0006bbf0       _VM_PrepareInterpreter     00522bf0 f   vm_interpreted.obj
 0002:0006bec0       _VM_CallInterpreted        00522ec0 f   vm_interpreted.obj
 0002:0006d4a0       _AsmCall                   005244a0 f   vm_x86.obj
 0002:0006d560       _EmitMovEBXEDI             00524560 f   vm_x86.obj
 0002:0006d8e0       _VM_Compile                005248e0 f   vm_x86.obj
 0002:0006fed0       _VM_CallCompiled           00526ed0 f   vm_x86.obj
 0002:00070170       _IN_InitWin32Mouse         00527170 f   win_input.obj
 0002:00070190       _IN_ShutdownWin32Mouse     00527190 f   win_input.obj
 0002:000701b0       _IN_ActivateWin32Mouse     005271b0 f   win_input.obj
 0002:000702b0       _IN_DeactivateWin32Mouse   005272b0 f   win_input.obj
 0002:000702f0       _IN_Win32Mouse             005272f0 f   win_input.obj
 0002:00070350       _IN_InitDIMouse            00527350 f   win_input.obj
 0002:000705c0       _IN_ShutdownDIMouse        005275c0 f   win_input.obj
 0002:00070630       _IN_ActivateDIMouse        00527630 f   win_input.obj
 0002:000706b0       _IN_DeactivateDIMouse      005276b0 f   win_input.obj
 0002:000706f0       _IN_DIMouse                005276f0 f   win_input.obj
 0002:00070a30       _IN_ActivateMouse          00527a30 f   win_input.obj
 0002:00070ab0       _IN_DeactivateMouse        00527ab0 f   win_input.obj
 0002:00070b00       _IN_StartupMouse           00527b00 f   win_input.obj
 0002:00070c20       _IN_MouseEvent             00527c20 f   win_input.obj
 0002:00070d20       _IN_MouseMove              00527d20 f   win_input.obj
 0002:00070da0       _IN_Startup                00527da0 f   win_input.obj
 0002:00070e10       _IN_Shutdown               00527e10 f   win_input.obj
 0002:00070e50       _IN_Init                   00527e50 f   win_input.obj
 0002:00070fc0       _IN_Activate               00527fc0 f   win_input.obj
 0002:00070ff0       _IN_Frame                  00527ff0 f   win_input.obj
 0002:000710e0       _IN_ClearStates            005280e0 f   win_input.obj
 0002:00071100       _IN_StartupJoystick        00528100 f   win_input.obj
 0002:00071380       _JoyToF                    00528380 f   win_input.obj
 0002:000713f0       _JoyToI                    005283f0 f   win_input.obj
 0002:00071420       _IN_JoyMove                00528420 f   win_input.obj
 0002:00071dd0       _Spk_Open                  00528dd0 f   win_main.obj
 0002:00071e10       _Spk_Close                 00528e10 f   win_main.obj
 0002:00071e50       _Spk_Printf                00528e50 f   win_main.obj
 0002:00071ef0       _Sys_LowPhysicalMemory     00528ef0 f   win_main.obj
 0002:00071f20       _Sys_BeginProfiling        00528f20 f   win_main.obj
 0002:00071f40       _Sys_Error                 00528f40 f   win_main.obj
 0002:00072040       _Sys_Quit                  00529040 f   win_main.obj
 0002:00072080       _Sys_Print                 00529080 f   win_main.obj
 0002:000720b0       _Sys_Mkdir                 005290b0 f   win_main.obj
 0002:000720e0       _Sys_Cwd                   005290e0 f   win_main.obj
 0002:00072120       _Sys_DefaultCDPath         00529120 f   win_main.obj
 0002:00072140       _Sys_DefaultBasePath       00529140 f   win_main.obj
 0002:00072160       _Sys_ListFilteredFiles     00529160 f   win_main.obj
 0002:000723e0       _Sys_ListFiles             005293e0 f   win_main.obj
 0002:00072950       _Sys_FreeFileList          00529950 f   win_main.obj
 0002:000729c0       _Sys_ScanForCD             005299c0 f   win_main.obj
 0002:00072b40       _Sys_CheckCD               00529b40 f   win_main.obj
 0002:00072b60       _Sys_GetClipboardData      00529b60 f   win_main.obj
 0002:00072c50       _Sys_UnloadDll             00529c50 f   win_main.obj
 0002:00072ca0       _Sys_LoadDll               00529ca0 f   win_main.obj
 0002:00072ed0       _Sys_InitStreamThread      00529ed0 f   win_main.obj
 0002:00072ef0       _Sys_ShutdownStreamThread  00529ef0 f   win_main.obj
 0002:00072f10       _Sys_BeginStreamedFile     00529f10 f   win_main.obj
 0002:00072f30       _Sys_EndStreamedFile       00529f30 f   win_main.obj
 0002:00072f50       _Sys_StreamedRead          00529f50 f   win_main.obj
 0002:00072f90       _Sys_StreamSeek            00529f90 f   win_main.obj
 0002:00072fc0       _Sys_QueEvent              00529fc0 f   win_main.obj
 0002:000730b0       _Sys_GetEvent              0052a0b0 f   win_main.obj
 0002:000733d0       _Sys_In_Restart_f          0052a3d0 f   win_main.obj
 0002:000733f0       _Sys_Net_Restart_f         0052a3f0 f   win_main.obj
 0002:00073410       _Sys_Init                  0052a410 f   win_main.obj
 0002:00073970       _WinMain@16                0052a970 f   win_main.obj
 0002:00073ae0       _NET_ErrorString           0052aae0 f   win_net.obj
 0002:00073f00       _NetadrToSockadr           0052af00 f   win_net.obj
 0002:00074060       _SockadrToNetadr           0052b060 f   win_net.obj
 0002:00074120       _Sys_StringToSockaddr      0052b120 f   win_net.obj
 0002:000744e0       _Sys_StringToAdr           0052b4e0 f   win_net.obj
 0002:00074530       _Sys_GetPacket             0052b530 f   win_net.obj
 0002:000747f0       _Sys_SendPacket            0052b7f0 f   win_net.obj
 0002:000749a0       _Sys_IsLANAddress          0052b9a0 f   win_net.obj
 0002:00074c50       _Sys_ShowIP                0052bc50 f   win_net.obj
 0002:00074ce0       _NET_IPSocket              0052bce0 f   win_net.obj
 0002:00074ed0       _NET_OpenSocks             0052bed0 f   win_net.obj
 0002:000754b0       _NET_GetLocalAddress       0052c4b0 f   win_net.obj
 0002:00075710       _NET_OpenIP                0052c710 f   win_net.obj
 0002:00075820       _NET_IPXSocket             0052c820 f   win_net.obj
 0002:000759b0       _NET_OpenIPX               0052c9b0 f   win_net.obj
 0002:00075a10       _NET_Config                0052ca10 f   win_net.obj
 0002:00075da0       _NET_Init                  0052cda0 f   win_net.obj
 0002:00075e20       _NET_Shutdown              0052ce20 f   win_net.obj
 0002:00075e70       _NET_Sleep                 0052ce70 f   win_net.obj
 0002:00075e90       _NET_Restart               0052ce90 f   win_net.obj
 0002:00075ec0       _Sys_Milliseconds          0052cec0 f   win_shared.obj
 0002:00075f10       _fastftol                  0052cf10 f   win_shared.obj
 0002:00075f40       _Sys_SnapVector            0052cf40 f   win_shared.obj
 0002:00075fc0       _Sys_GetProcessorId        0052cfc0 f   win_shared.obj
 0002:00076250       _Sys_GetCurrentUser        0052d250 f   win_shared.obj
 0002:000762d0       _Sys_DefaultHomePath       0052d2d0 f   win_shared.obj
 0002:000762f0       _Sys_DefaultInstallPath    0052d2f0 f   win_shared.obj
 0002:00076310       _SNDDMA_Shutdown           0052d310 f   win_snd.obj
 0002:000764f0       _SNDDMA_Init               0052d4f0 f   win_snd.obj
 0002:00076570       _SNDDMA_InitDS             0052d570 f   win_snd.obj
 0002:000769d0       _SNDDMA_GetDMAPos          0052d9d0 f   win_snd.obj
 0002:00076a50       _SNDDMA_BeginPainting      0052da50 f   win_snd.obj
 0002:00076c50       _SNDDMA_Submit             0052dc50 f   win_snd.obj
 0002:00076ca0       _SNDDMA_Activate           0052dca0 f   win_snd.obj
 0002:00076d00       _InputLineWndProc@16       0052dd00 f   win_syscon.obj
 0002:00076e60       _Sys_CreateConsole         0052de60 f   win_syscon.obj
 0002:00077770       _Sys_DestroyConsole        0052e770 f   win_syscon.obj
 0002:000777d0       _Sys_ShowConsole           0052e7d0 f   win_syscon.obj
 0002:000778b0       _Sys_ConsoleInput          0052e8b0 f   win_syscon.obj
 0002:00077900       _Conbuf_AppendText         0052e900 f   win_syscon.obj
 0002:00077c50       _Sys_SetErrorText          0052ec50 f   win_syscon.obj
 0002:00077d20       _MainWndProc@16            0052ed20 f   win_wndproc.obj
 0002:000788ce       _joyGetDevCapsA@12         0052f8ce f   winmm:WINMM.dll
 0002:000788d4       _joyGetPosEx@8             0052f8d4 f   winmm:WINMM.dll
 0002:000788da       _joyGetNumDevs@0           0052f8da f   winmm:WINMM.dll
 0002:000788e0       _midiInStart@4             0052f8e0 f   winmm:WINMM.dll
 0002:000788e6       _midiInOpen@20             0052f8e6 f   winmm:WINMM.dll
 0002:000788ec       _midiInGetDevCapsA@12      0052f8ec f   winmm:WINMM.dll
 0002:000788f2       _midiInGetNumDevs@0        0052f8f2 f   winmm:WINMM.dll
 0002:000788f8       _midiInClose@4             0052f8f8 f   winmm:WINMM.dll
 0002:000788fe       _timeEndPeriod@4           0052f8fe f   winmm:WINMM.dll
 0002:00078904       _timeGetTime@0             0052f904 f   winmm:WINMM.dll
 0002:0007890a       _timeBeginPeriod@4         0052f90a f   winmm:WINMM.dll
 0002:00078910       _WSAGetLastError@0         0052f910 f   wsock32:WSOCK32.dll
 0002:00078916       _gethostbyname@4           0052f916 f   wsock32:WSOCK32.dll
 0002:0007891c       _inet_addr@4               0052f91c f   wsock32:WSOCK32.dll
 0002:00078922       _recvfrom@24               0052f922 f   wsock32:WSOCK32.dll
 0002:00078928       _sendto@24                 0052f928 f   wsock32:WSOCK32.dll
 0002:0007892e       _closesocket@4             0052f92e f   wsock32:WSOCK32.dll
 0002:00078934       _bind@12                   0052f934 f   wsock32:WSOCK32.dll
 0002:0007893a       _htons@4                   0052f93a f   wsock32:WSOCK32.dll
 0002:00078940       _setsockopt@20             0052f940 f   wsock32:WSOCK32.dll
 0002:00078946       _ioctlsocket@12            0052f946 f   wsock32:WSOCK32.dll
 0002:0007894c       _socket@12                 0052f94c f   wsock32:WSOCK32.dll
 0002:00078952       _recv@16                   0052f952 f   wsock32:WSOCK32.dll
 0002:00078958       _send@16                   0052f958 f   wsock32:WSOCK32.dll
 0002:0007895e       _connect@12                0052f95e f   wsock32:WSOCK32.dll
 0002:00078964       _ntohl@4                   0052f964 f   wsock32:WSOCK32.dll
 0002:0007896a       _gethostname@8             0052f96a f   wsock32:WSOCK32.dll
 0002:00078970       _WSAStartup@8              0052f970 f   wsock32:WSOCK32.dll
 0002:00078976       _WSACleanup@0              0052f976 f   wsock32:WSOCK32.dll
 0002:0007897c       _GetProcAddress@8          0052f97c f   kernel32:KERNEL32.dll
 0002:00078982       _LoadLibraryA@4            0052f982 f   kernel32:KERNEL32.dll
 0002:00078988       _GlobalMemoryStatus@4      0052f988 f   kernel32:KERNEL32.dll
 0002:0007898e       _GetDriveTypeA@4           0052f98e f   kernel32:KERNEL32.dll
 0002:00078994       _GlobalUnlock@4            0052f994 f   kernel32:KERNEL32.dll
 0002:0007899a       _GlobalSize@4              0052f99a f   kernel32:KERNEL32.dll
 0002:000789a0       _GlobalLock@4              0052f9a0 f   kernel32:KERNEL32.dll
 0002:000789a6       _FreeLibrary@4             0052f9a6 f   kernel32:KERNEL32.dll
 0002:000789ac       _GetVersionExA@4           0052f9ac f   kernel32:KERNEL32.dll
 0002:000789b2       _Sleep@4                   0052f9b2 f   kernel32:KERNEL32.dll
 0002:000789b8       _SetErrorMode@4            0052f9b8 f   kernel32:KERNEL32.dll
 0002:000789be       _MulDiv@12                 0052f9be f   kernel32:KERNEL32.dll
 0002:000789c4       _ShowCursor@4              0052f9c4 f   user32:USER32.dll
 0002:000789ca       _ClipCursor@4              0052f9ca f   user32:USER32.dll
 0002:000789d0       _SetCapture@4              0052f9d0 f   user32:USER32.dll
 0002:000789d6       _SetCursorPos@8            0052f9d6 f   user32:USER32.dll
 0002:000789dc       _GetWindowRect@8           0052f9dc f   user32:USER32.dll
 0002:000789e2       _GetSystemMetrics@4        0052f9e2 f   user32:USER32.dll
 0002:000789e8       _ReleaseCapture@0          0052f9e8 f   user32:USER32.dll
 0002:000789ee       _GetCursorPos@4            0052f9ee f   user32:USER32.dll
 0002:000789f4       _DispatchMessageA@4        0052f9f4 f   user32:USER32.dll
 0002:000789fa       _TranslateMessage@4        0052f9fa f   user32:USER32.dll
 0002:00078a00       _GetMessageA@16            0052fa00 f   user32:USER32.dll
 0002:00078a06       _CloseClipboard@0          0052fa06 f   user32:USER32.dll
 0002:00078a0c       _GetClipboardData@4        0052fa0c f   user32:USER32.dll
 0002:00078a12       _OpenClipboard@4           0052fa12 f   user32:USER32.dll
 0002:00078a18       _PeekMessageA@20           0052fa18 f   user32:USER32.dll
 0002:00078a1e       _CallWindowProcA@20        0052fa1e f   user32:USER32.dll
 0002:00078a24       _SetWindowTextA@8          0052fa24 f   user32:USER32.dll
 0002:00078a2a       _GetWindowTextA@12         0052fa2a f   user32:USER32.dll
 0002:00078a30       _SetFocus@4                0052fa30 f   user32:USER32.dll
 0002:00078a36       _SetForegroundWindow@4     0052fa36 f   user32:USER32.dll
 0002:00078a3c       _UpdateWindow@4            0052fa3c f   user32:USER32.dll
 0002:00078a42       _ShowWindow@8              0052fa42 f   user32:USER32.dll
 0002:00078a48       _SetWindowLongA@12         0052fa48 f   user32:USER32.dll
 0002:00078a4e       _SendMessageA@16           0052fa4e f   user32:USER32.dll
 0002:00078a54       _CreateWindowExA@48        0052fa54 f   user32:USER32.dll
 0002:00078a5a       _ReleaseDC@8               0052fa5a f   user32:USER32.dll
 0002:00078a60       _GetDC@4                   0052fa60 f   user32:USER32.dll
 0002:00078a66       _GetDesktopWindow@0        0052fa66 f   user32:USER32.dll
 0002:00078a6c       _AdjustWindowRect@12       0052fa6c f   user32:USER32.dll
 0002:00078a72       _RegisterClassA@4          0052fa72 f   user32:USER32.dll
 0002:00078a78       _LoadCursorA@8             0052fa78 f   user32:USER32.dll
 0002:00078a7e       _LoadIconA@8               0052fa7e f   user32:USER32.dll
 0002:00078a84       _InvalidateRect@12         0052fa84 f   user32:USER32.dll
 0002:00078a8a       _DefWindowProcA@16         0052fa8a f   user32:USER32.dll
 0002:00078a90       _SetTimer@16               0052fa90 f   user32:USER32.dll
 0002:00078a96       _PostQuitMessage@4         0052fa96 f   user32:USER32.dll
 0002:00078a9c       _DestroyWindow@4           0052fa9c f   user32:USER32.dll
 0002:00078aa2       _CloseWindow@4             0052faa2 f   user32:USER32.dll
 0002:00078aa8       _GetWindowLongA@8          0052faa8 f   user32:USER32.dll
 0002:00078aae       _RegisterWindowMessageA@4  0052faae f   user32:USER32.dll
 0002:00078ab4       _SystemParametersInfoA@16  0052fab4 f   user32:USER32.dll
 0002:00078aba       _RegisterHotKey@16         0052faba f   user32:USER32.dll
 0002:00078ac0       _UnregisterHotKey@8        0052fac0 f   user32:USER32.dll
 0002:00078ac6       _CreateFontA@56            0052fac6 f   gdi32:GDI32.dll
 0002:00078acc       _GetDeviceCaps@8           0052facc f   gdi32:GDI32.dll
 0002:00078ad2       _CreateSolidBrush@4        0052fad2 f   gdi32:GDI32.dll
 0002:00078ad8       _SetTextColor@8            0052fad8 f   gdi32:GDI32.dll
 0002:00078ade       _SetBkColor@8              0052fade f   gdi32:GDI32.dll
 0002:00078ae4       _GetUserNameA@8            0052fae4 f   advapi32:ADVAPI32.dll
 0002:00078aea       _CoUninitialize@0          0052faea f   ole32:ole32.dll
 0002:00078af0       _CoInitialize@4            0052faf0 f   ole32:ole32.dll
 0002:00078af6       _CoCreateInstance@20       0052faf6 f   ole32:ole32.dll
 0002:00078b00       _GL_CheckErrors            0052fb00 f   renderer:tr_init.obj
 0002:00078ce0       _R_GetModeInfo             0052fce0 f   renderer:tr_init.obj
 0002:00078dd0       _RB_TakeScreenshot         0052fdd0 f   renderer:tr_init.obj
 0002:00078fd0       _RB_TakeScreenshotJPEG     0052ffd0 f   renderer:tr_init.obj
 0002:00079120       _RB_TakeScreenshotCmd      00530120 f   renderer:tr_init.obj
 0002:000791f0       _R_TakeScreenshot          005301f0 f   renderer:tr_init.obj
 0002:000792c0       _R_ScreenshotFilename      005302c0 f   renderer:tr_init.obj
 0002:000793e0       _R_ScreenshotFilenameJPEG  005303e0 f   renderer:tr_init.obj
 0002:00079500       _R_LevelShot               00530500 f   renderer:tr_init.obj
 0002:000799e0       _R_ScreenShot_f            005309e0 f   renderer:tr_init.obj
 0002:00079c70       _R_ScreenShotJPEG_f        00530c70 f   renderer:tr_init.obj
 0002:00079f00       _GL_SetDefaultState        00530f00 f   renderer:tr_init.obj
 0002:0007a140       _R_Register                00531140 f   renderer:tr_init.obj
 0002:0007bcc0       _R_Init                    00532cc0 f   renderer:tr_init.obj
 0002:0007c270       _RE_Shutdown               00533270 f   renderer:tr_init.obj
 0002:0007c420       _RE_EndRegistration        00533420 f   renderer:tr_init.obj
 0002:0007c480       _GetRefAPI                 00533480 f   renderer:tr_init.obj
 0002:0007c690       _R_CullLocalBox            00533690 f   renderer:tr_main.obj
 0002:0007cae0       _R_CullLocalPointAndRadius 00533ae0 f   renderer:tr_main.obj
 0002:0007cb90       _R_CullPointAndRadius      00533b90 f   renderer:tr_main.obj
 0002:0007cca0       _R_LocalNormalToWorld      00533ca0 f   renderer:tr_main.obj
 0002:0007cd80       _R_LocalPointToWorld       00533d80 f   renderer:tr_main.obj
 0002:0007ce70       _R_WorldToLocal            00533e70 f   renderer:tr_main.obj
 0002:0007cf50       _R_TransformModelToClip    00533f50 f   renderer:tr_main.obj
 0002:0007d080       _R_TransformClipToWindow   00534080 f   renderer:tr_main.obj
 0002:0007d1c0       _myGlMultMatrix            005341c0 f   renderer:tr_main.obj
 0002:0007d2d0       _R_RotateForEntity         005342d0 f   renderer:tr_main.obj
 0002:0007d6c0       _R_RotateForViewer         005346c0 f   renderer:tr_main.obj
 0002:0007d900       _R_SetupProjection         00534900 f   renderer:tr_main.obj
 0002:0007dce0       _R_SetupFrustum            00534ce0 f   renderer:tr_main.obj
 0002:0007e0a0       _R_MirrorPoint             005350a0 f   renderer:tr_main.obj
 0002:0007e260       _R_MirrorVector            00535260 f   renderer:tr_main.obj
 0002:0007e3a0       _R_PlaneForSurface         005353a0 f   renderer:tr_main.obj
 0002:0007e5e0       _R_GetPortalOrientations   005355e0 f   renderer:tr_main.obj
 0002:0007ee10       _R_MirrorViewBySurface     00535e10 f   renderer:tr_main.obj
 0002:0007f960       _R_SpriteFogNum            00536960 f   renderer:tr_main.obj
 0002:0007fa90       _qsortFast                 00536a90 f   renderer:tr_main.obj
 0002:0007ff40       _R_AddDrawSurf             00536f40 f   renderer:tr_main.obj
 0002:0007ffe0       _R_DecomposeSort           00536fe0 f   renderer:tr_main.obj
 0002:00080060       _R_SortDrawSurfs           00537060 f   renderer:tr_main.obj
 0002:00080270       _R_AddEntitySurfaces       00537270 f   renderer:tr_main.obj
 0002:00080590       _R_GenerateDrawSurfs       00537590 f   renderer:tr_main.obj
 0002:000805f0       _R_DebugPolygon            005375f0 f   renderer:tr_main.obj
 0002:00080820       _R_DebugGraphics           00537820 f   renderer:tr_main.obj
 0002:000808b0       _R_RenderView              005378b0 f   renderer:tr_main.obj
 0002:000809b0       _QGL_Shutdown              005379b0 f   renderer:win_qgl.obj
 0002:00081bd0       _QGL_Init                  00538bd0 f   renderer:win_qgl.obj
 0002:00086850       _QGL_EnableLogging         0053d850 f   renderer:win_qgl.obj
 0002:00093bd0       _R_GammaCorrect            0054abd0 f   renderer:tr_image.obj
 0002:00093c40       _GL_TextureMode            0054ac40 f   renderer:tr_image.obj
 0002:00093e10       _R_SumOfUsedImages         0054ae10 f   renderer:tr_image.obj
 0002:00093ec0       _R_ImageList_f             0054aec0 f   renderer:tr_image.obj
 0002:00094390       _R_LightScaleTexture       0054b390 f   renderer:tr_image.obj
 0002:00094580       _R_CreateImage             0054b580 f   renderer:tr_image.obj
 0002:00095df0       _init_destination          0054cdf0 f   renderer:tr_image.obj
 0002:00095e50       _empty_output_buffer       0054ce50 f   renderer:tr_image.obj
 0002:00095e80       _jpeg_start_compress       0054ce80 f   renderer:tr_image.obj
 0002:00095fc0       _jpeg_write_scanlines      0054cfc0 f   renderer:tr_image.obj
 0002:000961d0       _term_destination          0054d1d0 f   renderer:tr_image.obj
 0002:00096230       _jpegDest                  0054d230 f   renderer:tr_image.obj
 0002:000962f0       _SaveJPG                   0054d2f0 f   renderer:tr_image.obj
 0002:00096570       _R_LoadImage               0054d570 f   renderer:tr_image.obj
 0002:00098410       _R_FindImageFile           0054f410 f   renderer:tr_image.obj
 0002:00098770       _R_InitFogTable            0054f770 f   renderer:tr_image.obj
 0002:00098820       _R_FogFactor               0054f820 f   renderer:tr_image.obj
 0002:00098920       _R_CreateBuiltinImages     0054f920 f   renderer:tr_image.obj
 0002:00099150       _R_SetColorMappings        00550150 f   renderer:tr_image.obj
 0002:000994a0       _R_InitImages              005504a0 f   renderer:tr_image.obj
 0002:00099510       _R_DeleteTextures          00550510 f   renderer:tr_image.obj
 0002:00099660       _RE_RegisterSkin           00550660 f   renderer:tr_image.obj
 0002:00099d90       _R_InitSkins               00550d90 f   renderer:tr_image.obj
 0002:00099ea0       _R_GetSkinByHandle         00550ea0 f   renderer:tr_image.obj
 0002:00099f00       _R_SkinList_f              00550f00 f   renderer:tr_image.obj
 0002:0009a050       _R_PerformanceCounters     00551050 f   renderer:tr_cmds.obj
 0002:0009a3b0       _R_InitCommandBuffers      005513b0 f   renderer:tr_cmds.obj
 0002:0009a490       _R_ShutdownCommandBuffers  00551490 f   renderer:tr_cmds.obj
 0002:0009a500       _R_IssueRenderCommands     00551500 f   renderer:tr_cmds.obj
 0002:0009a690       _R_SyncRenderThread        00551690 f   renderer:tr_cmds.obj
 0002:0009a700       _R_GetCommandBuffer        00551700 f   renderer:tr_cmds.obj
 0002:0009a7e0       _R_AddDrawSurfCmd          005517e0 f   renderer:tr_cmds.obj
 0002:0009a8a0       _RE_SetColor               005518a0 f   renderer:tr_cmds.obj
 0002:0009a960       _RE_StretchPic             00551960 f   renderer:tr_cmds.obj
 0002:0009aa50       _RE_BeginFrame             00551a50 f   renderer:tr_cmds.obj
 0002:0009ae30       _RE_EndFrame               00551e30 f   renderer:tr_cmds.obj
 0002:0009af00       _GL_Bind                   00551f00 f   renderer:tr_backend.obj
 0002:0009b000       _GL_SelectTexture          00552000 f   renderer:tr_backend.obj
 0002:0009b140       _GL_BindMultitexture       00552140 f   renderer:tr_backend.obj
 0002:0009b270       _GL_Cull                   00552270 f   renderer:tr_backend.obj
 0002:0009b3a0       _GL_TexEnv                 005523a0 f   renderer:tr_backend.obj
 0002:0009b540       _GL_State                  00552540 f   renderer:tr_backend.obj
 0002:0009bb40       _RB_BeginDrawingView       00552b40 f   renderer:tr_backend.obj
 0002:0009c030       _RB_RenderDrawSurfList     00553030 f   renderer:tr_backend.obj
 0002:0009c540       _RB_SetGL2D                00553540 f   renderer:tr_backend.obj
 0002:0009c720       _RE_StretchRaw             00553720 f   renderer:tr_backend.obj
 0002:0009cc90       _RE_UploadCinematic        00553c90 f   renderer:tr_backend.obj
 0002:0009ce90       _RB_SetColor               00553e90 f   renderer:tr_backend.obj
 0002:0009cf40       _RB_StretchPic             00553f40 f   renderer:tr_backend.obj
 0002:0009d320       _RB_DrawSurfs              00554320 f   renderer:tr_backend.obj
 0002:0009d3e0       _RB_DrawBuffer             005543e0 f   renderer:tr_backend.obj
 0002:0009d4a0       _RB_ShowImages             005544a0 f   renderer:tr_backend.obj
 0002:0009d7d0       _RB_SwapBuffers            005547d0 f   renderer:tr_backend.obj
 0002:0009d980       _RB_ExecuteRenderCommands  00554980 f   renderer:tr_backend.obj
 0002:0009db30       _RB_RenderThread           00554b30 f   renderer:tr_backend.obj
 0002:0009dbc0       _R_GetModelByHandle        00554bc0 f   renderer:tr_model.obj
 0002:0009dc20       _R_AllocModel              00554c20 f   renderer:tr_model.obj
 0002:0009dce0       _RE_RegisterModel          00554ce0 f   renderer:tr_model.obj
 0002:0009f0b0       _RE_BeginRegistration      005560b0 f   renderer:tr_model.obj
 0002:0009f160       _R_ModelInit               00556160 f   renderer:tr_model.obj
 0002:0009f1d0       _R_Modellist_f             005561d0 f   renderer:tr_model.obj
 0002:0009f320       _R_LerpTag                 00556320 f   renderer:tr_model.obj
 0002:0009f660       _R_ModelBounds             00556660 f   renderer:tr_model.obj
 0002:0009f800       _R_RemapShader             00556800 f   renderer:tr_shader.obj
 0002:0009fb60       _ParseSort                 00556b60 f   renderer:tr_shader.obj
 0002:0009fd90       _R_FindShaderByName        00556d90 f   renderer:tr_shader.obj
 0002:0009feb0       _R_FindShader              00556eb0 f   renderer:tr_shader.obj
 0002:000a5270       _RE_RegisterShaderFromImage 0055c270 f   renderer:tr_shader.obj
 0002:000a55f0       _RE_RegisterShaderLightMap 0055c5f0 f   renderer:tr_shader.obj
 0002:000a5690       _RE_RegisterShader         0055c690 f   renderer:tr_shader.obj
 0002:000a5730       _RE_RegisterShaderNoMip    0055c730 f   renderer:tr_shader.obj
 0002:000a57d0       _R_GetShaderByHandle       0055c7d0 f   renderer:tr_shader.obj
 0002:000a5890       _R_ShaderList_f            0055c890 f   renderer:tr_shader.obj
 0002:000a5c80       _R_InitShaders             0055cc80 f   renderer:tr_shader.obj
 0002:000a6670       _readInt                   0055d670 f   renderer:tr_font.obj
 0002:000a6720       _readFloat                 0055d720 f   renderer:tr_font.obj
 0002:000a67f0       _RE_RegisterFont           0055d7f0 f   renderer:tr_font.obj
 0002:000a6cb0       _R_InitFreeType            0055dcb0 f   renderer:tr_font.obj
 0002:000a6cf0       _R_DoneFreeType            0055dcf0 f   renderer:tr_font.obj
 0002:000a6d30       _R_ToggleSmpFrame          0055dd30 f   renderer:tr_scene.obj
 0002:000a6e10       _RE_ClearScene             0055de10 f   renderer:tr_scene.obj
 0002:000a6e70       _R_AddPolygonSurfaces      0055de70 f   renderer:tr_scene.obj
 0002:000a6f40       _RE_AddPolyToScene         0055df40 f   renderer:tr_scene.obj
 0002:000a7330       _RE_AddRefEntityToScene    0055e330 f   renderer:tr_scene.obj
 0002:000a7440       _RE_AddDynamicLightToScene 0055e440 f   renderer:tr_scene.obj
 0002:000a7560       _RE_AddLightToScene        0055e560 f   renderer:tr_scene.obj
 0002:000a75d0       _RE_AddAdditiveLightToScene 0055e5d0 f   renderer:tr_scene.obj
 0002:000a7640       _RE_RenderScene            0055e640 f   renderer:tr_scene.obj
 0002:000a7c70       _R_NoiseInit               0055ec70 f   renderer:tr_noise.obj
 0002:000a7d60       _R_NoiseGet4f              0055ed60 f   renderer:tr_noise.obj
 0002:000a8200       _RB_BeginSurface           0055f200 f   renderer:tr_shade.obj
 0002:000a8350       _RB_StageIteratorGeneric   0055f350 f   renderer:tr_shade.obj
 0002:000aaa40       _RB_StageIteratorVertexLitTexture 00561a40 f   renderer:tr_shade.obj
 0002:000aacb0       _RB_StageIteratorLightmappedMultitexture 00561cb0 f   renderer:tr_shade.obj
 0002:000aafe0       _RB_EndSurface             00561fe0 f   renderer:tr_shade.obj
 0002:000ab5e0       _GLimp_EndFrame            005625e0 f   renderer:win_glimp.obj
 0002:000ab710       _GLimp_Init                00562710 f   renderer:win_glimp.obj
 0002:000aea10       _GLimp_Shutdown            00565a10 f   renderer:win_glimp.obj
 0002:000aed30       _GLimp_LogComment          00565d30 f   renderer:win_glimp.obj
 0002:000aeda0       _GLimp_RenderThreadWrapper 00565da0 f   renderer:win_glimp.obj
 0002:000aee10       _GLimp_SpawnRenderThread   00565e10 f   renderer:win_glimp.obj
 0002:000aef10       _GLimp_RendererSleep       00565f10 f   renderer:win_glimp.obj
 0002:000af070       _GLimp_FrontEndSleep       00566070 f   renderer:win_glimp.obj
 0002:000af110       _GLimp_WakeRenderer        00566110 f   renderer:win_glimp.obj
 0002:000af1d0       _R_AddBrushModelSurfaces   005661d0 f   renderer:tr_world.obj
 0002:000afae0       _R_inPVS                   00566ae0 f   renderer:tr_world.obj
 0002:000afcb0       _R_AddWorldSurfaces        00566cb0 f   renderer:tr_world.obj
 0002:000b05d0       _RE_SetWorldVisData        005675d0 f   renderer:tr_bsp.obj
 0002:000b0610       _R_MergedWidthPoints       00567610 f   renderer:tr_bsp.obj
 0002:000b07b0       _R_MergedHeightPoints      005677b0 f   renderer:tr_bsp.obj
 0002:000b0980       _R_FixSharedVertexLodError_r 00567980 f   renderer:tr_bsp.obj
 0002:000b1340       _R_FixSharedVertexLodError 00568340 f   renderer:tr_bsp.obj
 0002:000b1400       _R_StitchPatches           00568400 f   renderer:tr_bsp.obj
 0002:000b3500       _R_TryStitchingPatch       0056a500 f   renderer:tr_bsp.obj
 0002:000b3660       _R_StitchAllPatches        0056a660 f   renderer:tr_bsp.obj
 0002:000b3760       _R_MovePatchSurfacesToHunk 0056a760 f   renderer:tr_bsp.obj
 0002:000b3970       _R_LoadLightGrid           0056a970 f   renderer:tr_bsp.obj
 0002:000b3e60       _R_LoadEntities            0056ae60 f   renderer:tr_bsp.obj
 0002:000b42d0       _R_GetEntityToken          0056b2d0 f   renderer:tr_bsp.obj
 0002:000b4370       _RE_LoadWorldMap           0056b370 f   renderer:tr_bsp.obj
 0002:000b73b0       _R_TransformDlights        0056e3b0 f   renderer:tr_light.obj
 0002:000b7510       _R_DlightBmodel            0056e510 f   renderer:tr_light.obj
 0002:000b7720       _R_SetupEntityLighting     0056e720 f   renderer:tr_light.obj
 0002:000b8860       _R_LightForPoint           0056f860 f   renderer:tr_light.obj
 0002:000b89b0       _R_BoxSurfaces_r           0056f9b0 f   renderer:tr_marks.obj
 0002:000b8c40       _R_AddMarkFragments        0056fc40 f   renderer:tr_marks.obj
 0002:000b9340       _R_MarkFragments           00570340 f   renderer:tr_marks.obj
 0002:000ba7e0       _RB_CheckOverflow          005717e0 f   renderer:tr_surface.obj
 0002:000ba8e0       _RB_AddQuadStampExt        005718e0 f   renderer:tr_surface.obj
 0002:000baf10       _RB_AddQuadStamp           00571f10 f   renderer:tr_surface.obj
 0002:000baf80       _RB_SurfacePolychain       00571f80 f   renderer:tr_surface.obj
 0002:000bb1d0       _RB_SurfaceTriangles       005721d0 f   renderer:tr_surface.obj
 0002:000bb510       _RB_SurfaceBeam            00572510 f   renderer:tr_surface.obj
 0002:000bb910       _RB_SurfaceRailRings       00572910 f   renderer:tr_surface.obj
 0002:000bc0f0       _RB_SurfaceRailCore        005730f0 f   renderer:tr_surface.obj
 0002:000bc970       _RB_SurfaceLightningBolt   00573970 f   renderer:tr_surface.obj
 0002:000bcc40       _RB_SurfaceMesh            00573c40 f   renderer:tr_surface.obj
 0002:000bd640       _RB_SurfaceFace            00574640 f   renderer:tr_surface.obj
 0002:000bd960       _RB_SurfaceGrid            00574960 f   renderer:tr_surface.obj
 0002:000be280       _RB_SurfaceAxis            00575280 f   renderer:tr_surface.obj
 0002:000be430       _RB_SurfaceEntity          00575430 f   renderer:tr_surface.obj
 0002:000be7d0       _RB_SurfaceBad             005757d0 f   renderer:tr_surface.obj
 0002:000be830       _RB_SurfaceFlare           00575830 f   renderer:tr_surface.obj
 0002:000be860       _RB_SurfaceDisplayList     00575860 f   renderer:tr_surface.obj
 0002:000be8c0       _RB_SurfaceSkip            005758c0 f   renderer:tr_surface.obj
 0002:000be8f0       _R_AddAnimSurfaces         005758f0 f   renderer:tr_animation.obj
 0002:000be9d0       _RB_SurfaceAnim            005759d0 f   renderer:tr_animation.obj
 0002:000bf110       _R_ComputeLOD              00576110 f   renderer:tr_mesh.obj
 0002:000bf510       _R_ComputeFogNum           00576510 f   renderer:tr_mesh.obj
 0002:000bf6c0       _R_AddMD3Surfaces          005766c0 f   renderer:tr_mesh.obj
 0002:000bff10       _jinit_compress_master     00576f10 f   renderer:jcinit.obj
 0002:000c00e0       _jpeg_create_compress      005770e0 f   renderer:jcapimin.obj
 0002:000c0220       _jpeg_destroy_compress     00577220 f   renderer:jcapimin.obj
 0002:000c0270       _jpeg_abort_compress       00577270 f   renderer:jcapimin.obj
 0002:000c02c0       _jpeg_suppress_tables      005772c0 f   renderer:jcapimin.obj
 0002:000c03b0       _jpeg_finish_compress      005773b0 f   renderer:jcapimin.obj
 0002:000c0650       _jpeg_write_marker         00577650 f   renderer:jcapimin.obj
 0002:000c0730       _jpeg_write_tables         00577730 f   renderer:jcapimin.obj
 0002:000c0860       _jpeg_add_quant_table      00577860 f   renderer:jcparam.obj
 0002:000c09c0       _jpeg_set_linear_quality   005779c0 f   renderer:jcparam.obj
 0002:000c0a50       _jpeg_quality_scaling      00577a50 f   renderer:jcparam.obj
 0002:000c0ad0       _jpeg_set_quality          00577ad0 f   renderer:jcparam.obj
 0002:000c0b40       _jpeg_set_defaults         00577b40 f   renderer:jcparam.obj
 0002:000c0ef0       _jpeg_default_colorspace   00577ef0 f   renderer:jcparam.obj
 0002:000c1020       _jpeg_set_colorspace       00578020 f   renderer:jcparam.obj
 0002:000c1810       _jpeg_simple_progression   00578810 f   renderer:jcparam.obj
 0002:000c1d70       _jpeg_std_error            00578d70 f   renderer:jerror.obj
 0002:000c2300       _jpeg_create_decompress    00579300 f   renderer:jdapimin.obj
 0002:000c2450       _jpeg_destroy_decompress   00579450 f   renderer:jdapimin.obj
 0002:000c24a0       _jpeg_abort_decompress     005794a0 f   renderer:jdapimin.obj
 0002:000c24f0       _jpeg_set_marker_processor 005794f0 f   renderer:jdapimin.obj
 0002:000c25c0       _jpeg_read_header          005795c0 f   renderer:jdapimin.obj
 0002:000c26f0       _jpeg_consume_input        005796f0 f   renderer:jdapimin.obj
 0002:000c2cd0       _jpeg_input_complete       00579cd0 f   renderer:jdapimin.obj
 0002:000c2d80       _jpeg_has_multiple_scans   00579d80 f   renderer:jdapimin.obj
 0002:000c2e30       _jpeg_finish_decompress    00579e30 f   renderer:jdapimin.obj
 0002:000c2ff0       _jpeg_start_decompress     00579ff0 f   renderer:jdapistd.obj
 0002:000c3230       _jpeg_read_scanlines       0057a230 f   renderer:jdapistd.obj
 0002:000c33e0       _jpeg_read_raw_data        0057a3e0 f   renderer:jdapistd.obj
 0002:000c35a0       _jpeg_stdio_src            0057a5a0 f   renderer:jdatasrc.obj
 0002:000c38a0       _WG_CheckHardwareGamma     0057a8a0 f   renderer:win_gamma.obj
 0002:000c3b70       _GLimp_SetGamma            0057ab70 f   renderer:win_gamma.obj
 0002:000c3ff0       _WG_RestoreGamma           0057aff0 f   renderer:win_gamma.obj
 0002:000c40f0       _R_ClearFlares             0057b0f0 f   renderer:tr_flares.obj
 0002:000c41b0       _RB_AddFlare               0057b1b0 f   renderer:tr_flares.obj
 0002:000c46b0       _RB_AddDlightFlares        0057b6b0 f   renderer:tr_flares.obj
 0002:000c4860       _RB_TestFlare              0057b860 f   renderer:tr_flares.obj
 0002:000c4ac0       _RB_RenderFlare            0057bac0 f   renderer:tr_flares.obj
 0002:000c5030       _RB_RenderFlares           0057c030 f   renderer:tr_flares.obj
 0002:000c5360       _R_AddEdgeDef              0057c360 f   renderer:tr_shadows.obj
 0002:000c5400       _R_RenderShadowEdges       0057c400 f   renderer:tr_shadows.obj
 0002:000c56a0       _RB_ShadowTessEnd          0057c6a0 f   renderer:tr_shadows.obj
 0002:000c5d60       _RB_ShadowFinish           0057cd60 f   renderer:tr_shadows.obj
 0002:000c5f90       _RB_ProjectionShadowDeform 0057cf90 f   renderer:tr_shadows.obj
 0002:000c6210       _RB_ClipSkyPolygons        0057d210 f   renderer:tr_sky.obj
 0002:000c6ee0       _R_BuildCloudData          0057dee0 f   renderer:tr_sky.obj
 0002:000c7ab0       _R_InitSkyTexCoords        0057eab0 f   renderer:tr_sky.obj
 0002:000c7e00       _RB_DrawSun                0057ee00 f   renderer:tr_sky.obj
 0002:000c8620       _RB_StageIteratorSky       0057f620 f   renderer:tr_sky.obj
 0002:000c8df0       _RB_CalcStretchTexCoords   0057fdf0 f   renderer:tr_shade_calc.obj
 0002:000c9080       _RB_CalcDeformVertexes     00580080 f   renderer:tr_shade_calc.obj
 0002:000c9330       _RB_CalcDeformNormals      00580330 f   renderer:tr_shade_calc.obj
 0002:000c9600       _RB_CalcBulgeVertexes      00580600 f   renderer:tr_shade_calc.obj
 0002:000c9740       _RB_CalcMoveVertexes       00580740 f   renderer:tr_shade_calc.obj
 0002:000c98d0       _DeformText                005808d0 f   renderer:tr_shade_calc.obj
 0002:000c9e10       _RB_DeformTessGeometry     00580e10 f   renderer:tr_shade_calc.obj
 0002:000cae60       _RB_CalcColorFromEntity    00581e60 f   renderer:tr_shade_calc.obj
 0002:000caef0       _RB_CalcColorFromOneMinusEntity 00581ef0 f   renderer:tr_shade_calc.obj
 0002:000cb020       _RB_CalcAlphaFromEntity    00582020 f   renderer:tr_shade_calc.obj
 0002:000cb0b0       _RB_CalcAlphaFromOneMinusEntity 005820b0 f   renderer:tr_shade_calc.obj
 0002:000cb150       _RB_CalcWaveColor          00582150 f   renderer:tr_shade_calc.obj
 0002:000cb2f0       _RB_CalcWaveAlpha          005822f0 f   renderer:tr_shade_calc.obj
 0002:000cb440       _RB_CalcModulateColorsByFog 00582440 f   renderer:tr_shade_calc.obj
 0002:000cb5d0       _RB_CalcModulateAlphasByFog 005825d0 f   renderer:tr_shade_calc.obj
 0002:000cb700       _RB_CalcModulateRGBAsByFog 00582700 f   renderer:tr_shade_calc.obj
 0002:000cb8c0       _RB_CalcFogTexCoords       005828c0 f   renderer:tr_shade_calc.obj
 0002:000cbd70       _RB_CalcEnvironmentTexCoords 00582d70 f   renderer:tr_shade_calc.obj
 0002:000cbf50       _RB_CalcTurbulentTexCoords 00582f50 f   renderer:tr_shade_calc.obj
 0002:000cc0b0       _RB_CalcScaleTexCoords     005830b0 f   renderer:tr_shade_calc.obj
 0002:000cc140       _RB_CalcScrollTexCoords    00583140 f   renderer:tr_shade_calc.obj
 0002:000cc260       _RB_CalcTransformTexCoords 00583260 f   renderer:tr_shade_calc.obj
 0002:000cc330       _RB_CalcRotateTexCoords    00583330 f   renderer:tr_shade_calc.obj
 0002:000cc490       _myftol                    00583490 f   renderer:tr_shade_calc.obj
 0002:000cc4e0       _RB_CalcSpecularAlpha      005834e0 f   renderer:tr_shade_calc.obj
 0002:000cc7c0       _RB_CalcDiffuseColor       005837c0 f   renderer:tr_shade_calc.obj
 0002:000ccac0       _R_CreateSurfaceGridMesh   00583ac0 f   renderer:tr_curve.obj
 0002:000cceb0       _R_FreeSurfaceGridMesh     00583eb0 f   renderer:tr_curve.obj
 0002:000ccf50       _R_SubdividePatchToGrid    00583f50 f   renderer:tr_curve.obj
 0002:000cee50       _R_GridInsertColumn        00585e50 f   renderer:tr_curve.obj
 0002:000cf250       _R_GridInsertRow           00586250 f   renderer:tr_curve.obj
 0002:000cf640       _jinit_marker_writer       00586640 f   renderer:jcmarker.obj
 0002:000d0a30       _jinit_c_main_controller   00587a30 f   renderer:jcmainct.obj
 0002:000d0e00       _jinit_c_coef_controller   00587e00 f   renderer:jccoefct.obj
 0002:000d1d70       _jpeg_make_c_derived_tbl   00588d70 f   renderer:jchuff.obj
 0002:000d1ff0       _jpeg_gen_optimal_table    00588ff0 f   renderer:jchuff.obj
 0002:000d26b0       _jinit_huff_encoder        005896b0 f   renderer:jchuff.obj
 0002:000d3b50       _jinit_phuff_encoder       0058ab50 f   renderer:jcphuff.obj
 0002:000d54b0       _jinit_forward_dct         0058c4b0 f   renderer:jcdctmgr.obj
 0002:000d5ce0       _jinit_c_prep_controller   0058cce0 f   renderer:jcprepct.obj
 0002:000d68a0       _jinit_downsampler         0058d8a0 f   renderer:jcsample.obj
 0002:000d7b20       _jinit_color_converter     0058eb20 f   renderer:jccolor.obj
 0002:000d89c0       _jinit_c_master_control    0058f9c0 f   renderer:jcmaster.obj
 0002:000da430       _jinit_memory_mgr          00591430 f   renderer:jmemmgr.obj
 0002:000dc1b0       _jpeg_abort                005931b0 f   renderer:jcomapi.obj
 0002:000dc250       _jpeg_destroy              00593250 f   renderer:jcomapi.obj
 0002:000dc2e0       _jpeg_alloc_quant_table    005932e0 f   renderer:jcomapi.obj
 0002:000dc360       _jpeg_alloc_huff_table     00593360 f   renderer:jcomapi.obj
 0002:000dc3e0       _jinit_input_controller    005933e0 f   renderer:jdinput.obj
 0002:000dd1b0       _jpeg_resync_to_restart    005941b0 f   renderer:jdmarker.obj
 0002:000dd6e0       _jinit_marker_reader       005946e0 f   renderer:jdmarker.obj
 0002:000e1390       _jpeg_calc_output_dimensions 00598390 f   renderer:jdmaster.obj
 0002:000e1580       _jinit_master_decompress   00598580 f   renderer:jdmaster.obj
 0002:000e1f80       _jdiv_round_up             00598f80 f   renderer:jutils.obj
 0002:000e1fc0       _jround_up                 00598fc0 f   renderer:jutils.obj
 0002:000e2010       _jcopy_sample_rows         00599010 f   renderer:jutils.obj
 0002:000e20e0       _jcopy_block_row           005990e0 f   renderer:jutils.obj
 0002:000e2140       _jzero_far                 00599140 f   renderer:jutils.obj
 0002:000e21a0       _jpeg_fdct_float           005991a0 f   renderer:jfdctflt.obj
 0002:000e27b0       _jpeg_get_small            005997b0 f   renderer:jmemnobs.obj
 0002:000e2810       _jpeg_free_small           00599810 f   renderer:jmemnobs.obj
 0002:000e2870       _jpeg_get_large            00599870 f   renderer:jmemnobs.obj
 0002:000e28d0       _jpeg_free_large           005998d0 f   renderer:jmemnobs.obj
 0002:000e2930       _jpeg_mem_available        00599930 f   renderer:jmemnobs.obj
 0002:000e2970       _jpeg_open_backing_store   00599970 f   renderer:jmemnobs.obj
 0002:000e29e0       _jpeg_mem_init             005999e0 f   renderer:jmemnobs.obj
 0002:000e2a10       _jpeg_mem_term             00599a10 f   renderer:jmemnobs.obj
 0002:000e2a40       _jinit_d_main_controller   00599a40 f   renderer:jdmainct.obj
 0002:000e37a0       _jinit_d_coef_controller   0059a7a0 f   renderer:jdcoefct.obj
 0002:000e3e90       _jpeg_make_d_derived_tbl   0059ae90 f   renderer:jdhuff.obj
 0002:000e4250       _jpeg_fill_bit_buffer      0059b250 f   renderer:jdhuff.obj
 0002:000e44d0       _jpeg_huff_decode          0059b4d0 f   renderer:jdhuff.obj
 0002:000e46c0       _jinit_huff_decoder        0059b6c0 f   renderer:jdhuff.obj
 0002:000e5490       _jinit_inverse_dct         0059c490 f   renderer:jddctmgr.obj
 0002:000e5870       _jinit_d_post_controller   0059c870 f   renderer:jdpostct.obj
 0002:000e5c30       _jinit_upsampler           0059cc30 f   renderer:jdsample.obj
 0002:000e6b00       _jinit_color_deconverter   0059db00 f   renderer:jdcolor.obj
 0002:000e76c0       _jpeg_idct_float           0059e6c0 f   renderer:jidctflt.obj
 0002:000e8080       _Sys_MilliSeconds          0059f080 f   botlib:be_interface.obj
 0002:000e80e0       _ValidClientNumber         0059f0e0 f   botlib:be_interface.obj
 0002:000e8170       _ValidEntityNumber         0059f170 f   botlib:be_interface.obj
 0002:000e8200       _BotLibSetup               0059f200 f   botlib:be_interface.obj
 0002:000e8280       _Export_BotLibSetup        0059f280 f   botlib:be_interface.obj
 0002:000e8410       _Export_BotLibShutdown     0059f410 f   botlib:be_interface.obj
 0002:000e84e0       _Export_BotLibVarSet       0059f4e0 f   botlib:be_interface.obj
 0002:000e8540       _Export_BotLibVarGet       0059f540 f   botlib:be_interface.obj
 0002:000e85c0       _Export_BotLibStartFrame   0059f5c0 f   botlib:be_interface.obj
 0002:000e8630       _Export_BotLibLoadMap      0059f630 f   botlib:be_interface.obj
 0002:000e8730       _Export_BotLibUpdateEntity 0059f730 f   botlib:be_interface.obj
 0002:000e87d0       _BotExportTest             0059f7d0 f   botlib:be_interface.obj
 0002:000e9190       _GetBotLibAPI              005a0190 f   botlib:be_interface.obj
 0002:000e9a90       _BotAllocMoveState         005a0a90 f   botlib:be_ai_move.obj
 0002:000e9b30       _BotFreeMoveState          005a0b30 f   botlib:be_ai_move.obj
 0002:000e9c10       _BotMoveStateFromHandle    005a0c10 f   botlib:be_ai_move.obj
 0002:000e9cd0       _BotInitMoveState          005a0cd0 f   botlib:be_ai_move.obj
 0002:000e9f30       _AngleDiff                 005a0f30 f   botlib:be_ai_move.obj
 0002:000e9fd0       _BotFuzzyPointReachabilityArea 005a0fd0 f   botlib:be_ai_move.obj
 0002:000ea4a0       _BotReachabilityArea       005a14a0 f   botlib:be_ai_move.obj
 0002:000ea8a0       _BotOnMover                005a18a0 f   botlib:be_ai_move.obj
 0002:000eac40       _MoverDown                 005a1c40 f   botlib:be_ai_move.obj
 0002:000eadb0       _BotSetBrushModelTypes     005a1db0 f   botlib:be_ai_move.obj
 0002:000eb020       _BotOnTopOfEntity          005a2020 f   botlib:be_ai_move.obj
 0002:000eb1e0       _BotValidTravel            005a21e0 f   botlib:be_ai_move.obj
 0002:000eb270       _BotAddToAvoidReach        005a2270 f   botlib:be_ai_move.obj
 0002:000eb3c0       _DistanceFromLineSquared   005a23c0 f   botlib:be_ai_move.obj
 0002:000eb690       _VectorDistanceSquared     005a2690 f   botlib:be_ai_move.obj
 0002:000eb750       _BotAvoidSpots             005a2750 f   botlib:be_ai_move.obj
 0002:000ebad0       _BotAddAvoidSpot           005a2ad0 f   botlib:be_ai_move.obj
 0002:000ebc30       _BotGetReachabilityToGoal  005a2c30 f   botlib:be_ai_move.obj
 0002:000ebf00       _BotAddToTarget            005a2f00 f   botlib:be_ai_move.obj
 0002:000ec080       _BotMovementViewTarget     005a3080 f   botlib:be_ai_move.obj
 0002:000ec380       _BotVisible                005a3380 f   botlib:be_ai_move.obj
 0002:000ec450       _BotPredictVisiblePosition 005a3450 f   botlib:be_ai_move.obj
 0002:000ec780       _MoverBottomCenter         005a3780 f   botlib:be_ai_move.obj
 0002:000ec960       _BotGapDistance            005a3960 f   botlib:be_ai_move.obj
 0002:000ecc30       _BotCheckBarrierJump       005a3c30 f   botlib:be_ai_move.obj
 0002:000ecfa0       _BotSwimInDirection        005a3fa0 f   botlib:be_ai_move.obj
 0002:000ed070       _BotWalkInDirection        005a4070 f   botlib:be_ai_move.obj
 0002:000ed5a0       _BotMoveInDirection        005a45a0 f   botlib:be_ai_move.obj
 0002:000ed650       _Intersection              005a4650 f   botlib:be_ai_move.obj
 0002:000ed7a0       _BotCheckBlocked           005a47a0 f   botlib:be_ai_move.obj
 0002:000edb00       _BotClearMoveResult        005a4b00 f   botlib:be_ai_move.obj
 0002:000edb80       _BotTravel_Walk            005a4b80 f   botlib:be_ai_move.obj
 0002:000ede20       _BotFinishTravel_Walk      005a4e20 f   botlib:be_ai_move.obj
 0002:000edf80       _BotTravel_Crouch          005a4f80 f   botlib:be_ai_move.obj
 0002:000ee0e0       _BotTravel_BarrierJump     005a50e0 f   botlib:be_ai_move.obj
 0002:000ee290       _BotFinishTravel_BarrierJump 005a5290 f   botlib:be_ai_move.obj
 0002:000ee3f0       _BotTravel_Swim            005a53f0 f   botlib:be_ai_move.obj
 0002:000ee560       _BotTravel_WaterJump       005a5560 f   botlib:be_ai_move.obj
 0002:000ee760       _BotFinishTravel_WaterJump 005a5760 f   botlib:be_ai_move.obj
 0002:000eea00       _BotTravel_WalkOffLedge    005a5a00 f   botlib:be_ai_move.obj
 0002:000eed30       _BotAirControl             005a5d30 f   botlib:be_ai_move.obj
 0002:000eefd0       _BotFinishTravel_WalkOffLedge 005a5fd0 f   botlib:be_ai_move.obj
 0002:000ef2a0       _BotTravel_Jump            005a62a0 f   botlib:be_ai_move.obj
 0002:000ef7e0       _BotFinishTravel_Jump      005a67e0 f   botlib:be_ai_move.obj
 0002:000ef9e0       _BotTravel_Ladder          005a69e0 f   botlib:be_ai_move.obj
 0002:000efba0       _BotTravel_Teleport        005a6ba0 f   botlib:be_ai_move.obj
 0002:000efd80       _BotTravel_Elevator        005a6d80 f   botlib:be_ai_move.obj
 0002:000f05f0       _BotFinishTravel_Elevator  005a75f0 f   botlib:be_ai_move.obj
 0002:000f0800       _BotFuncBobStartEnd        005a7800 f   botlib:be_ai_move.obj
 0002:000f0b50       _BotTravel_FuncBobbing     005a7b50 f   botlib:be_ai_move.obj
 0002:000f14e0       _BotFinishTravel_FuncBobbing 005a84e0 f   botlib:be_ai_move.obj
 0002:000f18d0       _GrappleState              005a88d0 f   botlib:be_ai_move.obj
 0002:000f19f0       _BotResetGrapple           005a89f0 f   botlib:be_ai_move.obj
 0002:000f1b20       _BotTravel_Grapple         005a8b20 f   botlib:be_ai_move.obj
 0002:000f2340       _BotTravel_RocketJump      005a9340 f   botlib:be_ai_move.obj
 0002:000f2660       _BotTravel_BFGJump         005a9660 f   botlib:be_ai_move.obj
 0002:000f2960       _BotFinishTravel_WeaponJump 005a9960 f   botlib:be_ai_move.obj
 0002:000f2b10       _BotTravel_JumpPad         005a9b10 f   botlib:be_ai_move.obj
 0002:000f2c60       _BotFinishTravel_JumpPad   005a9c60 f   botlib:be_ai_move.obj
 0002:000f2df0       _BotReachabilityTime       005a9df0 f   botlib:be_ai_move.obj
 0002:000f2f90       _BotMoveInGoalArea         005a9f90 f   botlib:be_ai_move.obj
 0002:000f31e0       _BotMoveToGoal             005aa1e0 f   botlib:be_ai_move.obj
 0002:000f4b90       _BotResetAvoidReach        005abb90 f   botlib:be_ai_move.obj
 0002:000f4c40       _BotResetLastAvoidReach    005abc40 f   botlib:be_ai_move.obj
 0002:000f4d60       _BotResetMoveState         005abd60 f   botlib:be_ai_move.obj
 0002:000f4de0       _BotSetupMoveAI            005abde0 f   botlib:be_ai_move.obj
 0002:000f4f50       _BotShutdownMoveAI         005abf50 f   botlib:be_ai_move.obj
 0002:000f4ff0       _BotChatStateFromHandle    005abff0 f   botlib:be_ai_chat.obj
 0002:000f50b0       _InitConsoleMessageHeap    005ac0b0 f   botlib:be_ai_chat.obj
 0002:000f5270       _AllocConsoleMessage       005ac270 f   botlib:be_ai_chat.obj
 0002:000f52f0       _FreeConsoleMessage        005ac2f0 f   botlib:be_ai_chat.obj
 0002:000f5370       _BotRemoveConsoleMessage   005ac370 f   botlib:be_ai_chat.obj
 0002:000f54e0       _BotQueueConsoleMessage    005ac4e0 f   botlib:be_ai_chat.obj
 0002:000f56c0       _BotNextConsoleMessage     005ac6c0 f   botlib:be_ai_chat.obj
 0002:000f5780       _BotNumConsoleMessages     005ac780 f   botlib:be_ai_chat.obj
 0002:000f57f0       _IsWhiteSpace              005ac7f0 f   botlib:be_ai_chat.obj
 0002:000f5920       _BotRemoveTildes           005ac920 f   botlib:be_ai_chat.obj
 0002:000f59e0       _UnifyWhiteSpaces          005ac9e0 f   botlib:be_ai_chat.obj
 0002:000f5b20       _StringContains            005acb20 f   botlib:be_ai_chat.obj
 0002:000f5c90       _StringContainsWord        005acc90 f   botlib:be_ai_chat.obj
 0002:000f5ea0       _StringReplaceWords        005acea0 f   botlib:be_ai_chat.obj
 0002:000f6020       _BotDumpSynonymList        005ad020 f   botlib:be_ai_chat.obj
 0002:000f6140       _BotLoadSynonyms           005ad140 f   botlib:be_ai_chat.obj
 0002:000f68f0       _BotReplaceSynonyms        005ad8f0 f   botlib:be_ai_chat.obj
 0002:000f69b0       _BotReplaceWeightedSynonyms 005ad9b0 f   botlib:be_ai_chat.obj
 0002:000f6b20       _BotReplaceReplySynonyms   005adb20 f   botlib:be_ai_chat.obj
 0002:000f6d60       _BotLoadChatMessage        005add60 f   botlib:be_ai_chat.obj
 0002:000f7010       _BotDumpRandomStringList   005ae010 f   botlib:be_ai_chat.obj
 0002:000f7120       _BotLoadRandomStrings      005ae120 f   botlib:be_ai_chat.obj
 0002:000f7610       _RandomString              005ae610 f   botlib:be_ai_chat.obj
 0002:000f7710       _BotDumpMatchTemplates     005ae710 f   botlib:be_ai_chat.obj
 0002:000f78b0       _BotFreeMatchPieces        005ae8b0 f   botlib:be_ai_chat.obj
 0002:000f7970       _BotLoadMatchPieces        005ae970 f   botlib:be_ai_chat.obj
 0002:000f7e40       _BotFreeMatchTemplates     005aee40 f   botlib:be_ai_chat.obj
 0002:000f7ec0       _BotLoadMatchTemplates     005aeec0 f   botlib:be_ai_chat.obj
 0002:000f8320       _StringsMatch              005af320 f   botlib:be_ai_chat.obj
 0002:000f8580       _BotFindMatch              005af580 f   botlib:be_ai_chat.obj
 0002:000f86e0       _BotMatchVariable          005af6e0 f   botlib:be_ai_chat.obj
 0002:000f8840       _BotFindStringInList       005af840 f   botlib:be_ai_chat.obj
 0002:000f88d0       _BotCheckChatMessageIntegrety 005af8d0 f   botlib:be_ai_chat.obj
 0002:000f8b90       _BotCheckInitialChatIntegrety 005afb90 f   botlib:be_ai_chat.obj
 0002:000f8c70       _BotCheckReplyChatIntegrety 005afc70 f   botlib:be_ai_chat.obj
 0002:000f8d50       _BotDumpReplyChat          005afd50 f   botlib:be_ai_chat.obj
 0002:000f90c0       _BotFreeReplyChat          005b00c0 f   botlib:be_ai_chat.obj
 0002:000f91f0       _BotCheckValidReplyChatKeySet 005b01f0 f   botlib:be_ai_chat.obj
 0002:000f95c0       _BotLoadReplyChat          005b05c0 f   botlib:be_ai_chat.obj
 0002:000f9fb0       _BotDumpInitialChat        005b0fb0 f   botlib:be_ai_chat.obj
 0002:000fa0c0       _BotLoadInitialChat        005b10c0 f   botlib:be_ai_chat.obj
 0002:000fa840       _BotFreeChatFile           005b1840 f   botlib:be_ai_chat.obj
 0002:000fa8e0       _BotLoadChatFile           005b18e0 f   botlib:be_ai_chat.obj
 0002:000fab90       _BotExpandChatMessage      005b1b90 f   botlib:be_ai_chat.obj
 0002:000fb0b0       _BotConstructChatMessage   005b20b0 f   botlib:be_ai_chat.obj
 0002:000fb210       _BotChooseInitialChatMessage 005b2210 f   botlib:be_ai_chat.obj
 0002:000fb430       _BotNumInitialChats        005b2430 f   botlib:be_ai_chat.obj
 0002:000fb560       _BotInitialChat            005b2560 f   botlib:be_ai_chat.obj
 0002:000fb940       _BotPrintReplyChatKeys     005b2940 f   botlib:be_ai_chat.obj
 0002:000fbca0       _BotReplyChat              005b2ca0 f   botlib:be_ai_chat.obj
 0002:000fc5a0       _BotChatLength             005b35a0 f   botlib:be_ai_chat.obj
 0002:000fc610       _BotEnterChat              005b3610 f   botlib:be_ai_chat.obj
 0002:000fc7c0       _BotGetChatMessage         005b37c0 f   botlib:be_ai_chat.obj
 0002:000fc880       _BotSetChatGender          005b3880 f   botlib:be_ai_chat.obj
 0002:000fc930       _BotSetChatName            005b3930 f   botlib:be_ai_chat.obj
 0002:000fc9e0       _BotResetChatAI            005b39e0 f   botlib:be_ai_chat.obj
 0002:000fca60       _BotAllocChatState         005b3a60 f   botlib:be_ai_chat.obj
 0002:000fcb00       _BotFreeChatState          005b3b00 f   botlib:be_ai_chat.obj
 0002:000fccc0       _BotSetupChatAI            005b3cc0 f   botlib:be_ai_chat.obj
 0002:000fce30       _BotShutdownChatAI         005b3e30 f   botlib:be_ai_chat.obj
 0002:000fcff0       _BotGoalStateFromHandle    005b3ff0 f   botlib:be_ai_goal.obj
 0002:000fd0b0       _BotInterbreedGoalFuzzyLogic 005b40b0 f   botlib:be_ai_goal.obj
 0002:000fd150       _BotSaveGoalFuzzyLogic     005b4150 f   botlib:be_ai_goal.obj
 0002:000fd1b0       _BotMutateGoalFuzzyLogic   005b41b0 f   botlib:be_ai_goal.obj
 0002:000fd220       _LoadItemConfig            005b4220 f   botlib:be_ai_goal.obj
 0002:000fd690       _ItemWeightIndex           005b4690 f   botlib:be_ai_goal.obj
 0002:000fd780       _InitLevelItemHeap         005b4780 f   botlib:be_ai_goal.obj
 0002:000fd890       _AllocLevelItem            005b4890 f   botlib:be_ai_goal.obj
 0002:000fd930       _FreeLevelItem             005b4930 f   botlib:be_ai_goal.obj
 0002:000fd980       _AddLevelItemToList        005b4980 f   botlib:be_ai_goal.obj
 0002:000fd9f0       _RemoveLevelItemFromList   005b49f0 f   botlib:be_ai_goal.obj
 0002:000fda70       _BotFreeInfoEntities       005b4a70 f   botlib:be_ai_goal.obj
 0002:000fdb40       _BotInitInfoEntities       005b4b40 f   botlib:be_ai_goal.obj
 0002:000fdf90       _BotInitLevelItems         005b4f90 f   botlib:be_ai_goal.obj
 0002:000fe8c0       _BotGoalName               005b58c0 f   botlib:be_ai_goal.obj
 0002:000fe9a0       _BotResetAvoidGoals        005b59a0 f   botlib:be_ai_goal.obj
 0002:000fea40       _BotDumpAvoidGoals         005b5a40 f   botlib:be_ai_goal.obj
 0002:000feb80       _BotAddToAvoidGoals        005b5b80 f   botlib:be_ai_goal.obj
 0002:000feca0       _BotRemoveFromAvoidGoals   005b5ca0 f   botlib:be_ai_goal.obj
 0002:000fed70       _BotAvoidGoalTime          005b5d70 f   botlib:be_ai_goal.obj
 0002:000fee50       _BotSetAvoidGoalTime       005b5e50 f   botlib:be_ai_goal.obj
 0002:000fefb0       _BotGetLevelItemGoal       005b5fb0 f   botlib:be_ai_goal.obj
 0002:000ff2a0       _BotGetMapLocationGoal     005b62a0 f   botlib:be_ai_goal.obj
 0002:000ff440       _BotGetNextCampSpotGoal    005b6440 f   botlib:be_ai_goal.obj
 0002:000ff5e0       _BotFindEntityForLevelItem 005b65e0 f   botlib:be_ai_goal.obj
 0002:000ff860       _BotUpdateEntityItems      005b6860 f   botlib:be_ai_goal.obj
 0002:000fffc0       _BotDumpGoalStack          005b6fc0 f   botlib:be_ai_goal.obj
 0002:001000c0       _BotPushGoal               005b70c0 f   botlib:be_ai_goal.obj
 0002:001001a0       _BotPopGoal                005b71a0 f   botlib:be_ai_goal.obj
 0002:00100230       _BotEmptyGoalStack         005b7230 f   botlib:be_ai_goal.obj
 0002:001002a0       _BotGetTopGoal             005b72a0 f   botlib:be_ai_goal.obj
 0002:00100350       _BotGetSecondGoal          005b7350 f   botlib:be_ai_goal.obj
 0002:00100400       _BotChooseLTGItem          005b7400 f   botlib:be_ai_goal.obj
 0002:00100990       _BotChooseNBGItem          005b7990 f   botlib:be_ai_goal.obj
 0002:00100fd0       _BotTouchingGoal           005b7fd0 f   botlib:be_ai_goal.obj
 0002:00101280       _BotItemGoalInVisButNotVisible 005b8280 f   botlib:be_ai_goal.obj
 0002:001014c0       _BotResetGoalState         005b84c0 f   botlib:be_ai_goal.obj
 0002:00101560       _BotLoadItemWeights        005b8560 f   botlib:be_ai_goal.obj
 0002:00101640       _BotFreeItemWeights        005b8640 f   botlib:be_ai_goal.obj
 0002:001016e0       _BotAllocGoalState         005b86e0 f   botlib:be_ai_goal.obj
 0002:00101790       _BotFreeGoalState          005b8790 f   botlib:be_ai_goal.obj
 0002:00101880       _BotSetupGoalAI            005b8880 f   botlib:be_ai_goal.obj
 0002:00101970       _BotShutdownGoalAI         005b8970 f   botlib:be_ai_goal.obj
 0002:00101a70       _BotValidWeaponNumber      005b8a70 f   botlib:be_ai_weap.obj
 0002:00101af0       _BotWeaponStateFromHandle  005b8af0 f   botlib:be_ai_weap.obj
 0002:00101bb0       _LoadWeaponConfig          005b8bb0 f   botlib:be_ai_weap.obj
 0002:001024a0       _WeaponWeightIndex         005b94a0 f   botlib:be_ai_weap.obj
 0002:00102560       _BotFreeWeaponWeights      005b9560 f   botlib:be_ai_weap.obj
 0002:00102600       _BotLoadWeaponWeights      005b9600 f   botlib:be_ai_weap.obj
 0002:00102700       _BotGetWeaponInfo          005b9700 f   botlib:be_ai_weap.obj
 0002:001027b0       _BotChooseBestFightWeapon  005b97b0 f   botlib:be_ai_weap.obj
 0002:00102900       _BotResetWeaponState       005b9900 f   botlib:be_ai_weap.obj
 0002:00102990       _BotAllocWeaponState       005b9990 f   botlib:be_ai_weap.obj
 0002:00102a30       _BotFreeWeaponState        005b9a30 f   botlib:be_ai_weap.obj
 0002:00102b20       _BotSetupWeaponAI          005b9b20 f   botlib:be_ai_weap.obj
 0002:00102bd0       _BotShutdownWeaponAI       005b9bd0 f   botlib:be_ai_weap.obj
 0002:00102c80       _EA_Say                    005b9c80 f   botlib:be_ea.obj
 0002:00102cf0       _EA_SayTeam                005b9cf0 f   botlib:be_ea.obj
 0002:00102d60       _EA_Tell                   005b9d60 f   botlib:be_ea.obj
 0002:00102de0       _EA_UseItem                005b9de0 f   botlib:be_ea.obj
 0002:00102e50       _EA_DropItem               005b9e50 f   botlib:be_ea.obj
 0002:00102ec0       _EA_UseInv                 005b9ec0 f   botlib:be_ea.obj
 0002:00102f30       _EA_DropInv                005b9f30 f   botlib:be_ea.obj
 0002:00102fa0       _EA_Gesture                005b9fa0 f   botlib:be_ea.obj
 0002:00103000       _EA_Command                005ba000 f   botlib:be_ea.obj
 0002:00103060       _EA_SelectWeapon           005ba060 f   botlib:be_ea.obj
 0002:001030b0       _EA_Attack                 005ba0b0 f   botlib:be_ea.obj
 0002:00103110       _EA_Talk                   005ba110 f   botlib:be_ea.obj
 0002:00103170       _EA_Use                    005ba170 f   botlib:be_ea.obj
 0002:001031d0       _EA_Respawn                005ba1d0 f   botlib:be_ea.obj
 0002:00103230       _EA_Jump                   005ba230 f   botlib:be_ea.obj
 0002:001032b0       _EA_DelayedJump            005ba2b0 f   botlib:be_ea.obj
 0002:00103340       _EA_Crouch                 005ba340 f   botlib:be_ea.obj
 0002:001033a0       _EA_Walk                   005ba3a0 f   botlib:be_ea.obj
 0002:00103400       _EA_Action                 005ba400 f   botlib:be_ea.obj
 0002:00103460       _EA_MoveUp                 005ba460 f   botlib:be_ea.obj
 0002:001034c0       _EA_MoveDown               005ba4c0 f   botlib:be_ea.obj
 0002:00103520       _EA_MoveForward            005ba520 f   botlib:be_ea.obj
 0002:00103580       _EA_MoveBack               005ba580 f   botlib:be_ea.obj
 0002:001035e0       _EA_MoveLeft               005ba5e0 f   botlib:be_ea.obj
 0002:00103640       _EA_MoveRight              005ba640 f   botlib:be_ea.obj
 0002:001036a0       _EA_Move                   005ba6a0 f   botlib:be_ea.obj
 0002:00103760       _EA_View                   005ba760 f   botlib:be_ea.obj
 0002:001037d0       _EA_EndRegular             005ba7d0 f   botlib:be_ea.obj
 0002:00103800       _EA_GetInput               005ba800 f   botlib:be_ea.obj
 0002:00103880       _EA_ResetInput             005ba880 f   botlib:be_ea.obj
 0002:00103960       _EA_Setup                  005ba960 f   botlib:be_ea.obj
 0002:001039c0       _EA_Shutdown               005ba9c0 f   botlib:be_ea.obj
 0002:00103a20       _AAS_Error                 005baa20 f   botlib:be_aas_main.obj
 0002:00103af0       _AAS_StringFromIndex       005baaf0 f   botlib:be_aas_main.obj
 0002:00103c10       _AAS_IndexFromString       005bac10 f   botlib:be_aas_main.obj
 0002:00103cf0       _AAS_ModelFromIndex        005bacf0 f   botlib:be_aas_main.obj
 0002:00103d50       _AAS_IndexFromModel        005bad50 f   botlib:be_aas_main.obj
 0002:00103db0       _AAS_UpdateStringIndexes   005badb0 f   botlib:be_aas_main.obj
 0002:00103e90       _AAS_Loaded                005bae90 f   botlib:be_aas_main.obj
 0002:00103ed0       _AAS_Initialized           005baed0 f   botlib:be_aas_main.obj
 0002:00103f10       _AAS_SetInitialized        005baf10 f   botlib:be_aas_main.obj
 0002:00103f80       _AAS_ContinueInit          005baf80 f   botlib:be_aas_main.obj
 0002:001040c0       _AAS_StartFrame            005bb0c0 f   botlib:be_aas_main.obj
 0002:00104250       _AAS_Time                  005bb250 f   botlib:be_aas_main.obj
 0002:00104290       _AAS_ProjectPointOntoVector 005bb290 f   botlib:be_aas_main.obj
 0002:00104420       _AAS_LoadFiles             005bb420 f   botlib:be_aas_main.obj
 0002:00104540       _AAS_LoadMap               005bb540 f   botlib:be_aas_main.obj
 0002:001045f0       _AAS_Setup                 005bb5f0 f   botlib:be_aas_main.obj
 0002:001046f0       _AAS_Shutdown              005bb6f0 f   botlib:be_aas_main.obj
 0002:001047c0       _LibVarStringValue         005bb7c0 f   botlib:l_libvar.obj
 0002:001048e0       _LibVarAlloc               005bb8e0 f   botlib:l_libvar.obj
 0002:001049a0       _LibVarDeAlloc             005bb9a0 f   botlib:l_libvar.obj
 0002:00104a10       _LibVarDeAllocAll          005bba10 f   botlib:l_libvar.obj
 0002:00104aa0       _LibVarGet                 005bbaa0 f   botlib:l_libvar.obj
 0002:00104b30       _LibVarGetString           005bbb30 f   botlib:l_libvar.obj
 0002:00104ba0       _LibVarGetValue            005bbba0 f   botlib:l_libvar.obj
 0002:00104c10       _LibVar                    005bbc10 f   botlib:l_libvar.obj
 0002:00104cf0       _LibVarString              005bbcf0 f   botlib:l_libvar.obj
 0002:00104d50       _LibVarValue               005bbd50 f   botlib:l_libvar.obj
 0002:00104db0       _LibVarSet                 005bbdb0 f   botlib:l_libvar.obj
 0002:00104ea0       _LibVarChanged             005bbea0 f   botlib:l_libvar.obj
 0002:00104f10       _LibVarSetNotModified      005bbf10 f   botlib:l_libvar.obj
 0002:00104f80       _Log_Open                  005bbf80 f   botlib:l_log.obj
 0002:001050f0       _Log_Close                 005bc0f0 f   botlib:l_log.obj
 0002:001051b0       _Log_Shutdown              005bc1b0 f   botlib:l_log.obj
 0002:00105200       _Log_Write                 005bc200 f   botlib:l_log.obj
 0002:00105290       _Log_WriteTimeStamped      005bc290 f   botlib:l_log.obj
 0002:001053e0       _Log_FilePointer           005bc3e0 f   botlib:l_log.obj
 0002:00105420       _Log_Flush                 005bc420 f   botlib:l_log.obj
 0002:00105480       _SourceError               005bc480 f   botlib:l_precomp.obj
 0002:00105580       _SourceWarning             005bc580 f   botlib:l_precomp.obj
 0002:00105680       _PC_PushIndent             005bc680 f   botlib:l_precomp.obj
 0002:00105740       _PC_PopIndent              005bc740 f   botlib:l_precomp.obj
 0002:00105830       _PC_PushScript             005bc830 f   botlib:l_precomp.obj
 0002:00105900       _PC_InitTokenHeap          005bc900 f   botlib:l_precomp.obj
 0002:00105930       _PC_CopyToken              005bc930 f   botlib:l_precomp.obj
 0002:001059e0       _PC_FreeToken              005bc9e0 f   botlib:l_precomp.obj
 0002:00105a40       _PC_ReadSourceToken        005bca40 f   botlib:l_precomp.obj
 0002:00105c50       _PC_UnreadSourceToken      005bcc50 f   botlib:l_precomp.obj
 0002:00105cd0       _PC_ReadDefineParms        005bccd0 f   botlib:l_precomp.obj
 0002:00106140       _PC_StringizeTokens        005bd140 f   botlib:l_precomp.obj
 0002:00106250       _PC_MergeTokens            005bd250 f   botlib:l_precomp.obj
 0002:00106340       _PC_PrintDefineHashTable   005bd340 f   botlib:l_precomp.obj
 0002:00106410       _PC_NameHash               005bd410 f   botlib:l_precomp.obj
 0002:001064c0       _PC_AddDefineToHash        005bd4c0 f   botlib:l_precomp.obj
 0002:00106540       _PC_FindHashedDefine       005bd540 f   botlib:l_precomp.obj
 0002:001065e0       _PC_FindDefine             005bd5e0 f   botlib:l_precomp.obj
 0002:00106670       _PC_FindDefineParm         005bd670 f   botlib:l_precomp.obj
 0002:00106710       _PC_FreeDefine             005bd710 f   botlib:l_precomp.obj
 0002:001067e0       _PC_AddBuiltinDefines      005bd7e0 f   botlib:l_precomp.obj
 0002:00106980       _PC_ExpandBuiltinDefine    005bd980 f   botlib:l_precomp.obj
 0002:00106cf0       _PC_ExpandDefine           005bdcf0 f   botlib:l_precomp.obj
 0002:00107320       _PC_ExpandDefineIntoSource 005be320 f   botlib:l_precomp.obj
 0002:00107430       _PC_ConvertPath            005be430 f   botlib:l_precomp.obj
 0002:00107530       _PC_Directive_include      005be530 f   botlib:l_precomp.obj
 0002:00107870       _PC_ReadLine               005be870 f   botlib:l_precomp.obj
 0002:00107930       _PC_WhiteSpaceBeforeToken  005be930 f   botlib:l_precomp.obj
 0002:00107980       _PC_ClearTokenWhiteSpace   005be980 f   botlib:l_precomp.obj
 0002:001079e0       _PC_Directive_undef        005be9e0 f   botlib:l_precomp.obj
 0002:00107c30       _PC_Directive_define       005bec30 f   botlib:l_precomp.obj
 0002:001082e0       _PC_DefineFromString       005bf2e0 f   botlib:l_precomp.obj
 0002:00108520       _PC_AddDefine              005bf520 f   botlib:l_precomp.obj
 0002:001085a0       _PC_AddGlobalDefine        005bf5a0 f   botlib:l_precomp.obj
 0002:00108620       _PC_RemoveGlobalDefine     005bf620 f   botlib:l_precomp.obj
 0002:001086a0       _PC_RemoveAllGlobalDefines 005bf6a0 f   botlib:l_precomp.obj
 0002:00108720       _PC_CopyDefine             005bf720 f   botlib:l_precomp.obj
 0002:00108910       _PC_AddGlobalDefinesToSource 005bf910 f   botlib:l_precomp.obj
 0002:001089b0       _PC_Directive_if_def       005bf9b0 f   botlib:l_precomp.obj
 0002:00108b20       _PC_Directive_ifdef        005bfb20 f   botlib:l_precomp.obj
 0002:00108b70       _PC_Directive_ifndef       005bfb70 f   botlib:l_precomp.obj
 0002:00108bc0       _PC_Directive_else         005bfbc0 f   botlib:l_precomp.obj
 0002:00108cd0       _PC_Directive_endif        005bfcd0 f   botlib:l_precomp.obj
 0002:00108da0       _PC_OperatorPriority       005bfda0 f   botlib:l_precomp.obj
 0002:00108f90       _PC_EvaluateTokens         005bff90 f   botlib:l_precomp.obj
 0002:0010a400       _PC_Evaluate               005c1400 f   botlib:l_precomp.obj
 0002:0010a820       _PC_DollarEvaluate         005c1820 f   botlib:l_precomp.obj
 0002:0010acc0       _PC_Directive_elif         005c1cc0 f   botlib:l_precomp.obj
 0002:0010adf0       _PC_Directive_if           005c1df0 f   botlib:l_precomp.obj
 0002:0010aec0       _PC_Directive_line         005c1ec0 f   botlib:l_precomp.obj
 0002:0010af20       _PC_Directive_error        005c1f20 f   botlib:l_precomp.obj
 0002:0010aff0       _PC_Directive_pragma       005c1ff0 f   botlib:l_precomp.obj
 0002:0010b0a0       _UnreadSignToken           005c20a0 f   botlib:l_precomp.obj
 0002:0010b1b0       _PC_Directive_eval         005c21b0 f   botlib:l_precomp.obj
 0002:0010b320       _PC_Directive_evalfloat    005c2320 f   botlib:l_precomp.obj
 0002:0010b4a0       _PC_ReadDirective          005c24a0 f   botlib:l_precomp.obj
 0002:0010b640       _PC_DollarDirective_evalint 005c2640 f   botlib:l_precomp.obj
 0002:0010b7c0       _PC_DollarDirective_evalfloat 005c27c0 f   botlib:l_precomp.obj
 0002:0010b960       _PC_ReadDollarDirective    005c2960 f   botlib:l_precomp.obj
 0002:0010bb20       _PC_ReadToken              005c2b20 f   botlib:l_precomp.obj
 0002:0010bdd0       _PC_ExpectTokenString      005c2dd0 f   botlib:l_precomp.obj
 0002:0010bed0       _PC_ExpectTokenType        005c2ed0 f   botlib:l_precomp.obj
 0002:0010c240       _PC_ExpectAnyToken         005c3240 f   botlib:l_precomp.obj
 0002:0010c2c0       _PC_CheckTokenString       005c32c0 f   botlib:l_precomp.obj
 0002:0010c3a0       _PC_CheckTokenType         005c33a0 f   botlib:l_precomp.obj
 0002:0010c490       _PC_SkipUntilString        005c3490 f   botlib:l_precomp.obj
 0002:0010c550       _PC_UnreadLastToken        005c3550 f   botlib:l_precomp.obj
 0002:0010c5b0       _PC_UnreadToken            005c35b0 f   botlib:l_precomp.obj
 0002:0010c610       _PC_SetIncludePath         005c3610 f   botlib:l_precomp.obj
 0002:0010c6e0       _PC_SetPunctuations        005c36e0 f   botlib:l_precomp.obj
 0002:0010c720       _LoadSourceFile            005c3720 f   botlib:l_precomp.obj
 0002:0010c860       _LoadSourceMemory          005c3860 f   botlib:l_precomp.obj
 0002:0010c9b0       _FreeSource                005c39b0 f   botlib:l_precomp.obj
 0002:0010cba0       _PC_LoadSourceHandle       005c3ba0 f   botlib:l_precomp.obj
 0002:0010cc70       _PC_FreeSourceHandle       005c3c70 f   botlib:l_precomp.obj
 0002:0010cd10       _PC_ReadTokenHandle        005c3d10 f   botlib:l_precomp.obj
 0002:0010ce50       _PC_SourceFileAndLine      005c3e50 f   botlib:l_precomp.obj
 0002:0010cf30       _PC_SetBaseFolder          005c3f30 f   botlib:l_precomp.obj
 0002:0010cf80       _PC_CheckOpenSourceHandles 005c3f80 f   botlib:l_precomp.obj
 0002:0010d030       _GetMemory                 005c4030 f   botlib:l_memory.obj
 0002:0010d0c0       _GetClearedMemory          005c40c0 f   botlib:l_memory.obj
 0002:0010d130       _GetHunkMemory             005c4130 f   botlib:l_memory.obj
 0002:0010d1c0       _GetClearedHunkMemory      005c41c0 f   botlib:l_memory.obj
 0002:0010d230       _FreeMemory                005c4230 f   botlib:l_memory.obj
 0002:0010d2b0       _AvailableMemory           005c42b0 f   botlib:l_memory.obj
 0002:0010d310       _PrintUsedMemorySize       005c4310 f   botlib:l_memory.obj
 0002:0010d340       _PrintMemoryLabels         005c4340 f   botlib:l_memory.obj
 0002:0010d370       _BotCharacterFromHandle    005c4370 f   botlib:be_ai_char.obj
 0002:0010d430       _BotDumpCharacter          005c4430 f   botlib:be_ai_char.obj
 0002:0010d5a0       _BotFreeCharacterStrings   005c45a0 f   botlib:be_ai_char.obj
 0002:0010d630       _BotFreeCharacter2         005c4630 f   botlib:be_ai_char.obj
 0002:0010d720       _BotFreeCharacter          005c4720 f   botlib:be_ai_char.obj
 0002:0010d7a0       _BotDefaultCharacteristics 005c47a0 f   botlib:be_ai_char.obj
 0002:0010d920       _BotLoadCharacterFromFile  005c4920 f   botlib:be_ai_char.obj
 0002:0010dfb0       _BotFindCachedCharacter    005c4fb0 f   botlib:be_ai_char.obj
 0002:0010e0a0       _BotLoadCachedCharacter    005c50a0 f   botlib:be_ai_char.obj
 0002:0010e510       _BotLoadCharacterSkill     005c5510 f   botlib:be_ai_char.obj
 0002:0010e5e0       _BotInterpolateCharacters  005c55e0 f   botlib:be_ai_char.obj
 0002:0010e860       _BotLoadCharacter          005c5860 f   botlib:be_ai_char.obj
 0002:0010ea90       _CheckCharacteristicIndex  005c5a90 f   botlib:be_ai_char.obj
 0002:0010eb70       _Characteristic_Float      005c5b70 f   botlib:be_ai_char.obj
 0002:0010ec70       _Characteristic_BFloat     005c5c70 f   botlib:be_ai_char.obj
 0002:0010ed70       _Characteristic_Integer    005c5d70 f   botlib:be_ai_char.obj
 0002:0010ee60       _Characteristic_BInteger   005c5e60 f   botlib:be_ai_char.obj
 0002:0010ef40       _Characteristic_String     005c5f40 f   botlib:be_ai_char.obj
 0002:0010f030       _BotShutdownCharacters     005c6030 f   botlib:be_ai_char.obj
 0002:0010f0b0       _ReadValue                 005c60b0 f   botlib:be_ai_weight.obj
 0002:0010f1e0       _ReadFuzzyWeight           005c61e0 f   botlib:be_ai_weight.obj
 0002:0010f3c0       _FreeFuzzySeperators_r     005c63c0 f   botlib:be_ai_weight.obj
 0002:0010f460       _FreeWeightConfig2         005c6460 f   botlib:be_ai_weight.obj
 0002:0010f520       _FreeWeightConfig          005c6520 f   botlib:be_ai_weight.obj
 0002:0010f5a0       _ReadFuzzySeperators_r     005c65a0 f   botlib:be_ai_weight.obj
 0002:0010fb90       _ReadWeightConfig          005c6b90 f   botlib:be_ai_weight.obj
 0002:00110320       _FindFuzzyWeight           005c7320 f   botlib:be_ai_weight.obj
 0002:001103b0       _FuzzyWeight_r             005c73b0 f   botlib:be_ai_weight.obj
 0002:00110560       _FuzzyWeightUndecided_r    005c7560 f   botlib:be_ai_weight.obj
 0002:001107c0       _FuzzyWeight               005c77c0 f   botlib:be_ai_weight.obj
 0002:00110820       _FuzzyWeightUndecided      005c7820 f   botlib:be_ai_weight.obj
 0002:00110880       _EvolveFuzzySeperator_r    005c7880 f   botlib:be_ai_weight.obj
 0002:00110a40       _EvolveWeightConfig        005c7a40 f   botlib:be_ai_weight.obj
 0002:00110ac0       _ScaleFuzzySeperator_r     005c7ac0 f   botlib:be_ai_weight.obj
 0002:00110bc0       _ScaleWeight               005c7bc0 f   botlib:be_ai_weight.obj
 0002:00110cb0       _ScaleFuzzySeperatorBalanceRange_r 005c7cb0 f   botlib:be_ai_weight.obj
 0002:00110dc0       _ScaleFuzzyBalanceRange    005c7dc0 f   botlib:be_ai_weight.obj
 0002:00110e80       _InterbreedFuzzySeperator_r 005c7e80 f   botlib:be_ai_weight.obj
 0002:00111080       _InterbreedWeightConfigs   005c8080 f   botlib:be_ai_weight.obj
 0002:00111160       _BotShutdownWeights        005c8160 f   botlib:be_ai_weight.obj
 0002:00111200       _AAS_UpdateEntity          005c8200 f   botlib:be_aas_entity.obj
 0002:00111830       _AAS_EntityInfo            005c8830 f   botlib:be_aas_entity.obj
 0002:00111930       _AAS_EntityOrigin          005c8930 f   botlib:be_aas_entity.obj
 0002:00111a30       _AAS_EntityModelindex      005c8a30 f   botlib:be_aas_entity.obj
 0002:00111ad0       _AAS_EntityType            005c8ad0 f   botlib:be_aas_entity.obj
 0002:00111b80       _AAS_EntityModelNum        005c8b80 f   botlib:be_aas_entity.obj
 0002:00111c30       _AAS_OriginOfMoverWithModelNum 005c8c30 f   botlib:be_aas_entity.obj
 0002:00111cf0       _AAS_EntitySize            005c8cf0 f   botlib:be_aas_entity.obj
 0002:00111df0       _AAS_EntityBSPData         005c8df0 f   botlib:be_aas_entity.obj
 0002:00111f40       _AAS_ResetEntityLinks      005c8f40 f   botlib:be_aas_entity.obj
 0002:00111fe0       _AAS_InvalidateEntities    005c8fe0 f   botlib:be_aas_entity.obj
 0002:00112070       _AAS_UnlinkInvalidEntities 005c9070 f   botlib:be_aas_entity.obj
 0002:00112150       _AAS_NearestEntity         005c9150 f   botlib:be_aas_entity.obj
 0002:00112360       _AAS_BestReachableEntityArea 005c9360 f   botlib:be_aas_entity.obj
 0002:001123d0       _AAS_NextEntity            005c93d0 f   botlib:be_aas_entity.obj
 0002:00112460       _AAS_ClearShownPolygons    005c9460 f   botlib:be_aas_debug.obj
 0002:00112510       _AAS_ShowPolygon           005c9510 f   botlib:be_aas_debug.obj
 0002:001125c0       _AAS_ClearShownDebugLines  005c95c0 f   botlib:be_aas_debug.obj
 0002:00112680       _AAS_DebugLine             005c9680 f   botlib:be_aas_debug.obj
 0002:001127a0       _AAS_PermanentLine         005c97a0 f   botlib:be_aas_debug.obj
 0002:00112820       _AAS_DrawPermanentCross    005c9820 f   botlib:be_aas_debug.obj
 0002:001129a0       _AAS_DrawPlaneCross        005c99a0 f   botlib:be_aas_debug.obj
 0002:00112ed0       _AAS_ShowBoundingBox       005c9ed0 f   botlib:be_aas_debug.obj
 0002:00113330       _AAS_ShowFace              005ca330 f   botlib:be_aas_debug.obj
 0002:00113610       _AAS_ShowFacePolygon       005ca610 f   botlib:be_aas_debug.obj
 0002:00113950       _AAS_ShowArea              005ca950 f   botlib:be_aas_debug.obj
 0002:00113e70       _AAS_ShowAreaPolygons      005cae70 f   botlib:be_aas_debug.obj
 0002:00113fe0       _AAS_DrawCross             005cafe0 f   botlib:be_aas_debug.obj
 0002:00114110       _AAS_PrintTravelType       005cb110 f   botlib:be_aas_debug.obj
 0002:001142e0       _AAS_DrawArrow             005cb2e0 f   botlib:be_aas_debug.obj
 0002:00114640       _AAS_ShowReachability      005cb640 f   botlib:be_aas_debug.obj
 0002:00114b00       _AAS_ShowReachableAreas    005cbb00 f   botlib:be_aas_debug.obj
 0002:00114c60       _AAS_FloodAreas_r          005cbc60 f   botlib:be_aas_debug.obj
 0002:00114ec0       _AAS_FloodAreas            005cbec0 f   botlib:be_aas_debug.obj
 0002:00114f60       _AAS_RoutingInfo           005cbf60 f   botlib:be_aas_route.obj
 0002:00115020       _AAS_InitTravelFlagFromType 005cc020 f   botlib:be_aas_route.obj
 0002:00115170       _AAS_TravelFlagForType     005cc170 f   botlib:be_aas_route.obj
 0002:001151c0       _AAS_TravelFlagForType_inline 005cc1c0 f i botlib:be_aas_route.obj
 0002:00115270       _AAS_UnlinkCache           005cc270 f   botlib:be_aas_route.obj
 0002:00115320       _AAS_LinkCache             005cc320 f   botlib:be_aas_route.obj
 0002:001153b0       _AAS_FreeRoutingCache      005cc3b0 f   botlib:be_aas_route.obj
 0002:00115430       _AAS_RemoveRoutingCacheInCluster 005cc430 f   botlib:be_aas_route.obj
 0002:00115520       _AAS_RemoveRoutingCacheUsingArea 005cc520 f   botlib:be_aas_route.obj
 0002:00115650       _AAS_EnableRoutingArea     005cc650 f   botlib:be_aas_route.obj
 0002:001157b0       _AAS_GetAreaContentsTravelFlags 005cc7b0 f   botlib:be_aas_route.obj
 0002:001158e0       _AAS_AreaContentsTravelFlags 005cc8e0 f   botlib:be_aas_route.obj
 0002:00115920       _AAS_InitAreaContentsTravelFlags 005cc920 f   botlib:be_aas_route.obj
 0002:001159e0       _AAS_CreateReversedReachability 005cc9e0 f   botlib:be_aas_route.obj
 0002:00115c10       _AAS_AreaTravelTime        005ccc10 f   botlib:be_aas_route.obj
 0002:00115de0       _AAS_CalculateAreaTravelTimes 005ccde0 f   botlib:be_aas_route.obj
 0002:00116120       _AAS_PortalMaxTravelTime   005cd120 f   botlib:be_aas_route.obj
 0002:00116230       _AAS_InitPortalMaxTravelTimes 005cd230 f   botlib:be_aas_route.obj
 0002:001162f0       _AAS_FreeOldestCache       005cd2f0 f   botlib:be_aas_route.obj
 0002:00116490       _AAS_ClusterAreaNum        005cd490 f i botlib:be_aas_route.obj
 0002:00116540       _AAS_AllocRoutingCache     005cd540 f   botlib:be_aas_route.obj
 0002:001165e0       _AAS_FreeAllClusterAreaCache 005cd5e0 f   botlib:be_aas_route.obj
 0002:00116720       _AAS_InitClusterAreaCache  005cd720 f   botlib:be_aas_route.obj
 0002:00116840       _AAS_FreeAllPortalCache    005cd840 f   botlib:be_aas_route.obj
 0002:00116930       _AAS_InitPortalCache       005cd930 f   botlib:be_aas_route.obj
 0002:00116990       _AAS_InitRoutingUpdate     005cd990 f   botlib:be_aas_route.obj
 0002:00116ab0       _AAS_CreateAllRoutingCache 005cdab0 f   botlib:be_aas_route.obj
 0002:00116bf0       _AAS_WriteRouteCache       005cdbf0 f   botlib:be_aas_route.obj
 0002:001170b0       _AAS_ReadCache             005ce0b0 f   botlib:be_aas_route.obj
 0002:001171c0       _AAS_ReadRouteCache        005ce1c0 f   botlib:be_aas_route.obj
 0002:001175e0       _AAS_InitReachabilityAreas 005ce5e0 f   botlib:be_aas_route.obj
 0002:00117980       _AAS_InitRouting           005ce980 f   botlib:be_aas_route.obj
 0002:00117a50       _AAS_FreeRoutingCaches     005cea50 f   botlib:be_aas_route.obj
 0002:00117bf0       _AAS_UpdateAreaRoutingCache 005cebf0 f   botlib:be_aas_route.obj
 0002:00118130       _AAS_AreaContentsTravelFlags_inline 005cf130 f i botlib:be_aas_route.obj
 0002:00118170       _AAS_GetAreaRoutingCache   005cf170 f   botlib:be_aas_route.obj
 0002:00118350       _AAS_RoutingTime           005cf350 f i botlib:be_aas_route.obj
 0002:001183a0       _AAS_UpdatePortalRoutingCache 005cf3a0 f   botlib:be_aas_route.obj
 0002:00118740       _AAS_GetPortalRoutingCache 005cf740 f   botlib:be_aas_route.obj
 0002:00118910       _AAS_AreaRouteToGoalArea   005cf910 f   botlib:be_aas_route.obj
 0002:00118f80       _AAS_AreaTravelTimeToGoalArea 005cff80 f   botlib:be_aas_route.obj
 0002:00119050       _AAS_AreaReachabilityToGoalArea 005d0050 f   botlib:be_aas_route.obj
 0002:00119120       _AAS_PredictRoute          005d0120 f   botlib:be_aas_route.obj
 0002:00119750       _AAS_BridgeWalkable        005d0750 f   botlib:be_aas_route.obj
 0002:00119780       _AAS_ReachabilityFromNum   005d0780 f   botlib:be_aas_route.obj
 0002:00119830       _AAS_NextAreaReachability  005d0830 f   botlib:be_aas_route.obj
 0002:00119940       _AAS_NextModelReachability 005d0940 f   botlib:be_aas_route.obj
 0002:00119a60       _AAS_RandomGoalArea        005d0a60 f   botlib:be_aas_route.obj
 0002:00119e00       _AAS_AreaVisible           005d0e00 f   botlib:be_aas_route.obj
 0002:00119e30       _DistancePointToLine       005d0e30 f   botlib:be_aas_route.obj
 0002:00119f10       _AAS_NearestHideArea       005d0f10 f   botlib:be_aas_route.obj
 0002:0011a640       _AAS_PresenceTypeBoundingBox 005d1640 f   botlib:be_aas_sample.obj
 0002:0011a830       _AAS_InitAASLinkHeap       005d1830 f   botlib:be_aas_sample.obj
 0002:0011a9d0       _AAS_FreeAASLinkHeap       005d19d0 f   botlib:be_aas_sample.obj
 0002:0011aa50       _AAS_AllocAASLink          005d1a50 f   botlib:be_aas_sample.obj
 0002:0011ab20       _AAS_DeAllocAASLink        005d1b20 f   botlib:be_aas_sample.obj
 0002:0011abc0       _AAS_InitAASLinkedEntities 005d1bc0 f   botlib:be_aas_sample.obj
 0002:0011ac50       _AAS_FreeAASLinkedEntities 005d1c50 f   botlib:be_aas_sample.obj
 0002:0011acc0       _AAS_PointAreaNum          005d1cc0 f   botlib:be_aas_sample.obj
 0002:0011adf0       _AAS_PointReachabilityAreaIndex 005d1df0 f   botlib:be_aas_sample.obj
 0002:0011afa0       _AAS_AreaCluster           005d1fa0 f   botlib:be_aas_sample.obj
 0002:0011b030       _AAS_AreaPresenceType      005d2030 f   botlib:be_aas_sample.obj
 0002:0011b0d0       _AAS_PointPresenceType     005d20d0 f   botlib:be_aas_sample.obj
 0002:0011b160       _AAS_BoxOriginDistanceFromPlane 005d2160 f   botlib:be_aas_sample.obj
 0002:0011b430       _AAS_AreaEntityCollision   005d2430 f   botlib:be_aas_sample.obj
 0002:0011b610       _AAS_TraceClientBBox       005d2610 f   botlib:be_aas_sample.obj
 0002:0011c620       _AAS_TraceAreas            005d3620 f   botlib:be_aas_sample.obj
 0002:0011cda0       _AAS_InsideFace            005d3da0 f   botlib:be_aas_sample.obj
 0002:0011d080       _AAS_PointInsideFace       005d4080 f   botlib:be_aas_sample.obj
 0002:0011d390       _AAS_AreaGroundFace        005d4390 f   botlib:be_aas_sample.obj
 0002:0011d560       _AAS_FacePlane             005d4560 f   botlib:be_aas_sample.obj
 0002:0011d5f0       _AAS_TraceEndFace          005d45f0 f   botlib:be_aas_sample.obj
 0002:0011d740       _AAS_BoxOnPlaneSide2       005d4740 f   botlib:be_aas_sample.obj
 0002:0011d940       _AAS_UnlinkFromAreas       005d4940 f   botlib:be_aas_sample.obj
 0002:0011da10       _AAS_AASLinkEntity         005d4a10 f   botlib:be_aas_sample.obj
 0002:0011de00       _AAS_LinkEntityClientBBox  005d4e00 f   botlib:be_aas_sample.obj
 0002:0011df50       _AAS_BBoxAreas             005d4f50 f   botlib:be_aas_sample.obj
 0002:0011e010       _AAS_AreaInfo              005d5010 f   botlib:be_aas_sample.obj
 0002:0011e1f0       _AAS_PlaneFromNum          005d51f0 f   botlib:be_aas_sample.obj
 0002:0011e240       _AAS_DropToFloor           005d5240 f   botlib:be_aas_move.obj
 0002:0011e370       _AAS_InitSettings          005d5370 f   botlib:be_aas_move.obj
 0002:0011e810       _AAS_AgainstLadder         005d5810 f   botlib:be_aas_move.obj
 0002:0011eaf0       _AAS_OnGround              005d5af0 f   botlib:be_aas_move.obj
 0002:0011ecb0       _AAS_Swimming              005d5cb0 f   botlib:be_aas_move.obj
 0002:0011ed80       _AAS_SetMovedir            005d5d80 f   botlib:be_aas_move.obj
 0002:0011ef00       _AAS_JumpReachRunStart     005d5f00 f   botlib:be_aas_move.obj
 0002:0011f0f0       _AAS_WeaponJumpZVelocity   005d60f0 f   botlib:be_aas_move.obj
 0002:0011f6c0       _AAS_RocketJumpZVelocity   005d66c0 f   botlib:be_aas_move.obj
 0002:0011f720       _AAS_BFGJumpZVelocity      005d6720 f   botlib:be_aas_move.obj
 0002:0011f780       _AAS_Accelerate            005d6780 f   botlib:be_aas_move.obj
 0002:0011f870       _AAS_AirControl            005d6870 f   botlib:be_aas_move.obj
 0002:0011f910       _AAS_ApplyFriction         005d6910 f   botlib:be_aas_move.obj
 0002:0011fa30       _AAS_ClipToBBox            005d6a30 f   botlib:be_aas_move.obj
 0002:0011ff50       _AAS_ClientMovementPrediction 005d6f50 f   botlib:be_aas_move.obj
 0002:00122120       _AAS_PredictClientMovement 005d9120 f   botlib:be_aas_move.obj
 0002:00122200       _AAS_ClientMovementHitBBox 005d9200 f   botlib:be_aas_move.obj
 0002:001222a0       _AAS_TestMovementPrediction 005d92a0 f   botlib:be_aas_move.obj
 0002:00122440       _AAS_HorizontalVelocityForJump 005d9440 f   botlib:be_aas_move.obj
 0002:00122620       _AAS_AltRoutingFloodCluster_r 005d9620 f   botlib:be_aas_routealt.obj
 0002:00122760       _AAS_AlternativeRouteGoals 005d9760 f   botlib:be_aas_routealt.obj
 0002:00122e30       _AAS_InitAlternativeRouting 005d9e30 f   botlib:be_aas_routealt.obj
 0002:00122ee0       _AAS_ShutdownAlternativeRouting 005d9ee0 f   botlib:be_aas_routealt.obj
 0002:00122f80       _AAS_FaceArea              005d9f80 f   botlib:be_aas_reach.obj
 0002:00123230       _AAS_AreaVolume            005da230 f   botlib:be_aas_reach.obj
 0002:00123530       _AAS_BestReachableLinkArea 005da530 f   botlib:be_aas_reach.obj
 0002:00123620       _AAS_GetJumpPadInfo        005da620 f   botlib:be_aas_reach.obj
 0002:00123cd0       _AAS_BestReachableFromJumpPadArea 005dacd0 f   botlib:be_aas_reach.obj
 0002:00124190       _AAS_BestReachableArea     005db190 f   botlib:be_aas_reach.obj
 0002:00124600       _AAS_SetupReachabilityHeap 005db600 f   botlib:be_aas_reach.obj
 0002:001246d0       _AAS_ShutDownReachabilityHeap 005db6d0 f   botlib:be_aas_reach.obj
 0002:00124730       _AAS_AllocReachability     005db730 f   botlib:be_aas_reach.obj
 0002:001247d0       _AAS_FreeReachability      005db7d0 f   botlib:be_aas_reach.obj
 0002:00124850       _AAS_AreaReachability      005db850 f   botlib:be_aas_reach.obj
 0002:001248e0       _AAS_AreaGroundFaceArea    005db8e0 f   botlib:be_aas_reach.obj
 0002:001249c0       _AAS_FaceCenter            005db9c0 f   botlib:be_aas_reach.obj
 0002:00124bc0       _AAS_FallDamageDistance    005dbbc0 f   botlib:be_aas_reach.obj
 0002:00124c50       _AAS_FallDelta             005dbc50 f   botlib:be_aas_reach.obj
 0002:00124cf0       _AAS_MaxJumpHeight         005dbcf0 f   botlib:be_aas_reach.obj
 0002:00124d50       _AAS_MaxJumpDistance       005dbd50 f   botlib:be_aas_reach.obj
 0002:00124de0       _AAS_AreaCrouch            005dbde0 f   botlib:be_aas_reach.obj
 0002:00124e40       _AAS_AreaSwim              005dbe40 f   botlib:be_aas_reach.obj
 0002:00124ea0       _AAS_AreaLiquid            005dbea0 f   botlib:be_aas_reach.obj
 0002:00124f00       _AAS_AreaLava              005dbf00 f   botlib:be_aas_reach.obj
 0002:00124f50       _AAS_AreaSlime             005dbf50 f   botlib:be_aas_reach.obj
 0002:00124fa0       _AAS_AreaGrounded          005dbfa0 f   botlib:be_aas_reach.obj
 0002:00124ff0       _AAS_AreaLadder            005dbff0 f   botlib:be_aas_reach.obj
 0002:00125040       _AAS_AreaJumpPad           005dc040 f   botlib:be_aas_reach.obj
 0002:00125090       _AAS_AreaTeleporter        005dc090 f   botlib:be_aas_reach.obj
 0002:001250e0       _AAS_AreaClusterPortal     005dc0e0 f   botlib:be_aas_reach.obj
 0002:00125130       _AAS_AreaDoNotEnter        005dc130 f   botlib:be_aas_reach.obj
 0002:00125180       _AAS_BarrierJumpTravelTime 005dc180 f   botlib:be_aas_reach.obj
 0002:001251d0       _AAS_ReachabilityExists    005dc1d0 f   botlib:be_aas_reach.obj
 0002:00125240       _AAS_NearbySolidOrGap      005dc240 f   botlib:be_aas_reach.obj
 0002:00125440       _AAS_Reachability_Swim     005dc440 f   botlib:be_aas_reach.obj
 0002:00125850       _AAS_Reachability_EqualFloorHeight 005dc850 f   botlib:be_aas_reach.obj
 0002:00126460       _AAS_Reachability_Step_Barrier_WaterJump_WalkOffLedge 005dd460 f   botlib:be_aas_reach.obj
 0002:00128f10       _VectorDistance            005dff10 f   botlib:be_aas_reach.obj
 0002:00128fd0       _VectorBetweenVectors      005dffd0 f   botlib:be_aas_reach.obj
 0002:00129110       _VectorMiddle              005e0110 f   botlib:be_aas_reach.obj
 0002:001291c0       _AAS_ClosestEdgePoints     005e01c0 f   botlib:be_aas_reach.obj
 0002:0012a6a0       _AAS_Reachability_Jump     005e16a0 f   botlib:be_aas_reach.obj
 0002:0012ba80       _AAS_Reachability_Ladder   005e2a80 f   botlib:be_aas_reach.obj
 0002:0012d390       _AAS_TravelFlagsForTeam    005e4390 f   botlib:be_aas_reach.obj
 0002:0012d450       _AAS_Reachability_Teleport 005e4450 f   botlib:be_aas_reach.obj
 0002:0012e200       _AAS_Reachability_Elevator 005e5200 f   botlib:be_aas_reach.obj
 0002:0012f320       _AAS_FindFaceReachabilities 005e6320 f   botlib:be_aas_reach.obj
 0002:0012fbc0       _AAS_Reachability_FuncBobbing 005e6bc0 f   botlib:be_aas_reach.obj
 0002:00130ff0       _AAS_Reachability_JumpPad  005e7ff0 f   botlib:be_aas_reach.obj
 0002:00131d50       _AAS_Reachability_Grapple  005e8d50 f   botlib:be_aas_reach.obj
 0002:00132b80       _AAS_SetWeaponJumpAreaFlags 005e9b80 f   botlib:be_aas_reach.obj
 0002:00133040       _AAS_Reachability_WeaponJump 005ea040 f   botlib:be_aas_reach.obj
 0002:001337e0       _AAS_Reachability_WalkOffLedge 005ea7e0 f   botlib:be_aas_reach.obj
 0002:001343f0       _AAS_StoreReachability     005eb3f0 f   botlib:be_aas_reach.obj
 0002:00134600       _AAS_ContinueInitReachability 005eb600 f   botlib:be_aas_reach.obj
 0002:00134d50       _AAS_InitReachability      005ebd50 f   botlib:be_aas_reach.obj
 0002:00134e40       _AAS_Trace                 005ebe40 f   botlib:be_aas_bspq3.obj
 0002:00134f10       _AAS_PointContents         005ebf10 f   botlib:be_aas_bspq3.obj
 0002:00134f70       _AAS_EntityCollision       005ebf70 f   botlib:be_aas_bspq3.obj
 0002:00135060       _AAS_inPVS                 005ec060 f   botlib:be_aas_bspq3.obj
 0002:001350c0       _AAS_inPHS                 005ec0c0 f   botlib:be_aas_bspq3.obj
 0002:00135100       _AAS_BSPModelMinsMaxsOrigin 005ec100 f   botlib:be_aas_bspq3.obj
 0002:00135170       _AAS_UnlinkFromBSPLeaves   005ec170 f   botlib:be_aas_bspq3.obj
 0002:001351a0       _AAS_BSPLinkEntity         005ec1a0 f   botlib:be_aas_bspq3.obj
 0002:001351d0       _AAS_BoxEntities           005ec1d0 f   botlib:be_aas_bspq3.obj
 0002:00135200       _AAS_NextBSPEntity         005ec200 f   botlib:be_aas_bspq3.obj
 0002:00135260       _AAS_BSPEntityInRange      005ec260 f   botlib:be_aas_bspq3.obj
 0002:001352e0       _AAS_ValueForBSPEpairKey   005ec2e0 f   botlib:be_aas_bspq3.obj
 0002:001353c0       _AAS_VectorForBSPEpairKey  005ec3c0 f   botlib:be_aas_bspq3.obj
 0002:00135540       _AAS_FloatForBSPEpairKey   005ec540 f   botlib:be_aas_bspq3.obj
 0002:00135610       _AAS_IntForBSPEpairKey     005ec610 f   botlib:be_aas_bspq3.obj
 0002:001356e0       _AAS_FreeBSPEntities       005ec6e0 f   botlib:be_aas_bspq3.obj
 0002:001357e0       _AAS_ParseBSPEntities      005ec7e0 f   botlib:be_aas_bspq3.obj
 0002:00135ba0       _AAS_BSPTraceLight         005ecba0 f   botlib:be_aas_bspq3.obj
 0002:00135bd0       _AAS_DumpBSPData           005ecbd0 f   botlib:be_aas_bspq3.obj
 0002:00135c70       _AAS_LoadBSPFile           005ecc70 f   botlib:be_aas_bspq3.obj
 0002:00135d40       _GeneticSelection          005ecd40 f   botlib:be_ai_gen.obj
 0002:00135f10       _GeneticParentsAndChildSelection 005ecf10 f   botlib:be_ai_gen.obj
 0002:00136280       _PS_CreatePunctuationTable 005ed280 f   botlib:l_script.obj
 0002:00136440       _PunctuationFromNum        005ed440 f   botlib:l_script.obj
 0002:001364e0       _ScriptError               005ed4e0 f   botlib:l_script.obj
 0002:001365e0       _ScriptWarning             005ed5e0 f   botlib:l_script.obj
 0002:001366e0       _SetScriptPunctuations     005ed6e0 f   botlib:l_script.obj
 0002:00136780       _PS_ReadWhiteSpace         005ed780 f   botlib:l_script.obj
 0002:00136a70       _PS_ReadEscapeCharacter    005eda70 f   botlib:l_script.obj
 0002:00136ed0       _PS_ReadString             005eded0 f   botlib:l_script.obj
 0002:00137220       _PS_ReadName               005ee220 f   botlib:l_script.obj
 0002:00137370       _NumberValue               005ee370 f   botlib:l_script.obj
 0002:00137730       _PS_ReadNumber             005ee730 f   botlib:l_script.obj
 0002:00137de0       _PS_ReadLiteral            005eede0 f   botlib:l_script.obj
 0002:00138010       _PS_ReadPunctuation        005ef010 f   botlib:l_script.obj
 0002:00138160       _PS_ReadPrimitive          005ef160 f   botlib:l_script.obj
 0002:00138270       _PS_ReadToken              005ef270 f   botlib:l_script.obj
 0002:00138620       _PS_ExpectTokenString      005ef620 f   botlib:l_script.obj
 0002:00138720       _PS_ExpectTokenType        005ef720 f   botlib:l_script.obj
 0002:00138ad0       _PS_ExpectAnyToken         005efad0 f   botlib:l_script.obj
 0002:00138b50       _PS_CheckTokenString       005efb50 f   botlib:l_script.obj
 0002:00138c30       _PS_CheckTokenType         005efc30 f   botlib:l_script.obj
 0002:00138d20       _PS_SkipUntilString        005efd20 f   botlib:l_script.obj
 0002:00138de0       _PS_UnreadLastToken        005efde0 f   botlib:l_script.obj
 0002:00138e20       _PS_UnreadToken            005efe20 f   botlib:l_script.obj
 0002:00138e90       _PS_NextWhiteSpaceChar     005efe90 f   botlib:l_script.obj
 0002:00138f20       _StripDoubleQuotes         005eff20 f   botlib:l_script.obj
 0002:00138fc0       _StripSingleQuotes         005effc0 f   botlib:l_script.obj
 0002:00139060       _ReadSignedFloat           005f0060 f   botlib:l_script.obj
 0002:00139180       _ReadSignedInt             005f0180 f   botlib:l_script.obj
 0002:001392b0       _SetScriptFlags            005f02b0 f   botlib:l_script.obj
 0002:001392f0       _GetScriptFlags            005f02f0 f   botlib:l_script.obj
 0002:00139330       _ResetScript               005f0330 f   botlib:l_script.obj
 0002:00139410       _EndOfScript               005f0410 f   botlib:l_script.obj
 0002:00139460       _NumLinesCrossed           005f0460 f   botlib:l_script.obj
 0002:001394b0       _ScriptSkipTo              005f04b0 f   botlib:l_script.obj
 0002:001395a0       _LoadScriptFile            005f05a0 f   botlib:l_script.obj
 0002:00139840       _LoadScriptMemory          005f0840 f   botlib:l_script.obj
 0002:001399b0       _FreeScript                005f09b0 f   botlib:l_script.obj
 0002:00139a30       _PS_SetBaseFolder          005f0a30 f   botlib:l_script.obj
 0002:00139a90       _FindField                 005f0a90 f   botlib:l_struct.obj
 0002:00139b30       _ReadNumber                005f0b30 f   botlib:l_struct.obj
 0002:0013a150       _ReadChar                  005f1150 f   botlib:l_struct.obj
 0002:0013a250       _ReadString                005f1250 f   botlib:l_struct.obj
 0002:0013a330       _ReadStructure             005f1330 f   botlib:l_struct.obj
 0002:0013a810       _WriteIndent               005f1810 f   botlib:l_struct.obj
 0002:0013a8c0       _WriteFloat                005f18c0 f   botlib:l_struct.obj
 0002:0013aa60       _WriteStructWithIndent     005f1a60 f   botlib:l_struct.obj
 0002:0013ae80       _WriteStructure            005f1e80 f   botlib:l_struct.obj
 0002:0013aee0       _AAS_SwapAASData           005f1ee0 f   botlib:be_aas_file.obj
 0002:0013ba10       _AAS_DumpAASData           005f2a10 f   botlib:be_aas_file.obj
 0002:0013bd80       _AAS_LoadAASLump           005f2d80 f   botlib:be_aas_file.obj
 0002:0013bed0       _AAS_DData                 005f2ed0 f   botlib:be_aas_file.obj
 0002:0013bf50       _AAS_LoadAASFile           005f2f50 f   botlib:be_aas_file.obj
 0002:0013c940       _AAS_WriteAASLump          005f3940 f   botlib:be_aas_file.obj
 0002:0013c9f0       _AAS_WriteAASFile          005f39f0 f   botlib:be_aas_file.obj
 0002:0013cf30       _AAS_KeepEdge              005f3f30 f   botlib:be_aas_optimize.obj
 0002:0013cf70       _AAS_OptimizeEdge          005f3f70 f   botlib:be_aas_optimize.obj
 0002:0013d1e0       _AAS_KeepFace              005f41e0 f   botlib:be_aas_optimize.obj
 0002:0013d230       _AAS_OptimizeFace          005f4230 f   botlib:be_aas_optimize.obj
 0002:0013d430       _AAS_OptimizeArea          005f4430 f   botlib:be_aas_optimize.obj
 0002:0013d570       _AAS_OptimizeAlloc         005f4570 f   botlib:be_aas_optimize.obj
 0002:0013d700       _AAS_OptimizeStore         005f4700 f   botlib:be_aas_optimize.obj
 0002:0013d8e0       _AAS_Optimize              005f48e0 f   botlib:be_aas_optimize.obj
 0002:0013db80       _AAS_RemoveClusterAreas    005f4b80 f   botlib:be_aas_cluster.obj
 0002:0013dbf0       _AAS_ClearCluster          005f4bf0 f   botlib:be_aas_cluster.obj
 0002:0013dc80       _AAS_RemovePortalsClusterReference 005f4c80 f   botlib:be_aas_cluster.obj
 0002:0013dd40       _AAS_UpdatePortal          005f4d40 f   botlib:be_aas_cluster.obj
 0002:0013df50       _AAS_FloodClusterAreas_r   005f4f50 f   botlib:be_aas_cluster.obj
 0002:0013e280       _AAS_FloodClusterAreasUsingReachabilities 005f5280 f   botlib:be_aas_cluster.obj
 0002:0013e3f0       _AAS_NumberClusterPortals  005f53f0 f   botlib:be_aas_cluster.obj
 0002:0013e4e0       _AAS_NumberClusterAreas    005f54e0 f   botlib:be_aas_cluster.obj
 0002:0013e8e0       _AAS_FindClusters          005f58e0 f   botlib:be_aas_cluster.obj
 0002:0013ea90       _AAS_CreatePortals         005f5a90 f   botlib:be_aas_cluster.obj
 0002:0013eb80       _AAS_ConnectedAreas_r      005f5b80 f   botlib:be_aas_cluster.obj
 0002:0013ed10       _AAS_ConnectedAreas        005f5d10 f   botlib:be_aas_cluster.obj
 0002:0013ee40       _AAS_GetAdjacentAreasWithLessPresenceTypes_r 005f5e40 f   botlib:be_aas_cluster.obj
 0002:0013f020       _AAS_CheckAreaForPossiblePortals 005f6020 f   botlib:be_aas_cluster.obj
 0002:0013f930       _AAS_FindPossiblePortals   005f6930 f   botlib:be_aas_cluster.obj
 0002:0013f9e0       _AAS_RemoveAllPortals      005f69e0 f   botlib:be_aas_cluster.obj
 0002:0013fa60       _AAS_TestPortals           005f6a60 f   botlib:be_aas_cluster.obj
 0002:0013fba0       _AAS_CountForcedClusterPortals 005f6ba0 f   botlib:be_aas_cluster.obj
 0002:0013fc70       _AAS_CreateViewPortals     005f6c70 f   botlib:be_aas_cluster.obj
 0002:0013fd10       _AAS_SetViewPortalsAsClusterPortals 005f6d10 f   botlib:be_aas_cluster.obj
 0002:0013fdb0       _AAS_InitClustering        005f6db0 f   botlib:be_aas_cluster.obj
 0002:001401b0       _CRC_Init                  005f71b0 f   botlib:l_crc.obj
 0002:001401f0       _CRC_ProcessByte           005f71f0 f   botlib:l_crc.obj
 0002:00140250       _CRC_Value                 005f7250 f   botlib:l_crc.obj
 0002:00140290       _CRC_ProcessString         005f7290 f   botlib:l_crc.obj
 0002:001403a0       _CRC_ContinueProcessString 005f73a0 f   botlib:l_crc.obj
 0002:00140430       __fpmath                   005f7430 f   LIBCMTD:fpinit.obj
 0002:00140460       __fpclear                  005f7460 f   LIBCMTD:fpinit.obj
 0002:00140470       __cfltcvt_init             005f7470 f   LIBCMTD:fpinit.obj
 0002:001404d0       ___setfflag                005f74d0 f   LIBCMTD:fpinit.obj
 0002:00140500       _strlen                    005f7500 f   LIBCMTD:strlen.obj
 0002:001405b0       _strcmp                    005f75b0 f   LIBCMTD:strcmp.obj
 0002:00140660       _atol                      005f7660 f   LIBCMTD:atox.obj
 0002:001407b0       _atoi                      005f77b0 f   LIBCMTD:atox.obj
 0002:001407d0       __atoi64                   005f77d0 f   LIBCMTD:atox.obj
 0002:00140960       __chkstk                   005f7960 f   LIBCMTD:chkstk.obj
 0002:00140960       __alloca_probe             005f7960     LIBCMTD:chkstk.obj
 0002:001409b0       _strcpy                    005f79b0 f   LIBCMTD:strcat.obj
 0002:001409c0       _strcat                    005f79c0 f   LIBCMTD:strcat.obj
 0002:00140af0       __assert                   005f7af0 f   LIBCMTD:assert.obj
 0002:00141270       _ceil                      005f8270 f   LIBCMTD:ceil_pentium4.obj
 0002:001412b0       __ceil_pentium4            005f82b0 f   LIBCMTD:ceil_pentium4.obj
 0002:001413e0       _floor                     005f83e0 f   LIBCMTD:floor_pentium4.obj
 0002:00141420       __floor_pentium4           005f8420 f   LIBCMTD:floor_pentium4.obj
 0002:00141550       __CIsqrt                   005f8550 f   LIBCMTD:sqrt.obj
 0002:00141564       _sqrt                      005f8564     LIBCMTD:sqrt.obj
 0002:00141640       _atan2                     005f8640 f   LIBCMTD:87ctriga.obj
 0002:0014164a       __CIatan2                  005f864a f   LIBCMTD:87ctriga.obj
 0002:00141660       __CIcos                    005f8660 f   LIBCMTD:cos.obj
 0002:00141674       _cos                       005f8674     LIBCMTD:cos.obj
 0002:00141740       __CIsin                    005f8740 f   LIBCMTD:sin.obj
 0002:00141754       _sin                       005f8754     LIBCMTD:sin.obj
 0002:00141820       _strncpy                   005f8820 f   LIBCMTD:strncpy.obj
 0002:00141990       __ftol2                    005f8990 f   LIBCMTD:ftol2.obj
 0002:00141a30       _abs                       005f8a30 f   LIBCMTD:abs.obj
 0002:00141a60       __abs64                    005f8a60 f   LIBCMTD:abs.obj
 0002:00141ab0       _strstr                    005f8ab0 f   LIBCMTD:strstr.obj
 0002:00141b60       __tolower                  005f8b60 f   LIBCMTD:tolower.obj
 0002:00141b70       _tolower                   005f8b70 f   LIBCMTD:tolower.obj
 0002:00141bc0       ___tolower_mt              005f8bc0 f   LIBCMTD:tolower.obj
 0002:00141d50       _memmove                   005f8d50 f   LIBCMTD:memmove.obj
 0002:00142160       _time                      005f9160 f   LIBCMTD:time.obj
 0002:001421c0       _srand                     005f91c0 f   LIBCMTD:rand.obj
 0002:001421e0       _rand                      005f91e0 f   LIBCMTD:rand.obj
 0002:00142230       _getenv                    005f9230 f   LIBCMTD:getenv.obj
 0002:001422c0       __getenv_lk                005f92c0 f   LIBCMTD:getenv.obj
 0002:001423d0       _strchr                    005f93d0 f   LIBCMTD:strchr.obj
 0002:001423d6       ___from_strstr_to_strchr   005f93d6     LIBCMTD:strchr.obj
 0002:001424d0       __vsnprintf                005f94d0 f   LIBCMTD:vsnprint.obj
 0002:001425d0       _printf                    005f95d0 f   LIBCMTD:printf.obj
 0002:001426e0       _strncat                   005f96e0 f   LIBCMTD:strncat.obj
 0002:00142870       _sscanf                    005f9870 f   LIBCMTD:sscanf.obj
 0002:00142940       _sprintf                   005f9940 f   LIBCMTD:sprintf.obj
 0002:00142a70       __scprintf                 005f9a70 f   LIBCMTD:sprintf.obj
 0002:00142b10       _memcpy                    005f9b10 f   LIBCMTD:memcpy.obj
 0002:00142f20       _fabs                      005f9f20 f   LIBCMTD:fabs.obj
 0002:00143060       _asctime                   005fa060 f   LIBCMTD:asctime.obj
 0002:001432e0       _localtime                 005fa2e0 f   LIBCMTD:localtim.obj
 0002:001435ec       _longjmp                   005fa5ec f   LIBCMTD:longjmp.obj
 0002:00143690       _vsprintf                  005fa690 f   LIBCMTD:vsprintf.obj
 0002:001437b0       __vscprintf                005fa7b0 f   LIBCMTD:vsprintf.obj
 0002:00143850       __toupper                  005fa850 f   LIBCMTD:toupper.obj
 0002:00143860       _toupper                   005fa860 f   LIBCMTD:toupper.obj
 0002:001438b0       ___toupper_mt              005fa8b0 f   LIBCMTD:toupper.obj
 0002:00143a40       _malloc                    005faa40 f   LIBCMTD:dbgheap.obj
 0002:00143a70       __malloc_dbg               005faa70 f   LIBCMTD:dbgheap.obj
 0002:00143ab0       __nh_malloc                005faab0 f   LIBCMTD:dbgheap.obj
 0002:00143ae0       __nh_malloc_dbg            005faae0 f   LIBCMTD:dbgheap.obj
 0002:00143bb0       __heap_alloc               005fabb0 f   LIBCMTD:dbgheap.obj
 0002:00143bd0       __heap_alloc_dbg           005fabd0 f   LIBCMTD:dbgheap.obj
 0002:00143fb0       _calloc                    005fafb0 f   LIBCMTD:dbgheap.obj
 0002:00143fe0       __calloc_dbg               005fafe0 f   LIBCMTD:dbgheap.obj
 0002:00144060       _realloc                   005fb060 f   LIBCMTD:dbgheap.obj
 0002:00144090       __realloc_dbg              005fb090 f   LIBCMTD:dbgheap.obj
 0002:001447a0       __expand                   005fb7a0 f   LIBCMTD:dbgheap.obj
 0002:001447d0       __expand_dbg               005fb7d0 f   LIBCMTD:dbgheap.obj
 0002:00144880       _free                      005fb880 f   LIBCMTD:dbgheap.obj
 0002:001448a0       __free_lk                  005fb8a0 f   LIBCMTD:dbgheap.obj
 0002:001448c0       __free_dbg                 005fb8c0 f   LIBCMTD:dbgheap.obj
 0002:00144950       __free_dbg_lk              005fb950 f   LIBCMTD:dbgheap.obj
 0002:00144e70       __msize                    005fbe70 f   LIBCMTD:dbgheap.obj
 0002:00144e90       __msize_dbg                005fbe90 f   LIBCMTD:dbgheap.obj
 0002:00145060       __CrtSetBreakAlloc         005fc060 f   LIBCMTD:dbgheap.obj
 0002:00145090       __CrtSetDbgBlockType       005fc090 f   LIBCMTD:dbgheap.obj
 0002:001451a0       __CrtSetAllocHook          005fc1a0 f   LIBCMTD:dbgheap.obj
 0002:00145230       __CrtCheckMemory           005fc230 f   LIBCMTD:dbgheap.obj
 0002:00145670       __CrtSetDbgFlag            005fc670 f   LIBCMTD:dbgheap.obj
 0002:00145740       __CrtDoForAllClientObjects 005fc740 f   LIBCMTD:dbgheap.obj
 0002:00145810       __CrtIsValidPointer        005fc810 f   LIBCMTD:dbgheap.obj
 0002:00145870       __CrtIsValidHeapPointer    005fc870 f   LIBCMTD:dbgheap.obj
 0002:00145950       __CrtIsMemoryBlock         005fc950 f   LIBCMTD:dbgheap.obj
 0002:00145ac0       __CrtReportBlockType       005fcac0 f   LIBCMTD:dbgheap.obj
 0002:00145b00       __CrtSetDumpClient         005fcb00 f   LIBCMTD:dbgheap.obj
 0002:00145b30       __CrtMemCheckpoint         005fcb30 f   LIBCMTD:dbgheap.obj
 0002:00145d30       __CrtMemDifference         005fcd30 f   LIBCMTD:dbgheap.obj
 0002:00145e90       __CrtMemDumpAllObjectsSince 005fce90 f   LIBCMTD:dbgheap.obj
 0002:00146390       __CrtDumpMemoryLeaks       005fd390 f   LIBCMTD:dbgheap.obj
 0002:00146410       __CrtMemDumpStatistics     005fd410 f   LIBCMTD:dbgheap.obj
 0002:001464f0       __aligned_malloc           005fd4f0 f   LIBCMTD:dbgheap.obj
 0002:00146520       __aligned_malloc_dbg       005fd520 f   LIBCMTD:dbgheap.obj
 0002:00146550       __aligned_realloc          005fd550 f   LIBCMTD:dbgheap.obj
 0002:00146580       __aligned_realloc_dbg      005fd580 f   LIBCMTD:dbgheap.obj
 0002:001465b0       __aligned_offset_malloc    005fd5b0 f   LIBCMTD:dbgheap.obj
 0002:001465e0       __aligned_offset_malloc_dbg 005fd5e0 f   LIBCMTD:dbgheap.obj
 0002:00146770       __aligned_offset_realloc   005fd770 f   LIBCMTD:dbgheap.obj
 0002:001467a0       __aligned_offset_realloc_dbg 005fd7a0 f   LIBCMTD:dbgheap.obj
 0002:00146a90       __aligned_free             005fda90 f   LIBCMTD:dbgheap.obj
 0002:00146ab0       __aligned_free_dbg         005fdab0 f   LIBCMTD:dbgheap.obj
 0002:00146b80       _memset                    005fdb80 f   LIBCMTD:memset.obj
 0002:00146bf8       __setjmp3                  005fdbf8 f   LIBCMTD:setjmp3.obj
 0002:00146ca0       _atof                      005fdca0 f   LIBCMTD:atof.obj
 0002:00146d00       __CIacos                   005fdd00 f   LIBCMTD:acos.obj
 0002:00146d14       _acos                      005fdd14     LIBCMTD:acos.obj
 0002:00146e00       _setvbuf                   005fde00 f   LIBCMTD:setvbuf.obj
 0002:00147010       _fseek                     005fe010 f   LIBCMTD:fseek.obj
 0002:001470e0       __fseek_lk                 005fe0e0 f   LIBCMTD:fseek.obj
 0002:00147240       _ftell                     005fe240 f   LIBCMTD:ftell.obj
 0002:00147300       __ftell_lk                 005fe300 f   LIBCMTD:ftell.obj
 0002:00147620       _fclose                    005fe620 f   LIBCMTD:fclose.obj
 0002:00147710       __fclose_lk                005fe710 f   LIBCMTD:fclose.obj
 0002:001477f0       __fsopen                   005fe7f0 f   LIBCMTD:fopen.obj
 0002:00147970       _fopen                     005fe970 f   LIBCMTD:fopen.obj
 0002:00147990       _rename                    005fe990 f   LIBCMTD:rename.obj
 0002:001479f0       _fwrite                    005fe9f0 f   LIBCMTD:fwrite.obj
 0002:00147a90       __fwrite_lk                005fea90 f   LIBCMTD:fwrite.obj
 0002:00147d30       _fread                     005fed30 f   LIBCMTD:fread.obj
 0002:00147dd0       __fread_lk                 005fedd0 f   LIBCMTD:fread.obj
 0002:00148010       _remove                    005ff010 f   LIBCMTD:unlink.obj
 0002:00148070       __unlink                   005ff070 f   LIBCMTD:unlink.obj
 0002:00148090       _fflush                    005ff090 f   LIBCMTD:fflush.obj
 0002:00148140       __fflush_lk                005ff140 f   LIBCMTD:fflush.obj
 0002:00148190       __flush                    005ff190 f   LIBCMTD:fflush.obj
 0002:00148270       __flushall                 005ff270 f   LIBCMTD:fflush.obj
 0002:00148490       _qsort                     005ff490 f   LIBCMTD:qsort.obj
 0002:00148a10       _memcmp                    005ffa10 f   LIBCMTD:memcmp.obj
 0002:00148b00       _strncmp                   005ffb00 f   LIBCMTD:strncmp.obj
 0002:00148b50       _fprintf                   005ffb50 f   LIBCMTD:fprintf.obj
 0002:00148c7c       __ftol                     005ffc7c f   LIBCMTD:ftol.obj
 0002:00148cb0       __commit                   005ffcb0 f   LIBCMTD:commit.obj
 0002:00148e10       __cinit                    005ffe10 f   LIBCMTD:crt0dat.obj
 0002:00148e90       _exit                      005ffe90 f   LIBCMTD:crt0dat.obj
 0002:00148eb0       __exit                     005ffeb0 f   LIBCMTD:crt0dat.obj
 0002:00148ed0       __cexit                    005ffed0 f   LIBCMTD:crt0dat.obj
 0002:00148ef0       __c_exit                   005ffef0 f   LIBCMTD:crt0dat.obj
 0002:00149090       ___crtExitProcess          00600090 f   LIBCMTD:crt0dat.obj
 0002:001490f0       __lockexit                 006000f0 f   LIBCMTD:crt0dat.obj
 0002:00149110       __unlockexit               00600110 f   LIBCMTD:crt0dat.obj
 0002:001491b0       __mkdir                    006001b0 f   LIBCMTD:mkdir.obj
 0002:00149210       __getcwd                   00600210 f   LIBCMTD:getcwd.obj
 0002:001492b0       __getdcwd                  006002b0 f   LIBCMTD:getcwd.obj
 0002:00149350       __getdcwd_lk               00600350 f   LIBCMTD:getcwd.obj
 0002:00149500       __validdrive               00600500 f   LIBCMTD:getcwd.obj
 0002:00149570       __findfirst                00600570 f   LIBCMTD:findfile.obj
 0002:00149710       __findnext                 00600710 f   LIBCMTD:findfile.obj
 0002:001498a0       __findclose                006008a0 f   LIBCMTD:findfile.obj
 0002:001498d0       ___timet_from_ft           006008d0 f   LIBCMTD:findfile.obj
 0002:00149960       _strtok                    00600960 f   LIBCMTD:strtok.obj
 0002:00149af0       _WinMainCRTStartup         00600af0 f   LIBCMTD:wincrt0.obj
 0002:00149da0       __amsg_exit                00600da0 f   LIBCMTD:wincrt0.obj
 0002:00149f00       __RTC_CheckEsp             00600f00 f   LIBCMTD:stack.obj
 0002:00149f30       @_RTC_CheckStackVars@8     00600f30 f   LIBCMTD:stack.obj
 0002:00149fb0       __RTC_InitBase             00600fb0 f   LIBCMTD:init.obj
 0002:00149ff0       __RTC_Shutdown             00600ff0 f   LIBCMTD:init.obj
 0002:0014a010       __CItan                    00601010 f   LIBCMTD:tan.obj
 0002:0014a024       _tan                       00601024     LIBCMTD:tan.obj
 0002:0014a0f0       _pow                       006010f0 f   LIBCMTD:pow.obj
 0002:0014a130       __CIpow                    00601130 f   LIBCMTD:pow.obj
 0002:0014a16b       __CIpow_default            0060116b f   LIBCMTD:pow.obj
 0002:0014a184       __pow_default              00601184     LIBCMTD:pow.obj
 0002:0014a420       _strrchr                   00601420 f   LIBCMTD:strrchr.obj
 0002:0014a460       ?_RTC_Failure@@YAXPAXH@Z   00601460 f   LIBCMTD:error.obj
 0002:0014a750       ?_RTC_MemFailure@@YAXPAXHPBX@Z 00601750 f   LIBCMTD:error.obj
 0002:0014aa30       ?_RTC_StackFailure@@YAXPAXPBD@Z 00601a30 f   LIBCMTD:error.obj
 0002:0014ab20       __RTC_UninitUse            00601b20 f   LIBCMTD:error.obj
 0002:0014ad50       _putenv                    00601d50 f   LIBCMTD:putenv.obj
 0002:0014ad50       __putenv                   00601d50 f   LIBCMTD:putenv.obj
 0002:0014ade0       __putenv_lk                00601de0 f   LIBCMTD:putenv.obj
 0002:0014afa0       _clock                     00601fa0 f   LIBCMTD:clock.obj
 0002:0014b020       ___inittime                00602020 f   LIBCMTD:clock.obj
 0002:0014b070       _vfprintf                  00602070 f   LIBCMTD:vfprintf.obj
 0002:0014b1a0       _ctime                     006021a0 f   LIBCMTD:ctime.obj
 0002:0014b1e0       __setdefaultprecision      006021e0 f   LIBCMTD:fp8.obj
 0002:0014b200       __ms_p5_test_fdiv          00602200 f   LIBCMTD:testfdiv.obj
 0002:0014b270       __ms_p5_mp_test_fdiv       00602270 f   LIBCMTD:testfdiv.obj
 0002:0014b2d0       __forcdecpt                006022d0 f   LIBCMTD:cvt.obj
 0002:0014b370       __cropzeros                00602370 f   LIBCMTD:cvt.obj
 0002:0014b480       __positive                 00602480 f   LIBCMTD:cvt.obj
 0002:0014b4c0       __fassign                  006024c0 f   LIBCMTD:cvt.obj
 0002:0014b520       __cftoe                    00602520 f   LIBCMTD:cvt.obj
 0002:0014b7a0       __cftof                    006027a0 f   LIBCMTD:cvt.obj
 0002:0014b9d0       __cftog                    006029d0 f   LIBCMTD:cvt.obj
 0002:0014bb10       __cfltcvt                  00602b10 f   LIBCMTD:cvt.obj
 0002:0014bbd0       __chvalidator              00602bd0 f   LIBCMTD:isctype.obj
 0002:0014bc20       __chvalidator_mt           00602c20 f   LIBCMTD:isctype.obj
 0002:0014bc70       __isctype                  00602c70 f   LIBCMTD:isctype.obj
 0002:0014bcc0       ___isctype_mt              00602cc0 f   LIBCMTD:isctype.obj
 0002:0014bdb0       ____setlc_active_func      00602db0 f   LIBCMTD:setlocal.obj
 0002:0014bdc0       ____unguarded_readlc_active_add_func 00602dc0 f   LIBCMTD:setlocal.obj
 0002:0014bdd0       ___freetlocinfo            00602dd0 f   LIBCMTD:setlocal.obj
 0002:0014bfb0       ___updatetlocinfo          00602fb0 f   LIBCMTD:setlocal.obj
 0002:0014c280       _setlocale                 00603280 f   LIBCMTD:setlocal.obj
 0002:0014cff0       __expandlocale             00603ff0 f   LIBCMTD:setlocal.obj
 0002:0014d240       ___init_dummy              00604240 f   LIBCMTD:setlocal.obj
 0002:0014d250       __strcats                  00604250 f   LIBCMTD:setlocal.obj
 0002:0014d2c0       ___lc_strtolc              006042c0 f   LIBCMTD:setlocal.obj
 0002:0014d490       ___lc_lctostr              00604490 f   LIBCMTD:setlocal.obj
 0002:0014d510       ___crtTlsAlloc@4           00604510 f   LIBCMTD:tidtable.obj
 0002:0014d520       __mtinit                   00604520 f   LIBCMTD:tidtable.obj
 0002:0014d6c0       __mtterm                   006046c0 f   LIBCMTD:tidtable.obj
 0002:0014d700       __initptd                  00604700 f   LIBCMTD:tidtable.obj
 0002:0014d720       __getptd                   00604720 f   LIBCMTD:tidtable.obj
 0002:0014d7f0       __freefls@4                006047f0 f   LIBCMTD:tidtable.obj
 0002:0014db00       __freeptd                  00604b00 f   LIBCMTD:tidtable.obj
 0002:0014db50       ___threadid                00604b50 f   LIBCMTD:tidtable.obj
 0002:0014db60       ___threadhandle            00604b60 f   LIBCMTD:tidtable.obj
 0002:0014db70       __allmul                   00604b70 f   LIBCMTD:llmul.obj
 0002:0014dbc0       _abort                     00604bc0 f   LIBCMTD:abort.obj
 0002:0014dbf0       _signal                    00604bf0 f   LIBCMTD:winsig.obj
 0002:0014dff0       _raise                     00604ff0 f   LIBCMTD:winsig.obj
 0002:0014e350       ___fpecode                 00605350 f   LIBCMTD:winsig.obj
 0002:0014e360       ___pxcptinfoptrs           00605360 f   LIBCMTD:winsig.obj
 0002:0014e370       ___crtMessageBoxA          00605370 f   LIBCMTD:crtmbox.obj
 0002:0014e540       __itoa                     00605540 f   LIBCMTD:xtoa.obj
 0002:0014e6a0       __ltoa                     006056a0 f   LIBCMTD:xtoa.obj
 0002:0014e6f0       __ultoa                    006056f0 f   LIBCMTD:xtoa.obj
 0002:0014e720       __i64toa                   00605720 f   LIBCMTD:xtoa.obj
 0002:0014e8b0       __ui64toa                  006058b0 f   LIBCMTD:xtoa.obj
 0002:0014e8e0       ___iob_func                006058e0 f   LIBCMTD:_file.obj
 0002:0014e8f0       ___initstdio               006058f0 f   LIBCMTD:_file.obj
 0002:0014ea70       ___endstdio                00605a70 f   LIBCMTD:_file.obj
 0002:0014ea90       __lock_file                00605a90 f   LIBCMTD:_file.obj
 0002:0014eae0       __lock_file2               00605ae0 f   LIBCMTD:_file.obj
 0002:0014eb20       __unlock_file              00605b20 f   LIBCMTD:_file.obj
 0002:0014eb70       __unlock_file2             00605b70 f   LIBCMTD:_file.obj
 0002:0014ebb0       @__security_check_cookie@4 00605bb0 f   LIBCMTD:secchk.obj
 0002:0014ec60       ___libm_error_support      00605c60 f   LIBCMTD:libm_error.obj
 0002:0014f8f0       ___sse2_available_init     006068f0 f   LIBCMTD:cpu_disp.obj
 0002:0014fae0       __set_SSE2_enable          00606ae0 f   LIBCMTD:cpu_disp.obj
 0002:0014fb10       __ceil_default             00606b10 f   LIBCMTD:ceil.obj
 0002:0014fca0       __floor_default            00606ca0 f   LIBCMTD:floor.obj
 0002:0014fe30       __trandisp1                00606e30 f   LIBCMTD:87disp.obj
 0002:0014fe97       __trandisp2                00606e97 f   LIBCMTD:87disp.obj
 0002:0014ff23       __rttospopde               00606f23     LIBCMTD:87disp.obj
 0002:0014ff28       __rttospop                 00606f28     LIBCMTD:87disp.obj
 0002:0014ff2a       __rtnospop                 00606f2a     LIBCMTD:87disp.obj
 0002:0014ff2c       __rttosnpop                00606f2c     LIBCMTD:87disp.obj
 0002:0014ff2d       __rtnospopde               00606f2d     LIBCMTD:87disp.obj
 0002:0014ff34       __rtzeropop                00606f34     LIBCMTD:87disp.obj
 0002:0014ff36       __rtzeronpop               00606f36     LIBCMTD:87disp.obj
 0002:0014ff3b       __rtonepop                 00606f3b     LIBCMTD:87disp.obj
 0002:0014ff3d       __rtonenpop                00606f3d     LIBCMTD:87disp.obj
 0002:0014ff42       __tosnan1                  00606f42     LIBCMTD:87disp.obj
 0002:0014ff6d       __nosnan2                  00606f6d     LIBCMTD:87disp.obj
 0002:0014ff6f       __tosnan2                  00606f6f     LIBCMTD:87disp.obj
 0002:0014ff97       __nan2                     00606f97     LIBCMTD:87disp.obj
 0002:0014ffd6       __rtindfpop                00606fd6     LIBCMTD:87disp.obj
 0002:0014ffd8       __rtindfnpop               00606fd8     LIBCMTD:87disp.obj
 0002:0014ffe9       __rttosnpopde              00606fe9     LIBCMTD:87disp.obj
 0002:0014fff3       __rtchsifneg               00606ff3     LIBCMTD:87disp.obj
 0002:00150070       __startTwoArgErrorHandling 00607070 f   LIBCMTD:genexcep.obj
 0002:00150087       __startOneArgErrorHandling 00607087 f   LIBCMTD:genexcep.obj
 0002:001500e0       __twoToTOS                 006070e0 f   LIBCMTD:common.obj
 0002:001500f5       __load_CW                  006070f5 f   LIBCMTD:common.obj
 0002:0015010c       __convertTOStoQNaN         0060710c f   LIBCMTD:common.obj
 0002:00150125       __fload_withFB             00607125 f   LIBCMTD:common.obj
 0002:00150168       __checkTOS_withFB          00607168 f   LIBCMTD:common.obj
 0002:0015017e       __fast_exit                0060717e f   LIBCMTD:common.obj
 0002:0015018b       __math_exit                0060718b f   LIBCMTD:common.obj
 0002:001501b5       __check_overflow_exit      006071b5 f   LIBCMTD:common.obj
 0002:001501c9       __check_range_exit         006071c9 f   LIBCMTD:common.obj
 0002:001502ec       __fFATN2                   006072ec     LIBCMTD:87triga.obj
 0002:0015033c       __rtpiby2                  0060733c     LIBCMTD:87triga.obj
 0002:001503b0       __cintrindisp2             006073b0 f   LIBCMTD:87cdisp.obj
 0002:001503ee       __cintrindisp1             006073ee f   LIBCMTD:87cdisp.obj
 0002:0015042b       __ctrandisp2               0060742b f   LIBCMTD:87cdisp.obj
 0002:001505c1       __ctrandisp1               006075c1 f   LIBCMTD:87cdisp.obj
 0002:001505f4       __fload                    006075f4 f   LIBCMTD:87cdisp.obj
 0002:001506d0       ___crtLCMapStringA         006076d0 f   LIBCMTD:a_map.obj
 0002:00150df0       __aulldiv                  00607df0 f   LIBCMTD:ulldiv.obj
 0002:00150e80       __mtinitlocks              00607e80 f   LIBCMTD:mlock.obj
 0002:00150f30       __mtdeletelocks            00607f30 f   LIBCMTD:mlock.obj
 0002:00151020       __mtinitlocknum            00608020 f   LIBCMTD:mlock.obj
 0002:00151190       __lock                     00608190 f   LIBCMTD:mlock.obj
 0002:001511e0       __unlock                   006081e0 f   LIBCMTD:mlock.obj
 0002:00151200       __lockerr_exit             00608200 f   LIBCMTD:mlock.obj
 0002:00151228       __global_unwind2           00608228 f   LIBCMTD:exsup.obj
 0002:0015126a       __local_unwind2            0060826a f   LIBCMTD:exsup.obj
 0002:001512c2       __NLG_Return2              006082c2     LIBCMTD:exsup.obj
 0002:001512d2       __abnormal_termination     006082d2 f   LIBCMTD:exsup.obj
 0002:001512f5       __NLG_Notify1              006082f5 f   LIBCMTD:exsup.obj
 0002:001512fe       __NLG_Notify               006082fe f   LIBCMTD:exsup.obj
 0002:00151311       __NLG_Dispatch             00608311     LIBCMTD:exsup.obj
 0002:0015135c       __except_handler3          0060835c f   LIBCMTD:exsup3.obj
 0002:00151442       __seh_longjmp_unwind@4     00608442 f   LIBCMTD:exsup3.obj
 0002:001514a0       __mbsnbicoll               006084a0 f   LIBCMTD:mbsnbico.obj
 0002:00151530       ___wtomb_environ           00608530 f   LIBCMTD:wtombenv.obj
 0002:00151650       __flsbuf                   00608650 f   LIBCMTD:_flsbuf.obj
 0002:00151940       __output                   00608940 f   LIBCMTD:output.obj
 0002:00152cb0       __CrtDbgBreak              00609cb0 f   LIBCMTD:dbgrpt.obj
 0002:00152cc0       __CrtSetReportMode         00609cc0 f   LIBCMTD:dbgrpt.obj
 0002:00152d30       __CrtSetReportFile         00609d30 f   LIBCMTD:dbgrpt.obj
 0002:00152dd0       __CrtSetReportHook         00609dd0 f   LIBCMTD:dbgrpt.obj
 0002:00152e00       __CrtSetReportHook2        00609e00 f   LIBCMTD:dbgrpt.obj
 0002:001530e0       __CrtDbgReport             0060a0e0 f   LIBCMTD:dbgrpt.obj
 0002:00153a20       __stbuf                    0060aa20 f   LIBCMTD:_sftbuf.obj
 0002:00153bc0       __ftbuf                    0060abc0 f   LIBCMTD:_sftbuf.obj
 0002:00153c70       __input                    0060ac70 f   LIBCMTD:input.obj
 0002:00155600       __handle_qnan1             0060c600 f   LIBCMTD:fpexcept.obj
 0002:00155680       __handle_qnan2             0060c680 f   LIBCMTD:fpexcept.obj
 0002:00155710       __except1                  0060c710 f   LIBCMTD:fpexcept.obj
 0002:00155840       __except2                  0060c840 f   LIBCMTD:fpexcept.obj
 0002:00155990       __raise_exc                0060c990 f   LIBCMTD:fpexcept.obj
 0002:00155f70       __handle_exc               0060cf70 f   LIBCMTD:fpexcept.obj
 0002:00156350       __umatherr                 0060d350 f   LIBCMTD:fpexcept.obj
 0002:00156420       __set_errno                0060d420 f   LIBCMTD:fpexcept.obj
 0002:001564c0       __errcode                  0060d4c0 f   LIBCMTD:fpexcept.obj
 0002:00156540       __set_exp                  0060d540 f   LIBCMTD:util.obj
 0002:00156590       __get_exp                  0060d590 f   LIBCMTD:util.obj
 0002:001565d0       __add_exp                  0060d5d0 f   LIBCMTD:util.obj
 0002:00156610       __set_bexp                 0060d610 f   LIBCMTD:util.obj
 0002:00156650       __sptype                   0060d650 f   LIBCMTD:util.obj
 0002:001566e0       __decomp                   0060d6e0 f   LIBCMTD:util.obj
 0002:00156860       __statfp                   0060d860 f   LIBCMTD:fpctrl.obj
 0002:00156880       __clrfp                    0060d880 f   LIBCMTD:fpctrl.obj
 0002:001568a0       __ctrlfp                   0060d8a0 f   LIBCMTD:fpctrl.obj
 0002:001568e0       __set_statfp               0060d8e0 f   LIBCMTD:fpctrl.obj
 0002:00156960       ___tzset                   0060d960 f   LIBCMTD:tzset.obj
 0002:00156a10       __tzset                    0060da10 f   LIBCMTD:tzset.obj
 0002:00156fb0       __isindst                  0060dfb0 f   LIBCMTD:tzset.obj
 0002:00157700       _gmtime                    0060e700 f   LIBCMTD:gmtime.obj
 0002:00157980       __rt_probe_read4@4         0060e980 f   LIBCMTD:sehsupp.obj
 0002:00157a30       ?_set_new_handler@@YAP6AHI@ZP6AHI@Z@Z 0060ea30 f   LIBCMTD:handler.obj
 0002:00157a70       ?_query_new_handler@@YAP6AHI@ZXZ 0060ea70 f   LIBCMTD:handler.obj
 0002:00157a80       __callnewh                 0060ea80 f   LIBCMTD:handler.obj
 0002:00157ac0       __malloc_base              0060eac0 f   LIBCMTD:malloc.obj
 0002:00157af0       __nh_malloc_base           0060eaf0 f   LIBCMTD:malloc.obj
 0002:00157b60       __heap_alloc_base          0060eb60 f   LIBCMTD:malloc.obj
 0002:00157c60       __CrtDefaultAllocHook      0060ec60 f   LIBCMTD:dbghook.obj
 0002:00157c70       __expand_base              0060ec70 f   LIBCMTD:expand.obj
 0002:00157de0       __realloc_base             0060ede0 f   LIBCMTD:realloc.obj
 0002:00158140       __free_base                0060f140 f   LIBCMTD:free.obj
 0002:00158240       __heapchk                  0060f240 f   LIBCMTD:heapchk.obj
 0002:00158330       __heapset                  0060f330 f   LIBCMTD:heapchk.obj
 0002:00158340       ___heap_select             0060f340 f   LIBCMTD:heapinit.obj
 0002:00158380       __heap_init                0060f380 f   LIBCMTD:heapinit.obj
 0002:00158410       __heap_term                0060f410 f   LIBCMTD:heapinit.obj
 0002:001584f0       __get_heap_handle          0060f4f0 f   LIBCMTD:heapinit.obj
 0002:00158500       __get_sbh_threshold        0060f500 f   LIBCMTD:sbheap.obj
 0002:00158520       __set_sbh_threshold        0060f520 f   LIBCMTD:sbheap.obj
 0002:001585b0       ___sbh_heap_init           0060f5b0 f   LIBCMTD:sbheap.obj
 0002:00158630       ___sbh_find_block          0060f630 f   LIBCMTD:sbheap.obj
 0002:001586a0       ___sbh_verify_block        0060f6a0 f   LIBCMTD:sbheap.obj
 0002:00158710       ___sbh_free_block          0060f710 f   LIBCMTD:sbheap.obj
 0002:00158e40       ___sbh_alloc_block         0060fe40 f   LIBCMTD:sbheap.obj
 0002:001594a0       ___sbh_alloc_new_region    006104a0 f   LIBCMTD:sbheap.obj
 0002:001595f0       ___sbh_alloc_new_group     006105f0 f   LIBCMTD:sbheap.obj
 0002:00159860       ___sbh_resize_block        00610860 f   LIBCMTD:sbheap.obj
 0002:00159fa0       ___sbh_heapmin             00610fa0 f   LIBCMTD:sbheap.obj
 0002:0015a120       ___sbh_heap_check          00611120 f   LIBCMTD:sbheap.obj
 0002:0015a780       __dosmaperr                00611780 f   LIBCMTD:dosmap.obj
 0002:0015a840       __errno                    00611840 f   LIBCMTD:dosmap.obj
 0002:0015a850       ___doserrno                00611850 f   LIBCMTD:dosmap.obj
 0002:0015a860       __fltin2                   00611860 f   LIBCMTD:cfin.obj
 0002:0015a970       _isalpha                   00611970 f   LIBCMTD:_ctype.obj
 0002:0015a9f0       _isupper                   006119f0 f   LIBCMTD:_ctype.obj
 0002:0015aa70       _islower                   00611a70 f   LIBCMTD:_ctype.obj
 0002:0015aaf0       _isdigit                   00611af0 f   LIBCMTD:_ctype.obj
 0002:0015ab70       _isxdigit                  00611b70 f   LIBCMTD:_ctype.obj
 0002:0015abf0       _isspace                   00611bf0 f   LIBCMTD:_ctype.obj
 0002:0015ac70       _ispunct                   00611c70 f   LIBCMTD:_ctype.obj
 0002:0015acf0       _isalnum                   00611cf0 f   LIBCMTD:_ctype.obj
 0002:0015ad70       _isprint                   00611d70 f   LIBCMTD:_ctype.obj
 0002:0015adf0       _isgraph                   00611df0 f   LIBCMTD:_ctype.obj
 0002:0015ae70       _iscntrl                   00611e70 f   LIBCMTD:_ctype.obj
 0002:0015aef0       ___isascii                 00611ef0 f   LIBCMTD:_ctype.obj
 0002:0015af10       ___toascii                 00611f10 f   LIBCMTD:_ctype.obj
 0002:0015af20       ___iscsymf                 00611f20 f   LIBCMTD:_ctype.obj
 0002:0015af60       ___iscsym                  00611f60 f   LIBCMTD:_ctype.obj
 0002:0015afa0       __freebuf                  00611fa0 f   LIBCMTD:_freebuf.obj
 0002:0015b050       __lseek                    00612050 f   LIBCMTD:lseek.obj
 0002:0015b1a0       __lseek_lk                 006121a0 f   LIBCMTD:lseek.obj
 0002:0015b280       __ioinit                   00612280 f   LIBCMTD:ioinit.obj
 0002:0015b6f0       __ioterm                   006126f0 f   LIBCMTD:ioinit.obj
 0002:0015b7c0       _close                     006127c0 f   LIBCMTD:close.obj
 0002:0015b7c0       __close                    006127c0 f   LIBCMTD:close.obj
 0002:0015b8f0       __close_lk                 006128f0 f   LIBCMTD:close.obj
 0002:0015b9d0       __openfile                 006129d0 f   LIBCMTD:_open.obj
 0002:0015be40       __getstream                00612e40 f   LIBCMTD:stream.obj
 0002:0015c0f0       _write                     006130f0 f   LIBCMTD:write.obj
 0002:0015c0f0       __write                    006130f0 f   LIBCMTD:write.obj
 0002:0015c240       __write_lk                 00613240 f   LIBCMTD:write.obj
 0002:0015c5e0       __filbuf                   006135e0 f   LIBCMTD:_filbuf.obj
 0002:0015c830       __read                     00613830 f   LIBCMTD:read.obj
 0002:0015c980       __read_lk                  00613980 f   LIBCMTD:read.obj
 0002:0015ced0       __alloc_osfhnd             00613ed0 f   LIBCMTD:osfinfo.obj
 0002:0015d1f0       __set_osfhnd               006141f0 f   LIBCMTD:osfinfo.obj
 0002:0015d2e0       __free_osfhnd              006142e0 f   LIBCMTD:osfinfo.obj
 0002:0015d3f0       __get_osfhandle            006143f0 f   LIBCMTD:osfinfo.obj
 0002:0015d470       __open_osfhandle           00614470 f   LIBCMTD:osfinfo.obj
 0002:0015d610       __lock_fhandle             00614610 f   LIBCMTD:osfinfo.obj
 0002:0015d740       __unlock_fhandle           00614740 f   LIBCMTD:osfinfo.obj
 0002:0015d770       __onexit                   00614770 f   LIBCMTD:onexit.obj
 0002:0015d910       _atexit                    00614910 f   LIBCMTD:onexit.obj
 0002:0015d930       ___onexitinit              00614930 f   LIBCMTD:onexit.obj
 0002:0015d990       __RTC_Initialize           00614990 f   LIBCMTD:initsect.obj
 0002:0015da30       __RTC_Terminate            00614a30 f   LIBCMTD:initsect.obj
 0002:0015dad0       ___loctotime_t             00614ad0 f   LIBCMTD:dtoxtime.obj
 0002:0015dc80       ___CppXcptFilter           00614c80 f   LIBCMTD:winxfltr.obj
 0002:0015dcb0       __XcptFilter               00614cb0 f   LIBCMTD:winxfltr.obj
 0002:0015df50       __wincmdln                 00614f50 f   LIBCMTD:wincmdln.obj
 0002:0015e050       __setenvp                  00615050 f   LIBCMTD:stdenvp.obj
 0002:0015e230       __setargv                  00615230 f   LIBCMTD:stdargv.obj
 0002:0015e790       ___crtGetEnvironmentStringsA 00615790 f   LIBCMTD:a_env.obj
 0002:0015ea30       __FF_MSGBANNER             00615a30 f   LIBCMTD:crt0msg.obj
 0002:0015ea90       __NMSG_WRITE               00615a90 f   LIBCMTD:crt0msg.obj
 0002:0015ed30       __GET_RTERRMSG             00615d30 f   LIBCMTD:crt0msg.obj
 0002:0015eda0       __RTC_NumErrors            00615da0 f   LIBCMTD:userapi.obj
 0002:0015edb0       __RTC_GetErrDesc           00615db0 f   LIBCMTD:userapi.obj
 0002:0015ede0       __RTC_SetErrorType         00615de0 f   LIBCMTD:userapi.obj
 0002:0015ee10       __RTC_SetErrorFunc         00615e10 f   LIBCMTD:userapi.obj
 0002:0015ee30       ?_RTC_GetErrorFunc@@YAP6AHHPBDH00ZZPBX@Z 00615e30 f   LIBCMTD:userapi.obj
 0002:0015ee40       __chkesp                   00615e40 f   LIBCMTD:chkesp.obj
 0002:0015ee90       __CRT_RTC_INIT             00615e90 f   LIBCMTD:chkesp.obj
 0002:0015eea0       __CIpow_pentium4           00615ea0 f   LIBCMTD:pow_pentium4.obj
 0002:0015eeb9       __pow_pentium4             00615eb9     LIBCMTD:pow_pentium4.obj
 0002:0015fce1       __fFEXP                    00616ce1     LIBCMTD:87tran.obj
 0002:0015fd48       __rtinfpopse               00616d48     LIBCMTD:87tran.obj
 0002:0015fd4a       __rtinfnpopse              00616d4a     LIBCMTD:87tran.obj
 0002:0015fd5a       __fFLN                     00616d5a     LIBCMTD:87tran.obj
 0002:0015fe0f       __rtinfpop                 00616e0f     LIBCMTD:87tran.obj
 0002:0015fe11       __rtinfnpop                00616e11     LIBCMTD:87tran.obj
 0002:0015fe2e       __ffexpm1                  00616e2e     LIBCMTD:87tran.obj
 0002:0015ff60       __powhlp                   00616f60 f   LIBCMTD:powhlp.obj
 0002:001601d0       __d_inttype                006171d0 f   LIBCMTD:powhlp.obj
 0002:00160280       ?_RTC_GetSrcLine@@YAHKPADHPAHPAPAD@Z 00617280 f   LIBCMTD:pdblkup.obj
 0002:00160d40       ___crtwsetenv              00617d40 f   LIBCMTD:wsetenv.obj
 0002:00161570       ___crtsetenv               00618570 f   LIBCMTD:setenv.obj
 0002:00161ba0       __allshl                   00618ba0 f   LIBCMTD:llshl.obj
 0002:00161bd0       __statusfp                 00618bd0 f   LIBCMTD:ieee87.obj
 0002:00161bf0       __clearfp                  00618bf0 f   LIBCMTD:ieee87.obj
 0002:00161c10       __control87                00618c10 f   LIBCMTD:ieee87.obj
 0002:00161c70       __controlfp                00618c70 f   LIBCMTD:ieee87.obj
 0002:00161c90       __fpreset                  00618c90 f   LIBCMTD:ieee87.obj
 0002:00162100       __ZeroTail                 00619100 f   LIBCMTD:intrncvt.obj
 0002:001621b0       __IncMan                   006191b0 f   LIBCMTD:intrncvt.obj
 0002:00162290       __RoundMan                 00619290 f   LIBCMTD:intrncvt.obj
 0002:001623a0       __CopyMan                  006193a0 f   LIBCMTD:intrncvt.obj
 0002:00162400       __FillZeroMan              00619400 f   LIBCMTD:intrncvt.obj
 0002:00162440       __IsZeroMan                00619440 f   LIBCMTD:intrncvt.obj
 0002:00162490       __ShrMan                   00619490 f   LIBCMTD:intrncvt.obj
 0002:001625c0       __ld12cvt                  006195c0 f   LIBCMTD:intrncvt.obj
 0002:00162890       __ld12tod                  00619890 f   LIBCMTD:intrncvt.obj
 0002:001628b0       __ld12tof                  006198b0 f   LIBCMTD:intrncvt.obj
 0002:001628d0       __ld12told                 006198d0 f   LIBCMTD:intrncvt.obj
 0002:001629b0       __atodbl                   006199b0 f   LIBCMTD:intrncvt.obj
 0002:00162a10       __atoldbl                  00619a10 f   LIBCMTD:intrncvt.obj
 0002:00162a70       __atoflt                   00619a70 f   LIBCMTD:intrncvt.obj
 0002:00162ad0       __fptostr                  00619ad0 f   LIBCMTD:_fptostr.obj
 0002:00162c10       __fltout2                  00619c10 f   LIBCMTD:cfout.obj
 0002:00162cc0       ___dtold                   00619cc0 f   LIBCMTD:cfout.obj
 0002:00162e60       __fptrap                   00619e60 f   LIBCMTD:crt0fp.obj
 0002:00162e80       ___pwctype_func            00619e80 f   LIBCMTD:ctype.obj
 0002:00162e90       ___pctype_func             00619e90 f   LIBCMTD:ctype.obj
 0002:00162ea0       ___crtGetStringTypeA       00619ea0 f   LIBCMTD:a_str.obj
 0002:001631e0       __Getdays                  0061a1e0 f   LIBCMTD:strftime.obj
 0002:00163350       __Getmonths                0061a350 f   LIBCMTD:strftime.obj
 0002:001634d0       __Gettnames                0061a4d0 f   LIBCMTD:strftime.obj
 0002:00163950       _strftime                  0061a950 f   LIBCMTD:strftime.obj
 0002:00163980       __Strftime                 0061a980 f   LIBCMTD:strftime.obj
 0002:001639e0       __Strftime_mt              0061a9e0 f   LIBCMTD:strftime.obj
 0002:00165090       _localeconv                0061c090 f   LIBCMTD:lconv.obj
 0002:001650a0       ___init_time               0061c0a0 f   LIBCMTD:inittime.obj
 0002:00165820       ___free_lc_time            0061c820 f   LIBCMTD:inittime.obj
 0002:00165bf0       ___init_numeric            0061cbf0 f   LIBCMTD:initnum.obj
 0002:00166000       ___free_lconv_num          0061d000 f   LIBCMTD:initnum.obj
 0002:001660d0       ___init_monetary           0061d0d0 f   LIBCMTD:initmon.obj
 0002:001665d0       ___free_lconv_mon          0061d5d0 f   LIBCMTD:initmon.obj
 0002:00166790       ___init_ctype              0061d790 f   LIBCMTD:initctyp.obj
 0002:00166b00       ____mb_cur_max_func        0061db00 f   LIBCMTD:initctyp.obj
 0002:00166b10       ____lc_codepage_func       0061db10 f   LIBCMTD:initctyp.obj
 0002:00166b50       ____lc_collate_cp_func     0061db50 f   LIBCMTD:initctyp.obj
 0002:00166b90       ____lc_handle_func         0061db90 f   LIBCMTD:initctyp.obj
 0002:00166bd0       ___init_collate            0061dbd0 f   LIBCMTD:initcoll.obj
 0002:00166be0       _strcspn                   0061dbe0 f   LIBCMTD:strcspn.obj
 0002:00166c40       _strpbrk                   0061dc40 f   LIBCMTD:strpbrk.obj
 0002:00166c90       ___get_qualified_locale    0061dc90 f   LIBCMTD:getqloc.obj
 0002:00167e10       ___updatetmbcinfo          0061ee10 f   LIBCMTD:mbctype.obj
 0002:00167f10       __setmbcp                  0061ef10 f   LIBCMTD:mbctype.obj
 0002:00168aa0       __getmbcp                  0061faa0 f   LIBCMTD:mbctype.obj
 0002:00168ac0       ___initmbctable            0061fac0 f   LIBCMTD:mbctype.obj
 0002:00168af0       __aullrem                  0061faf0 f   LIBCMTD:ullrem.obj
 0002:00168b90       __fcloseall                0061fb90 f   LIBCMTD:closeall.obj
 0002:00168cf0       ___security_init_cookie    0061fcf0 f   LIBCMTD:seccinit.obj
 0002:00168db0       ___security_error_handler  0061fdb0 f   LIBCMTD:secfail.obj
 0002:00169060       __set_security_error_handler 00620060 f   LIBCMTD:secfail.obj
 0002:00169090       ___buffer_overrun          00620090 f   LIBCMTD:secfail.obj
 0002:001690b0       ___set_buffer_overrun_handler 006200b0 f   LIBCMTD:secfail.obj
 0002:001690d0       __matherr                  006200d0 f   LIBCMTD:matherr.obj
 0002:001690e0       __frnd                     006200e0 f   LIBCMTD:frnd.obj
 0002:00169100       __87except                 00620100 f   LIBCMTD:87except.obj
 0002:00169320       __resetstkoflw             00620320 f   LIBCMTD:resetstk.obj
 0002:001694c0       ___ansicp                  006204c0 f   LIBCMTD:convrtcp.obj
 0002:00169530       ___convertcp               00620530 f   LIBCMTD:convrtcp.obj
 0002:00169880       ___crtInitCritSecAndSpinCount 00620880 f   LIBCMTD:initcrit.obj
 0002:001699d0       __ValidateEH3RN            006209d0 f   LIBCMTD:eh3valid.obj
 0002:00169ec0       ___crtCompareStringA       00620ec0 f   LIBCMTD:a_cmp.obj
 0002:0016a5f0       __getbuf                   006215f0 f   LIBCMTD:_getbuf.obj
 0002:0016a6e0       __isatty                   006216e0 f   LIBCMTD:isatty.obj
 0002:0016a720       _wctomb                    00621720 f   LIBCMTD:wctomb.obj
 0002:0016a770       ___wctomb_mt               00621770 f   LIBCMTD:wctomb.obj
 0002:0016a830       __snprintf                 00621830 f   LIBCMTD:snprintf.obj
 0002:0016a960       _mbtowc                    00621960 f   LIBCMTD:mbtowc.obj
 0002:0016a9b0       ___mbtowc_mt               006219b0 f   LIBCMTD:mbtowc.obj
 0002:0016ab60       _ungetc                    00621b60 f   LIBCMTD:ungetc.obj
 0002:0016ac30       __ungetc_lk                00621c30 f   LIBCMTD:ungetc.obj
 0002:0016adb0       ___strgtold12              00621db0 f   LIBCMTD:strgtold.obj
 0002:0016ba30       ___STRINGTOLD              00622a30 f   LIBCMTD:strgtold.obj
 0002:0016bab0       _open                      00622ab0 f   LIBCMTD:open.obj
 0002:0016bab0       __open                     00622ab0 f   LIBCMTD:open.obj
 0002:0016bb80       __sopen                    00622b80 f   LIBCMTD:open.obj
 0002:0016c290       __lseeki64                 00623290 f   LIBCMTD:lseeki64.obj
 0002:0016c3f0       __lseeki64_lk              006233f0 f   LIBCMTD:lseeki64.obj
 0002:0016c4f0       __ismbbkalnum              006234f0 f   LIBCMTD:ismbbyte.obj
 0002:0016c510       __ismbbkprint              00623510 f   LIBCMTD:ismbbyte.obj
 0002:0016c530       __ismbbkpunct              00623530 f   LIBCMTD:ismbbyte.obj
 0002:0016c550       __ismbbalnum               00623550 f   LIBCMTD:ismbbyte.obj
 0002:0016c570       __ismbbalpha               00623570 f   LIBCMTD:ismbbyte.obj
 0002:0016c590       __ismbbgraph               00623590 f   LIBCMTD:ismbbyte.obj
 0002:0016c5b0       __ismbbprint               006235b0 f   LIBCMTD:ismbbyte.obj
 0002:0016c5d0       __ismbbpunct               006235d0 f   LIBCMTD:ismbbyte.obj
 0002:0016c5f0       __ismbblead                006235f0 f   LIBCMTD:ismbbyte.obj
 0002:0016c610       __ismbbtrail               00623610 f   LIBCMTD:ismbbyte.obj
 0002:0016c630       __ismbbkana                00623630 f   LIBCMTD:ismbbyte.obj
 0002:0016c700       _fdiv_main_routine         00623700 f   LIBCMTD:adj_fdiv.obj
 0002:0016c817       __adj_fdiv_r               00623817 f   LIBCMTD:adj_fdiv.obj
 0002:0016ccb6       __fdivp_sti_st             00623cb6 f   LIBCMTD:adj_fdiv.obj
 0002:0016ccc9       __fdivrp_sti_st            00623cc9 f   LIBCMTD:adj_fdiv.obj
 0002:0016ccdc       __adj_fdiv_m32             00623cdc f   LIBCMTD:adj_fdiv.obj
 0002:0016cd28       __adj_fdiv_m64             00623d28 f   LIBCMTD:adj_fdiv.obj
 0002:0016cd74       __adj_fdiv_m16i            00623d74 f   LIBCMTD:adj_fdiv.obj
 0002:0016cda8       __adj_fdiv_m32i            00623da8 f   LIBCMTD:adj_fdiv.obj
 0002:0016cddc       __adj_fdivr_m32            00623ddc f   LIBCMTD:adj_fdiv.obj
 0002:0016ce28       __adj_fdivr_m64            00623e28 f   LIBCMTD:adj_fdiv.obj
 0002:0016ce74       __adj_fdivr_m16i           00623e74 f   LIBCMTD:adj_fdiv.obj
 0002:0016cea8       __adj_fdivr_m32i           00623ea8 f   LIBCMTD:adj_fdiv.obj
 0002:0016cedc       __safe_fdiv                00623edc f   LIBCMTD:adj_fdiv.obj
 0002:0016cef1       __safe_fdivr               00623ef1 f   LIBCMTD:adj_fdiv.obj
 0002:0016cf06       __fprem_common             00623f06 f   LIBCMTD:adj_fdiv.obj
 0002:0016d10c       __adj_fprem                0062410c f   LIBCMTD:adj_fdiv.obj
 0002:0016d1be       __fprem1_common            006241be f   LIBCMTD:adj_fdiv.obj
 0002:0016d3c4       __adj_fprem1               006243c4 f   LIBCMTD:adj_fdiv.obj
 0002:0016d479       __safe_fprem               00624479 f   LIBCMTD:adj_fdiv.obj
 0002:0016d47f       __safe_fprem1              0062447f f   LIBCMTD:adj_fdiv.obj
 0002:0016d485       __adj_fpatan               00624485 f   LIBCMTD:adj_fdiv.obj
 0002:0016d488       __adj_fptan                00624488 f   LIBCMTD:adj_fdiv.obj
 0002:0016d7f0       __copysign                 006247f0 f   LIBCMTD:ieeemisc.obj
 0002:0016d830       __chgsign                  00624830 f   LIBCMTD:ieeemisc.obj
 0002:0016d870       __scalb                    00624870 f   LIBCMTD:ieeemisc.obj
 0002:0016d890       __logb                     00624890 f   LIBCMTD:ieeemisc.obj
 0002:0016da10       __nextafter                00624a10 f   LIBCMTD:ieeemisc.obj
 0002:0016de10       __finite                   00624e10 f   LIBCMTD:ieeemisc.obj
 0002:0016de40       __isnan                    00624e40 f   LIBCMTD:ieeemisc.obj
 0002:0016de90       __fpclass                  00624e90 f   LIBCMTD:ieeemisc.obj
 0002:0016df90       _wcscat                    00624f90 f   LIBCMTD:wcscat.obj
 0002:0016e000       _wcscpy                    00625000 f   LIBCMTD:wcscat.obj
 0002:0016e050       _wcslen                    00625050 f   LIBCMTD:wcslen.obj
 0002:0016e090       ___mbtow_environ           00625090 f   LIBCMTD:mbtowenv.obj
 0002:0016e1c0       _wcschr                    006251c0 f   LIBCMTD:wcschr.obj
 0002:0016e210       __wcsnicoll                00625210 f   LIBCMTD:wcsnicol.obj
 0002:0016e3c0       __mbschr                   006253c0 f   LIBCMTD:mbschr.obj
 0002:0016e4c0       ___addl                    006254c0 f   LIBCMTD:mantold.obj
 0002:0016e510       ___add_12                  00625510 f   LIBCMTD:mantold.obj
 0002:0016e5f0       ___shl_12                  006255f0 f   LIBCMTD:mantold.obj
 0002:0016e670       ___shr_12                  00625670 f   LIBCMTD:mantold.obj
 0002:0016e6f0       ___mtold12                 006256f0 f   LIBCMTD:mantold.obj
 0002:0016e890       _$I10_OUTPUT               00625890 f   LIBCMTD:x10fout.obj
 0002:0016eea0       ___ascii_stricmp           00625ea0 f   LIBCMTD:_stricmp.obj
 0002:0016ef10       ___getlocaleinfo           00625f10 f   LIBCMTD:inithelp.obj
 0002:0016f200       __stricmp                  00626200 f   LIBCMTD:stricmp.obj
 0002:0016f2d0       __strnicmp                 006262d0 f   LIBCMTD:strnicmp.obj
 0002:0016f3c0       ___ld12mul                 006263c0 f   LIBCMTD:tenpow.obj
 0002:0016f8b0       ___multtenpow12            006268b0 f   LIBCMTD:tenpow.obj
 0002:0016f9c0       __chsize                   006269c0 f   LIBCMTD:chsize.obj
 0002:0016fae0       __chsize_lk                00626ae0 f   LIBCMTD:chsize.obj
 0002:0016fd40       _ldexp                     00626d40 f   LIBCMTD:ldexp.obj
 0002:001700c0       ___crtCompareStringW       006270c0 f   LIBCMTD:w_cmp.obj
 0002:00170570       ___crtGetLocaleInfoW       00627570 f   LIBCMTD:w_loc.obj
 0002:001707d0       ___crtGetLocaleInfoA       006277d0 f   LIBCMTD:a_loc.obj
 0002:00170a40       ___ascii_strnicmp          00627a40 f   LIBCMTD:_strnicm.obj
 0002:00170ac0       __setmode                  00627ac0 f   LIBCMTD:setmode.obj
 0002:00170be0       __setmode_lk               00627be0 f   LIBCMTD:setmode.obj
 0002:00170cec       _GetSystemDirectoryA@8     00627cec f   kernel32:KERNEL32.dll
 0002:00170cf2       _CreateThread@24           00627cf2 f   kernel32:KERNEL32.dll
 0002:00170cf8       _CreateEventA@16           00627cf8 f   kernel32:KERNEL32.dll
 0002:00170cfe       _WaitForSingleObject@8     00627cfe f   kernel32:KERNEL32.dll
 0002:00170d04       _SetEvent@4                00627d04 f   kernel32:KERNEL32.dll
 0002:00170d0a       _ResetEvent@4              00627d0a f   kernel32:KERNEL32.dll
 0002:00170d10       _GetModuleFileNameA@12     00627d10 f   kernel32:KERNEL32.dll
 0002:00170d16       _GetSystemTimeAsFileTime@4 00627d16 f   kernel32:KERNEL32.dll
 0002:00170d1c       _IsBadWritePtr@8           00627d1c f   kernel32:KERNEL32.dll
 0002:00170d22       _IsBadReadPtr@8            00627d22 f   kernel32:KERNEL32.dll
 0002:00170d28       _HeapValidate@12           00627d28 f   kernel32:KERNEL32.dll
 0002:00170d2e       _GetLastError@0            00627d2e f   kernel32:KERNEL32.dll
 0002:00170d34       _MoveFileA@8               00627d34 f   kernel32:KERNEL32.dll
 0002:00170d3a       _DeleteFileA@4             00627d3a f   kernel32:KERNEL32.dll
 0002:00170d40       _FlushFileBuffers@4        00627d40 f   kernel32:KERNEL32.dll
 0002:00170d46       _TerminateProcess@8        00627d46 f   kernel32:KERNEL32.dll
 0002:00170d4c       _GetCurrentProcess@0       00627d4c f   kernel32:KERNEL32.dll
 0002:00170d52       _ExitProcess@4             00627d52 f   kernel32:KERNEL32.dll
 0002:00170d58       _GetModuleHandleA@4        00627d58 f   kernel32:KERNEL32.dll
 0002:00170d5e       _CreateDirectoryA@8        00627d5e f   kernel32:KERNEL32.dll
 0002:00170d64       _GetCurrentDirectoryA@8    00627d64 f   kernel32:KERNEL32.dll
 0002:00170d6a       _GetFullPathNameA@16       00627d6a f   kernel32:KERNEL32.dll
 0002:00170d70       _FindFirstFileA@8          00627d70 f   kernel32:KERNEL32.dll
 0002:00170d76       _FindNextFileA@8           00627d76 f   kernel32:KERNEL32.dll
 0002:00170d7c       _FindClose@4               00627d7c f   kernel32:KERNEL32.dll
 0002:00170d82       _FileTimeToSystemTime@8    00627d82 f   kernel32:KERNEL32.dll
 0002:00170d88       _FileTimeToLocalFileTime@8 00627d88 f   kernel32:KERNEL32.dll
 0002:00170d8e       _GetStartupInfoA@4         00627d8e f   kernel32:KERNEL32.dll
 0002:00170d94       _GetCommandLineA@0         00627d94 f   kernel32:KERNEL32.dll
 0002:00170d9a       _DebugBreak@0              00627d9a f   kernel32:KERNEL32.dll
 0002:00170da0       _RaiseException@16         00627da0 f   kernel32:KERNEL32.dll
 0002:00170da6       _MultiByteToWideChar@24    00627da6 f   kernel32:KERNEL32.dll
 0002:00170dac       _TlsAlloc@0                00627dac f   kernel32:KERNEL32.dll
 0002:00170db2       _GetCurrentThreadId@0      00627db2 f   kernel32:KERNEL32.dll
 0002:00170db8       _TlsFree@4                 00627db8 f   kernel32:KERNEL32.dll
 0002:00170dbe       _TlsSetValue@8             00627dbe f   kernel32:KERNEL32.dll
 0002:00170dc4       _TlsGetValue@4             00627dc4 f   kernel32:KERNEL32.dll
 0002:00170dca       _SetLastError@4            00627dca f   kernel32:KERNEL32.dll
 0002:00170dd0       _GetCurrentThread@0        00627dd0 f   kernel32:KERNEL32.dll
 0002:00170dd6       _SetConsoleCtrlHandler@8   00627dd6 f   kernel32:KERNEL32.dll
 0002:00170ddc       _EnterCriticalSection@4    00627ddc f   kernel32:KERNEL32.dll
 0002:00170de2       _LeaveCriticalSection@4    00627de2 f   kernel32:KERNEL32.dll
 0002:00170de8       _WideCharToMultiByte@32    00627de8 f   kernel32:KERNEL32.dll
 0002:00170dee       _LCMapStringA@24           00627dee f   kernel32:KERNEL32.dll
 0002:00170df4       _LCMapStringW@24           00627df4 f   kernel32:KERNEL32.dll
 0002:00170dfa       _DeleteCriticalSection@4   00627dfa f   kernel32:KERNEL32.dll
 0002:00170e00       _FatalAppExitA@8           00627e00 f   kernel32:KERNEL32.dll
 0002:00170e06       _RtlUnwind@16              00627e06 f   kernel32:KERNEL32.dll
 0002:00170e0c       _GetStdHandle@4            00627e0c f   kernel32:KERNEL32.dll
 0002:00170e12       _WriteFile@20              00627e12 f   kernel32:KERNEL32.dll
 0002:00170e18       _InterlockedDecrement@4    00627e18 f   kernel32:KERNEL32.dll
 0002:00170e1e       _OutputDebugStringA@4      00627e1e f   kernel32:KERNEL32.dll
 0002:00170e24       _InterlockedIncrement@4    00627e24 f   kernel32:KERNEL32.dll
 0002:00170e2a       _GetTimeZoneInformation@4  00627e2a f   kernel32:KERNEL32.dll
 0002:00170e30       _HeapAlloc@12              00627e30 f   kernel32:KERNEL32.dll
 0002:00170e36       _HeapReAlloc@16            00627e36 f   kernel32:KERNEL32.dll
 0002:00170e3c       _HeapFree@12               00627e3c f   kernel32:KERNEL32.dll
 0002:00170e42       _HeapDestroy@4             00627e42 f   kernel32:KERNEL32.dll
 0002:00170e48       _HeapCreate@12             00627e48 f   kernel32:KERNEL32.dll
 0002:00170e4e       _VirtualFree@12            00627e4e f   kernel32:KERNEL32.dll
 0002:00170e54       _VirtualAlloc@16           00627e54 f   kernel32:KERNEL32.dll
 0002:00170e5a       _SetFilePointer@16         00627e5a f   kernel32:KERNEL32.dll
 0002:00170e60       _SetHandleCount@4          00627e60 f   kernel32:KERNEL32.dll
 0002:00170e66       _GetFileType@4             00627e66 f   kernel32:KERNEL32.dll
 0002:00170e6c       _CloseHandle@4             00627e6c f   kernel32:KERNEL32.dll
 0002:00170e72       _ReadFile@20               00627e72 f   kernel32:KERNEL32.dll
 0002:00170e78       _SetStdHandle@8            00627e78 f   kernel32:KERNEL32.dll
 0002:00170e7e       _UnhandledExceptionFilter@4 00627e7e f   kernel32:KERNEL32.dll
 0002:00170e84       _FreeEnvironmentStringsA@4 00627e84 f   kernel32:KERNEL32.dll
 0002:00170e8a       _GetEnvironmentStrings@0   00627e8a f   kernel32:KERNEL32.dll
 0002:00170e90       _FreeEnvironmentStringsW@4 00627e90 f   kernel32:KERNEL32.dll
 0002:00170e96       _GetEnvironmentStringsW@0  00627e96 f   kernel32:KERNEL32.dll
 0002:00170e9c       _GetProcessHeap@0          00627e9c f   kernel32:KERNEL32.dll
 0002:00170ea2       _SetEnvironmentVariableA@8 00627ea2 f   kernel32:KERNEL32.dll
 0002:00170ea8       _SetEnvironmentVariableW@8 00627ea8 f   kernel32:KERNEL32.dll
 0002:00170eae       _GetStringTypeA@20         00627eae f   kernel32:KERNEL32.dll
 0002:00170eb4       _GetStringTypeW@16         00627eb4 f   kernel32:KERNEL32.dll
 0002:00170eba       _GetTimeFormatA@24         00627eba f   kernel32:KERNEL32.dll
 0002:00170ec0       _GetDateFormatA@24         00627ec0 f   kernel32:KERNEL32.dll
 0002:00170ec6       _GetCPInfo@8               00627ec6 f   kernel32:KERNEL32.dll
 0002:00170ecc       _IsValidLocale@8           00627ecc f   kernel32:KERNEL32.dll
 0002:00170ed2       _IsValidCodePage@4         00627ed2 f   kernel32:KERNEL32.dll
 0002:00170ed8       _GetLocaleInfoA@16         00627ed8 f   kernel32:KERNEL32.dll
 0002:00170ede       _EnumSystemLocalesA@8      00627ede f   kernel32:KERNEL32.dll
 0002:00170ee4       _GetUserDefaultLCID@0      00627ee4 f   kernel32:KERNEL32.dll
 0002:00170eea       _GetACP@0                  00627eea f   kernel32:KERNEL32.dll
 0002:00170ef0       _GetOEMCP@0                00627ef0 f   kernel32:KERNEL32.dll
 0002:00170ef6       _QueryPerformanceCounter@4 00627ef6 f   kernel32:KERNEL32.dll
 0002:00170efc       _GetTickCount@0            00627efc f   kernel32:KERNEL32.dll
 0002:00170f02       _GetCurrentProcessId@0     00627f02 f   kernel32:KERNEL32.dll
 0002:00170f08       _VirtualProtect@16         00627f08 f   kernel32:KERNEL32.dll
 0002:00170f0e       _GetSystemInfo@4           00627f0e f   kernel32:KERNEL32.dll
 0002:00170f14       _VirtualQuery@12           00627f14 f   kernel32:KERNEL32.dll
 0002:00170f1a       _InitializeCriticalSection@4 00627f1a f   kernel32:KERNEL32.dll
 0002:00170f20       _InterlockedExchange@8     00627f20 f   kernel32:KERNEL32.dll
 0002:00170f26       _CompareStringA@24         00627f26 f   kernel32:KERNEL32.dll
 0002:00170f2c       _CompareStringW@24         00627f2c f   kernel32:KERNEL32.dll
 0002:00170f32       _CreateFileA@28            00627f32 f   kernel32:KERNEL32.dll
 0002:00170f38       _SetEndOfFile@4            00627f38 f   kernel32:KERNEL32.dll
 0002:00170f3e       _GetLocaleInfoW@16         00627f3e f   kernel32:KERNEL32.dll
 0002:00170f44       _EnumDisplaySettingsA@12   00627f44 f   user32:USER32.dll
 0002:00170f4a       _ChangeDisplaySettingsA@8  00627f4a f   user32:USER32.dll
 0002:00170f50       _MessageBoxA@16            00627f50 f   user32:USER32.dll
 0002:00170f56       _SwapBuffers@4             00627f56 f   gdi32:GDI32.dll
 0002:00170f5c       _SetPixelFormat@12         00627f5c f   gdi32:GDI32.dll
 0002:00170f62       _DescribePixelFormat@16    00627f62 f   gdi32:GDI32.dll
 0002:00170f68       _GetDeviceGammaRamp@8      00627f68 f   gdi32:GDI32.dll
 0002:00170f6e       _SetDeviceGammaRamp@8      00627f6e f   gdi32:GDI32.dll
 0003:0000001c       ??_C@_0BI@GFBIMDFO@CL_GetUserCmd?3?5?$CFi?5?$DO?$DN?5?$CFi?$AA@ 0062901c     cl_cgame.obj
 0003:00000038       ??_C@_0CB@KNGFLOML@CL_GetParseEntityState?3?5?$CFi?5?$DO?$DN?5?$CFi@ 00629038     cl_cgame.obj
 0003:00000060       ??_C@_0CN@NFLCIAJJ@CL_GetSnapshot?3?5truncated?5?$CFi?5ent@ 00629060     cl_cgame.obj
 0003:00000098       ??_C@_0DI@DMJPFKEN@CL_GetSnapshot?3?5snapshotNumber?5?$DO@ 00629098     cl_cgame.obj
 0003:000000dc       ??_C@_02DKCKIIND@?$CFs?$AA@ 006290dc     cl_cgame.obj
 0003:000000e0       ??_C@_0BN@EHLDLIPD@MAX_GAMESTATE_CHARS?5exceeded?$AA@ 006290e0     cl_cgame.obj
 0003:00000104       ??_C@_0CB@GKLEHILN@configstring?5?$DO?5MAX_CONFIGSTRINGS@ 00629104     cl_cgame.obj
 0003:0000012c       ??_C@_0DC@GKPOBHJK@wait?5?$DL?5wait?5?$DL?5wait?5?$DL?5wait?5?$DL?5scre@ 0062912c     cl_cgame.obj
 0003:00000168       ??_C@_0BA@GNMFKLDC@clientLevelShot?$AA@ 00629168     cl_cgame.obj
 0003:0000017c       ??_C@_0M@NBIMEKNE@map_restart?$AA@ 0062917c     cl_cgame.obj
 0003:0000018c       ??_C@_02EODNHJKB@cs?$AA@   0062918c     cl_cgame.obj
 0003:00000190       ??_C@_01BJJEKLCA@?$CC?$AA@ 00629190     cl_cgame.obj
 0003:00000194       ??_C@_04EIHLPGFK@bcs2?$AA@ 00629194     cl_cgame.obj
 0003:0000019c       ??_C@_0BN@DLAPMAAP@bcs?5exceeded?5BIG_INFO_STRING?$AA@ 0062919c     cl_cgame.obj
 0003:000001c0       ??_C@_04GDFGKFJJ@bcs1?$AA@ 006291c0     cl_cgame.obj
 0003:000001c8       ??_C@_09PHKADKGH@cs?5?$CFs?5?$CC?$CFs?$AA@ 006291c8     cl_cgame.obj
 0003:000001d4       ??_C@_04HKENJENI@bcs0?$AA@ 006291d4     cl_cgame.obj
 0003:000001dc       ??_C@_0BF@PHOEELOB@Server?5disconnected?6?$AA@ 006291dc     cl_cgame.obj
 0003:000001f8       ??_C@_0BJ@FDEBGBPO@Server?5Disconnected?5?9?5?$CFs?$AA@ 006291f8     cl_cgame.obj
 0003:00000218       ??_C@_0L@KKPFIJOL@disconnect?$AA@ 00629218     cl_cgame.obj
 0003:00000228       ??_C@_0BI@JLIEJCCP@serverCommand?3?5?$CFi?5?3?5?$CFs?6?$AA@ 00629228     cl_cgame.obj
 0003:00000244       ??_C@_0DG@FOCFKOFN@CL_GetServerCommand?3?5requested?5a@ 00629244     cl_cgame.obj
 0003:00000284       ??_C@_0DH@KEKKOLLD@CL_GetServerCommand?3?5a?5reliable?5@ 00629284     cl_cgame.obj
 0003:000002c8       ??_C@_0BK@HMDPIKIJ@Bad?5cgame?5system?5trap?3?5?$CFi?$AA@ 006292c8     cl_cgame.obj
 0003:000002e8       ??_C@_01GBGANLPD@0?$AA@    006292e8     cl_cgame.obj
 0003:000002ec       ??_C@_0CM@CAGIBMBP@c?3?2quake3?2luamod_src?2code?2client@ 006292ec     cl_cgame.obj
 0003:00000320       ??_C@_0BN@IDOJBIPH@CL_InitCGame?3?5?$CF5?42f?5seconds?6?$AA@ 00629320     cl_cgame.obj
 0003:00000348       __real@408f400000000000    00629348     cl_cgame.obj
 0003:00000354       ??_C@_0BK@DNNCDOHF@VM_Create?5on?5cgame?5failed?$AA@ 00629354     cl_cgame.obj
 0003:00000374       ??_C@_05DAFANPAC@cgame?$AA@ 00629374     cl_cgame.obj
 0003:0000037c       ??_C@_08HKFBPMGE@vm_cgame?$AA@ 0062937c     cl_cgame.obj
 0003:00000388       ??_C@_0M@DKNJHPLK@maps?1?$CFs?4bsp?$AA@ 00629388     cl_cgame.obj
 0003:00000398       ??_C@_07KMNEBLH@mapname?$AA@ 00629398     cl_cgame.obj
 0003:000003a4       ??_C@_03JLNFKLOC@?$CFi?5?$AA@ 006293a4     cl_cgame.obj
 0003:000003a8       __real@3f800000            006293a8     cl_cgame.obj
 0003:000003ac       __real@00000000            006293ac     cl_cgame.obj
 0003:000003b0       ??_C@_07CLMNDOPI@?$DMFAST?$DO?5?$AA@ 006293b0     cl_cgame.obj
 0003:000003bc       ??_C@_08DFNEKPFP@?$DMRESET?$DO?5?$AA@ 006293bc     cl_cgame.obj
 0003:000003c8       ??_C@_0N@JKAMCJJO@activeAction?$AA@ 006293c8     cl_cgame.obj
 0003:000003d7       ??_C@_00CNPNBAHC@?$AA@     006293d7     cl_cgame.obj
 0003:000003d8       ??_C@_0CL@NEIPEDIE@cl?4snap?4serverTime?5?$DM?5cl?4oldFrame@ 006293d8     cl_cgame.obj
 0003:0000040c       ??_C@_0CA@FIEOEIEM@CL_SetCGameTime?3?5?$CBcl?4snap?4valid?$AA@ 0062940c     cl_cgame.obj
 0003:00000434       ??_C@_0BL@ODCKOIHE@trFMV?3?3stop?$CI?$CJ?0?5closing?5?$CFs?6?$AA@ 00629434     cl_cin.obj
 0003:00000454       ??_C@_03OFAPEBGM@?$CFs?6?$AA@ 00629454     cl_cin.obj
 0003:00000458       ??_C@_07MCHHMPMB@nextmap?$AA@ 00629458     cl_cin.obj
 0003:00000464       ??_C@_0BE@JMMOLKGP@finished?5cinematic?6?$AA@ 00629464     cl_cin.obj
 0003:0000047c       __real@42c80000            0062947c     cl_cin.obj
 0003:00000480       __real@40400000            00629480     cl_cin.obj
 0003:00000484       ??_C@_0CA@PBEAEEHD@roq_size?$DO65536?$HM?$HMroq_id?$DN?$DN0x1084?6?$AA@ 00629484     cl_cin.obj
 0003:000004ac       ??_C@_0DH@BGGOKGDB@HACK?3?5approxmimating?5cinematic?5f@ 006294ac     cl_cin.obj
 0003:000004f0       ??_C@_0BP@ONKNDCKB@trFMV?3?3play?$CI?$CJ?0?5invalid?5RoQ?5ID?6?$AA@ 006294f0     cl_cin.obj
 0003:00000518       ??_C@_0BL@NOJKJAEE@trFMV?3?3play?$CI?$CJ?0?5playing?5?$CFs?6?$AA@ 00629518     cl_cin.obj
 0003:00000538       ??_C@_0BG@CHLIAINM@play?$CI?$CFs?$CJ?0?5ROQSize?$DM?$DN0?6?$AA@ 00629538     cl_cin.obj
 0003:00000554       ??_C@_0BJ@PGHMMNHI@SCR_PlayCinematic?$CI?5?$CFs?5?$CJ?6?$AA@ 00629554     cl_cin.obj
 0003:00000574       ??_C@_08KLIMONEL@video?1?$CFs?$AA@ 00629574     cl_cin.obj
 0003:00000580       ??_C@_01KICIPPFI@?2?$AA@   00629580     cl_cin.obj
 0003:00000584       ??_C@_01KMDKNFGN@?1?$AA@   00629584     cl_cin.obj
 0003:00000588       ??_C@_0BO@EBCDHAOB@CIN_HandleForVideo?3?5none?5free?$AA@ 00629588     cl_cin.obj
 0003:000005ac       __real@42000000            006295ac     cl_cin.obj
 0003:000005b0       ??_C@_07IAFCMJGF@end?4roq?$AA@ 006295b0     cl_cin.obj
 0003:000005bc       ??_C@_0M@DDLBHMNL@demoend?4roq?$AA@ 006295bc     cl_cin.obj
 0003:000005cc       ??_C@_0BE@DDELHFMC@CL_PlayCinematic_f?6?$AA@ 006295cc     cl_cin.obj
 0003:000005e4       ??_C@_01EEMJAFIK@?6?$AA@   006295e4     cl_console.obj
 0003:000005e8       ??_C@_0BH@DBPHKMFK@ERROR?3?5couldn?8t?5open?4?6?$AA@ 006295e8     cl_console.obj
 0003:00000604       ??_C@_0BM@HNBBHJDG@Dumped?5console?5text?5to?5?$CFs?4?6?$AA@ 00629604     cl_console.obj
 0003:00000628       ??_C@_0BL@FAHDMBMK@usage?3?5condump?5?$DMfilename?$DO?6?$AA@ 00629628     cl_console.obj
 0003:00000648       ??_C@_07NENKHFEO@condump?$AA@ 00629648     cl_console.obj
 0003:00000654       ??_C@_05MEHLAELG@clear?$AA@ 00629654     cl_console.obj
 0003:0000065c       ??_C@_0N@NFNJCLFL@messagemode4?$AA@ 0062965c     cl_console.obj
 0003:0000066c       ??_C@_0N@JKJILNJM@messagemode3?$AA@ 0062966c     cl_console.obj
 0003:0000067c       ??_C@_0N@IDIDIMNN@messagemode2?$AA@ 0062967c     cl_console.obj
 0003:0000068c       ??_C@_0M@JINOELJH@messagemode?$AA@ 0062968c     cl_console.obj
 0003:0000069c       ??_C@_0O@JJBKLGLG@toggleconsole?$AA@ 0062969c     cl_console.obj
 0003:000006ac       ??_C@_0N@MGJFCGAP@scr_conspeed?$AA@ 006296ac     cl_console.obj
 0003:000006bc       ??_C@_0P@INMLCMIF@con_notifytime?$AA@ 006296bc     cl_console.obj
 0003:000006d0       ??_C@_01EKENIIDA@3?$AA@    006296d0     cl_console.obj
 0003:000006d4       ??_C@_0N@BFMOJDMP@?$FLskipnotify?$FN?$AA@ 006296d4     cl_console.obj
 0003:000006e4       __real@41800000            006296e4     cl_console.obj
 0003:000006e8       __real@41000000            006296e8     cl_console.obj
 0003:000006ec       ??_C@_04HKLMIPDN@say?3?$AA@ 006296ec     cl_console.obj
 0003:000006f4       ??_C@_09LMMIOJG@say_team?3?$AA@ 006296f4     cl_console.obj
 0003:00000700       __real@447a0000            00629700     cl_console.obj
 0003:00000704       ??_C@_08JLENPJJP@Q3?51?432b?$AA@ 00629704     cl_console.obj
 0003:00000710       __real@40000000            00629710     cl_console.obj
 0003:00000714       __real@43f00000            00629714     cl_console.obj
 0003:00000718       __real@3f50624dd2f1a9fc    00629718     cl_console.obj
 0003:00000724       ??_C@_0BP@KKNANIBM@Three?5keys?5down?5for?5a?5button?$CB?6?$AA@ 00629724     cl_input.obj
 0003:00000750       __real@3f76800000000000    00629750     cl_input.obj
 0003:0000075c       ??_C@_0BO@PJHINAKI@CL_JoystickEvent?3?5bad?5axis?5?$CFi?$AA@ 0062975c     cl_input.obj
 0003:00000780       ??_C@_08ENNALHMG@?$CFf?5?3?5?$CFf?6?$AA@ 00629780     cl_input.obj
 0003:00000790       __real@3fe0000000000000    00629790     cl_input.obj
 0003:0000079c       __real@43b40000            0062979c     cl_input.obj
 0003:000007a0       __real@47800000            006297a0     cl_input.obj
 0003:000007a4       __real@42b40000            006297a4     cl_input.obj
 0003:000007a8       ??_C@_03BDPCEMGP@125?$AA@  006297a8     cl_input.obj
 0003:000007ac       ??_C@_0O@FAEBFPEP@cl_maxpackets?$AA@ 006297ac     cl_input.obj
 0003:000007bc       ??_C@_02IHCGGLPM@15?$AA@   006297bc     cl_input.obj
 0003:000007c0       ??_C@_0DK@ONGDGOPA@WARNING?3?5?$CD462?5unsent?5fragments?5?$CI@ 006297c0     cl_input.obj
 0003:00000808       ??_C@_04FMMAFMGP@?$CI?$CFi?$CJ?$AA@ 00629808     cl_input.obj
 0003:00000810       ??_C@_0BF@IEGIFLHJ@MAX_PACKET_USERCMDS?6?$AA@ 00629810     cl_input.obj
 0003:0000082c       ??_C@_01BMBHCPLG@5?$AA@    0062982c     cl_input.obj
 0003:00000830       ??_C@_0N@HCACMDEB@cl_packetdup?$AA@ 00629830     cl_input.obj
 0003:00000840       ??_C@_02KHOJGJKF@?4?5?$AA@ 00629840     cl_input.obj
 0003:00000844       ??_C@_0N@PJOLPAGC@cl_debugMove?$AA@ 00629844     cl_input.obj
 0003:00000854       ??_C@_0L@BPLIDNFG@cl_nodelta?$AA@ 00629854     cl_input.obj
 0003:00000864       ??_C@_06ICJGCHDB@?9mlook?$AA@ 00629864     cl_input.obj
 0003:0000086c       ??_C@_06OBEGBCAL@?$CLmlook?$AA@ 0062986c     cl_input.obj
 0003:00000874       ??_C@_09OGHPIOCM@?9button14?$AA@ 00629874     cl_input.obj
 0003:00000880       ??_C@_09OLGBPOGL@?$CLbutton14?$AA@ 00629880     cl_input.obj
 0003:0000088c       ??_C@_09KJDOBIOL@?9button13?$AA@ 0062988c     cl_input.obj
 0003:00000898       ??_C@_09KECAGIKM@?$CLbutton13?$AA@ 00629898     cl_input.obj
 0003:000008a4       ??_C@_09LACFCJKK@?9button12?$AA@ 006298a4     cl_input.obj
 0003:000008b0       ??_C@_09LNDLFJON@?$CLbutton12?$AA@ 006298b0     cl_input.obj
 0003:000008bc       ??_C@_09JLAIHKGJ@?9button11?$AA@ 006298bc     cl_input.obj
 0003:000008c8       ??_C@_09JGBGAKCO@?$CLbutton11?$AA@ 006298c8     cl_input.obj
 0003:000008d4       ??_C@_09ICBDELCI@?9button10?$AA@ 006298d4     cl_input.obj
 0003:000008e0       ??_C@_09IPANDLGP@?$CLbutton10?$AA@ 006298e0     cl_input.obj
 0003:000008ec       ??_C@_08PFLPFDPC@?9button9?$AA@ 006298ec     cl_input.obj
 0003:000008f8       ??_C@_08IGKFCKHI@?$CLbutton9?$AA@ 006298f8     cl_input.obj
 0003:00000904       ??_C@_08OMKEGCLD@?9button8?$AA@ 00629904     cl_input.obj
 0003:00000910       ??_C@_08JPLOBLDJ@?$CLbutton8?$AA@ 00629910     cl_input.obj
 0003:0000091c       ??_C@_08GLDMHOHM@?9button7?$AA@ 0062991c     cl_input.obj
 0003:00000928       ??_C@_08BICGAHPG@?$CLbutton7?$AA@ 00629928     cl_input.obj
 0003:00000934       ??_C@_08HCCHEPDN@?9button6?$AA@ 00629934     cl_input.obj
 0003:00000940       ??_C@_08BDNDGLH@?$CLbutton6?$AA@ 00629940     cl_input.obj
 0003:0000094c       ??_C@_08FJAKBMPO@?9button5?$AA@ 0062994c     cl_input.obj
 0003:00000958       ??_C@_08CKBAGFHE@?$CLbutton5?$AA@ 00629958     cl_input.obj
 0003:00000964       ??_C@_08EABBCNLP@?9button4?$AA@ 00629964     cl_input.obj
 0003:00000970       ??_C@_08DDALFEDF@?$CLbutton4?$AA@ 00629970     cl_input.obj
 0003:0000097c       ??_C@_08PFALLHI@?9button3?$AA@ 0062997c     cl_input.obj
 0003:00000988       ??_C@_08HMEKMCPC@?$CLbutton3?$AA@ 00629988     cl_input.obj
 0003:00000994       ??_C@_08BGELIKDJ@?9button2?$AA@ 00629994     cl_input.obj
 0003:000009a0       ??_C@_08GFFBPDLD@?$CLbutton2?$AA@ 006299a0     cl_input.obj
 0003:000009ac       ??_C@_08DNGGNJPK@?9button1?$AA@ 006299ac     cl_input.obj
 0003:000009b8       ??_C@_08EOHMKAHA@?$CLbutton1?$AA@ 006299b8     cl_input.obj
 0003:000009c4       ??_C@_08CEHNOILL@?9button0?$AA@ 006299c4     cl_input.obj
 0003:000009d0       ??_C@_08FHGHJBDB@?$CLbutton0?$AA@ 006299d0     cl_input.obj
 0003:000009dc       ??_C@_07GIMEOOL@?9attack?$AA@ 006299dc     cl_input.obj
 0003:000009e8       ??_C@_07MAODEHGM@?$CLattack?$AA@ 006299e8     cl_input.obj
 0003:000009f4       ??_C@_06PLOIEHCE@?9speed?$AA@ 006299f4     cl_input.obj
 0003:000009fc       ??_C@_06JIDIHCBO@?$CLspeed?$AA@ 006299fc     cl_input.obj
 0003:00000a04       ??_C@_0L@LEKMOGAF@?9moveright?$AA@ 00629a04     cl_input.obj
 0003:00000a14       ??_C@_0L@FMBJCMEG@?$CLmoveright?$AA@ 00629a14     cl_input.obj
 0003:00000a24       ??_C@_09ICIDCGOI@?9moveleft?$AA@ 00629a24     cl_input.obj
 0003:00000a30       ??_C@_09IPJNFGKP@?$CLmoveleft?$AA@ 00629a30     cl_input.obj
 0003:00000a3c       ??_C@_07OBMFNJMJ@?9strafe?$AA@ 00629a3c     cl_input.obj
 0003:00000a48       ??_C@_07CHKKNAEO@?$CLstrafe?$AA@ 00629a48     cl_input.obj
 0003:00000a54       ??_C@_09KPLABCPP@?9lookdown?$AA@ 00629a54     cl_input.obj
 0003:00000a60       ??_C@_09KCKOGCLI@?$CLlookdown?$AA@ 00629a60     cl_input.obj
 0003:00000a6c       ??_C@_07MHFKIPNM@?9lookup?$AA@ 00629a6c     cl_input.obj
 0003:00000a78       ??_C@_07BDFIGFL@?$CLlookup?$AA@ 00629a78     cl_input.obj
 0003:00000a84       ??_C@_05FJPPDLOK@?9back?$AA@ 00629a84     cl_input.obj
 0003:00000a8c       ??_C@_05IPKGNIPH@?$CLback?$AA@ 00629a8c     cl_input.obj
 0003:00000a94       ??_C@_08NJFEAJHL@?9forward?$AA@ 00629a94     cl_input.obj
 0003:00000aa0       ??_C@_08KKEOHAPB@?$CLforward?$AA@ 00629aa0     cl_input.obj
 0003:00000aac       ??_C@_06LFFHCIPL@?9right?$AA@ 00629aac     cl_input.obj
 0003:00000ab4       ??_C@_06NGIHBNMB@?$CLright?$AA@ 00629ab4     cl_input.obj
 0003:00000abc       ??_C@_05KCDMNOKJ@?9left?$AA@ 00629abc     cl_input.obj
 0003:00000ac4       ??_C@_05HEGFDNLE@?$CLleft?$AA@ 00629ac4     cl_input.obj
 0003:00000acc       ??_C@_09HAIHLONB@?9movedown?$AA@ 00629acc     cl_input.obj
 0003:00000ad8       ??_C@_09HNJJMOJG@?$CLmovedown?$AA@ 00629ad8     cl_input.obj
 0003:00000ae4       ??_C@_07OMACAGKI@?9moveup?$AA@ 00629ae4     cl_input.obj
 0003:00000af0       ??_C@_07CKGNAPCP@?$CLmoveup?$AA@ 00629af0     cl_input.obj
 0003:00000afc       ??_C@_0L@FHIBDANG@centerview?$AA@ 00629afc     cl_input.obj
 0003:00000b0c       ??_C@_09COMJPDLF@SEMICOLON?$AA@ 00629b0c     cl_keys.obj
 0003:00000b18       ??_C@_05DIAHPDGL@PAUSE?$AA@ 00629b18     cl_keys.obj
 0003:00000b20       ??_C@_09GONHEPJO@KP_EQUALS?$AA@ 00629b20     cl_keys.obj
 0003:00000b2c       ??_C@_07PCCOFIHH@KP_STAR?$AA@ 00629b2c     cl_keys.obj
 0003:00000b38       ??_C@_0L@LEPHIPFO@KP_NUMLOCK?$AA@ 00629b38     cl_keys.obj
 0003:00000b48       ??_C@_07CCBHGHDK@KP_PLUS?$AA@ 00629b48     cl_keys.obj
 0003:00000b54       ??_C@_08KDIFPCFL@KP_MINUS?$AA@ 00629b54     cl_keys.obj
 0003:00000b60       ??_C@_08KHGBLJLO@KP_SLASH?$AA@ 00629b60     cl_keys.obj
 0003:00000b6c       ??_C@_06KMLJNBKH@KP_DEL?$AA@ 00629b6c     cl_keys.obj
 0003:00000b74       ??_C@_06JPNMOIAF@KP_INS?$AA@ 00629b74     cl_keys.obj
 0003:00000b7c       ??_C@_08MHGPIJOM@KP_ENTER?$AA@ 00629b7c     cl_keys.obj
 0003:00000b88       ??_C@_07BHJOEFGA@KP_PGDN?$AA@ 00629b88     cl_keys.obj
 0003:00000b94       ??_C@_0N@MJLAPIEJ@KP_DOWNARROW?$AA@ 00629b94     cl_keys.obj
 0003:00000ba4       ??_C@_06NAIJNDCL@KP_END?$AA@ 00629ba4     cl_keys.obj
 0003:00000bac       ??_C@_0O@NLCDAJLA@KP_RIGHTARROW?$AA@ 00629bac     cl_keys.obj
 0003:00000bbc       ??_C@_04BICCMFCD@KP_5?$AA@ 00629bbc     cl_keys.obj
 0003:00000bc4       ??_C@_0N@DMPGMABG@KP_LEFTARROW?$AA@ 00629bc4     cl_keys.obj
 0003:00000bd4       ??_C@_07NODLLDPI@KP_PGUP?$AA@ 00629bd4     cl_keys.obj
 0003:00000be0       ??_C@_0L@CCBCEPGH@KP_UPARROW?$AA@ 00629be0     cl_keys.obj
 0003:00000bf0       ??_C@_07GOJPFDII@KP_HOME?$AA@ 00629bf0     cl_keys.obj
 0003:00000bfc       ??_C@_05NIMGPOLB@AUX16?$AA@ 00629bfc     cl_keys.obj
 0003:00000c04       ??_C@_05PDOLKNHC@AUX15?$AA@ 00629c04     cl_keys.obj
 0003:00000c0c       ??_C@_05OKPAJMDD@AUX14?$AA@ 00629c0c     cl_keys.obj
 0003:00000c14       ??_C@_05KFLBAKPE@AUX13?$AA@ 00629c14     cl_keys.obj
 0003:00000c1c       ??_C@_05LMKKDLLF@AUX12?$AA@ 00629c1c     cl_keys.obj
 0003:00000c24       ??_C@_05JHIHGIHG@AUX11?$AA@ 00629c24     cl_keys.obj
 0003:00000c2c       ??_C@_05IOJMFJDH@AUX10?$AA@ 00629c2c     cl_keys.obj
 0003:00000c34       ??_C@_04MMLGHEDJ@AUX9?$AA@ 00629c34     cl_keys.obj
 0003:00000c3c       ??_C@_04NFKNEFHI@AUX8?$AA@ 00629c3c     cl_keys.obj
 0003:00000c44       ??_C@_04FCDFFJLH@AUX7?$AA@ 00629c44     cl_keys.obj
 0003:00000c4c       ??_C@_04ELCOGIPG@AUX6?$AA@ 00629c4c     cl_keys.obj
 0003:00000c54       ??_C@_04GAADDLDF@AUX5?$AA@ 00629c54     cl_keys.obj
 0003:00000c5c       ??_C@_04HJBIAKHE@AUX4?$AA@ 00629c5c     cl_keys.obj
 0003:00000c64       ??_C@_04DGFJJMLD@AUX3?$AA@ 00629c64     cl_keys.obj
 0003:00000c6c       ??_C@_04CPECKNPC@AUX2?$AA@ 00629c6c     cl_keys.obj
 0003:00000c74       ??_C@_04EGPPODB@AUX1?$AA@  00629c74     cl_keys.obj
 0003:00000c7c       ??_C@_05EHAFPHFO@JOY32?$AA@ 00629c7c     cl_keys.obj
 0003:00000c84       ??_C@_05GMCIKEJN@JOY31?$AA@ 00629c84     cl_keys.obj
 0003:00000c8c       ??_C@_05HFDDJFNM@JOY30?$AA@ 00629c8c     cl_keys.obj
 0003:00000c94       ??_C@_05KFDDEEKC@JOY29?$AA@ 00629c94     cl_keys.obj
 0003:00000c9c       ??_C@_05LMCIHFOD@JOY28?$AA@ 00629c9c     cl_keys.obj
 0003:00000ca4       ??_C@_05DLLAGJCM@JOY27?$AA@ 00629ca4     cl_keys.obj
 0003:00000cac       ??_C@_05CCKLFIGN@JOY26?$AA@ 00629cac     cl_keys.obj
 0003:00000cb4       ??_C@_05JIGALKO@JOY25?$AA@ 00629cb4     cl_keys.obj
 0003:00000cbc       ??_C@_05BAJNDKOP@JOY24?$AA@ 00629cbc     cl_keys.obj
 0003:00000cc4       ??_C@_05FPNMKMCI@JOY23?$AA@ 00629cc4     cl_keys.obj
 0003:00000ccc       ??_C@_05EGMHJNGJ@JOY22?$AA@ 00629ccc     cl_keys.obj
 0003:00000cd4       ??_C@_05GNOKMOKK@JOY21?$AA@ 00629cd4     cl_keys.obj
 0003:00000cdc       ??_C@_05HEPBPPOL@JOY20?$AA@ 00629cdc     cl_keys.obj
 0003:00000ce4       ??_C@_05KHHFPKPL@JOY19?$AA@ 00629ce4     cl_keys.obj
 0003:00000cec       ??_C@_05LOGOMLLK@JOY18?$AA@ 00629cec     cl_keys.obj
 0003:00000cf4       ??_C@_05DJPGNHHF@JOY17?$AA@ 00629cf4     cl_keys.obj
 0003:00000cfc       ??_C@_05CAONOGDE@JOY16?$AA@ 00629cfc     cl_keys.obj
 0003:00000d04       ??_C@_05LMALFPH@JOY15?$AA@ 00629d04     cl_keys.obj
 0003:00000d0c       ??_C@_05BCNLIELG@JOY14?$AA@ 00629d0c     cl_keys.obj
 0003:00000d14       ??_C@_05FNJKBCHB@JOY13?$AA@ 00629d14     cl_keys.obj
 0003:00000d1c       ??_C@_05EEIBCDDA@JOY12?$AA@ 00629d1c     cl_keys.obj
 0003:00000d24       ??_C@_05GPKMHAPD@JOY11?$AA@ 00629d24     cl_keys.obj
 0003:00000d2c       ??_C@_05HGLHEBLC@JOY10?$AA@ 00629d2c     cl_keys.obj
 0003:00000d34       ??_C@_04IFAAJIOE@JOY9?$AA@ 00629d34     cl_keys.obj
 0003:00000d3c       ??_C@_04JMBLKJKF@JOY8?$AA@ 00629d3c     cl_keys.obj
 0003:00000d44       ??_C@_04BLIDLFGK@JOY7?$AA@ 00629d44     cl_keys.obj
 0003:00000d4c       ??_C@_04CJIIECL@JOY6?$AA@  00629d4c     cl_keys.obj
 0003:00000d54       ??_C@_04CJLFNHOI@JOY5?$AA@ 00629d54     cl_keys.obj
 0003:00000d5c       ??_C@_04DAKOOGKJ@JOY4?$AA@ 00629d5c     cl_keys.obj
 0003:00000d64       ??_C@_04HPOPHAGO@JOY3?$AA@ 00629d64     cl_keys.obj
 0003:00000d6c       ??_C@_04GGPEEBCP@JOY2?$AA@ 00629d6c     cl_keys.obj
 0003:00000d74       ??_C@_04ENNJBCOM@JOY1?$AA@ 00629d74     cl_keys.obj
 0003:00000d7c       ??_C@_0L@NBPPJGMJ@MWHEELDOWN?$AA@ 00629d7c     cl_keys.obj
 0003:00000d8c       ??_C@_08NAKENEKM@MWHEELUP?$AA@ 00629d8c     cl_keys.obj
 0003:00000d98       ??_C@_06EEGKOBOL@MOUSE5?$AA@ 00629d98     cl_keys.obj
 0003:00000da0       ??_C@_06FNHBNAKK@MOUSE4?$AA@ 00629da0     cl_keys.obj
 0003:00000da8       ??_C@_06BCDAEGGN@MOUSE3?$AA@ 00629da8     cl_keys.obj
 0003:00000db0       ??_C@_06LCLHHCM@MOUSE2?$AA@ 00629db0     cl_keys.obj
 0003:00000db8       ??_C@_06CAAGCEOP@MOUSE1?$AA@ 00629db8     cl_keys.obj
 0003:00000dc0       ??_C@_03JMGAKCCH@END?$AA@  00629dc0     cl_keys.obj
 0003:00000dc4       ??_C@_04GHGFPGNC@HOME?$AA@ 00629dc4     cl_keys.obj
 0003:00000dcc       ??_C@_04NHMBBGKC@PGUP?$AA@ 00629dcc     cl_keys.obj
 0003:00000dd4       ??_C@_04BOGEOADK@PGDN?$AA@ 00629dd4     cl_keys.obj
 0003:00000ddc       ??_C@_03OAFAKAKL@DEL?$AA@  00629ddc     cl_keys.obj
 0003:00000de0       ??_C@_03NDDFJJAJ@INS?$AA@  00629de0     cl_keys.obj
 0003:00000de4       ??_C@_03KIBNPMNE@F12?$AA@  00629de4     cl_keys.obj
 0003:00000de8       ??_C@_03IDDAKPBH@F11?$AA@  00629de8     cl_keys.obj
 0003:00000dec       ??_C@_03JKCLJOFG@F10?$AA@  00629dec     cl_keys.obj
 0003:00000df0       ??_C@_02HKCNFKCF@F9?$AA@   00629df0     cl_keys.obj
 0003:00000df4       ??_C@_02GDDGGLGE@F8?$AA@   00629df4     cl_keys.obj
 0003:00000df8       ??_C@_02OEKOHHKL@F7?$AA@   00629df8     cl_keys.obj
 0003:00000dfc       ??_C@_02PNLFEGOK@F6?$AA@   00629dfc     cl_keys.obj
 0003:00000e00       ??_C@_02NGJIBFCJ@F5?$AA@   00629e00     cl_keys.obj
 0003:00000e04       ??_C@_02MPIDCEGI@F4?$AA@   00629e04     cl_keys.obj
 0003:00000e08       ??_C@_02IAMCLCKP@F3?$AA@   00629e08     cl_keys.obj
 0003:00000e0c       ??_C@_02JJNJIDOO@F2?$AA@   00629e0c     cl_keys.obj
 0003:00000e10       ??_C@_02LCPENACN@F1?$AA@   00629e10     cl_keys.obj
 0003:00000e14       ??_C@_08INDENNHK@CAPSLOCK?$AA@ 00629e14     cl_keys.obj
 0003:00000e20       ??_C@_07FBJAHANB@COMMAND?$AA@ 00629e20     cl_keys.obj
 0003:00000e2c       ??_C@_05OAHIEJBI@SHIFT?$AA@ 00629e2c     cl_keys.obj
 0003:00000e34       ??_C@_04FBBFEIFJ@CTRL?$AA@ 00629e34     cl_keys.obj
 0003:00000e3c       ??_C@_03FKEEPDEP@ALT?$AA@  00629e3c     cl_keys.obj
 0003:00000e40       ??_C@_0L@CIPLPPIL@RIGHTARROW?$AA@ 00629e40     cl_keys.obj
 0003:00000e50       ??_C@_09FNHBLDAE@LEFTARROW?$AA@ 00629e50     cl_keys.obj
 0003:00000e5c       ??_C@_09KIDHILFL@DOWNARROW?$AA@ 00629e5c     cl_keys.obj
 0003:00000e68       ??_C@_07MNCBLHKG@UPARROW?$AA@ 00629e68     cl_keys.obj
 0003:00000e74       ??_C@_09MALOLBMO@BACKSPACE?$AA@ 00629e74     cl_keys.obj
 0003:00000e80       ??_C@_05CAEOFMEP@SPACE?$AA@ 00629e80     cl_keys.obj
 0003:00000e88       ??_C@_06CDPDIIDH@ESCAPE?$AA@ 00629e88     cl_keys.obj
 0003:00000e90       ??_C@_05EMNIMLKD@ENTER?$AA@ 00629e90     cl_keys.obj
 0003:00000e98       ??_C@_03CJMDHCGG@TAB?$AA@  00629e98     cl_keys.obj
 0003:00000e9c       ??_C@_0BM@MHAABCMH@drawLen?5?$DO?$DN?5MAX_STRING_CHARS?$AA@ 00629e9c     cl_keys.obj
 0003:00000ec0       ??_C@_08LMOPPDJO@cmd?5say?5?$AA@ 00629ec0     cl_keys.obj
 0003:00000ecc       ??_C@_04MCOKGCBH@?$FN?$CFs?6?$AA@ 00629ecc     cl_keys.obj
 0003:00000ed4       ??_C@_03GFPEDOMH@?2?$CFs?$AA@ 00629ed4     cl_keys.obj
 0003:00000ed8       ??_C@_06NICJIFDH@clear?6?$AA@ 00629ed8     cl_keys.obj
 0003:00000ee0       ??_C@_09MNFIPOON@say?5?$CC?$CFs?$CC?6?$AA@ 00629ee0     cl_keys.obj
 0003:00000eec       ??_C@_0P@BAMGBHOI@say_team?5?$CC?$CFs?$CC?6?$AA@ 00629eec     cl_keys.obj
 0003:00000f00       ??_C@_0O@MFAGMBFC@tell?5?$CFi?5?$CC?$CFs?$CC?6?$AA@ 00629f00     cl_keys.obj
 0003:00000f10       ??_C@_0P@IGICGKLH@?$DMOUT?5OF?5RANGE?$DO?$AA@ 00629f10     cl_keys.obj
 0003:00000f24       ??_C@_0BA@FLLJDFDJ@?$DMKEY?5NOT?5FOUND?$DO?$AA@ 00629f24     cl_keys.obj
 0003:00000f38       ??_C@_0BI@PLEALGJH@?$CC?$CFs?$CC?5isn?8t?5a?5valid?5key?6?$AA@ 00629f38     cl_keys.obj
 0003:00000f54       ??_C@_0CL@OCGCHGGL@unbind?5?$DMkey?$DO?5?3?5remove?5commands?5f@ 00629f54     cl_keys.obj
 0003:00000f88       ??_C@_01CLKCMJKC@?5?$AA@   00629f88     cl_keys.obj
 0003:00000f8c       ??_C@_0BD@BAINEHPI@?$CC?$CFs?$CC?5is?5not?5bound?6?$AA@ 00629f8c     cl_keys.obj
 0003:00000fa4       ??_C@_0N@CHDOIAJI@?$CC?$CFs?$CC?5?$DN?5?$CC?$CFs?$CC?6?$AA@ 00629fa4     cl_keys.obj
 0003:00000fb4       ??_C@_0DC@GHIPCCCE@bind?5?$DMkey?$DO?5?$FLcommand?$FN?5?3?5attach?5a?5@ 00629fb4     cl_keys.obj
 0003:00000ff0       ??_C@_0O@HKEPFNEK@bind?5?$CFs?5?$CC?$CFs?$CC?6?$AA@ 00629ff0     cl_keys.obj
 0003:00001000       ??_C@_0L@EPHOCAKP@unbindall?6?$AA@ 0062a000     cl_keys.obj
 0003:00001010       ??_C@_08MHBLPCGN@?$CFs?5?$CC?$CFs?$CC?6?$AA@ 0062a010     cl_keys.obj
 0003:0000101c       ??_C@_08OLCDMLCJ@bindlist?$AA@ 0062a01c     cl_keys.obj
 0003:00001028       ??_C@_09EBAHBELN@unbindall?$AA@ 0062a028     cl_keys.obj
 0003:00001034       ??_C@_06IDJGFAK@unbind?$AA@ 0062a034     cl_keys.obj
 0003:0000103c       ??_C@_04NPNJNMMP@bind?$AA@ 0062a03c     cl_keys.obj
 0003:00001044       ??_C@_0L@BJOGPJJF@?9?$CFs?5?$CFi?5?$CFi?6?$AA@ 0062a044     cl_keys.obj
 0003:00001054       ??_C@_09NMODOCNP@?$CFs?5?$CFi?5?$CFi?6?$AA@ 0062a054     cl_keys.obj
 0003:00001060       ??_C@_0CK@GMJFPAOO@?$CFs?5is?5unbound?0?5use?5controls?5menu@ 0062a060     cl_keys.obj
 0003:00001094       ??_C@_08JIEIDHIE@nextdemo?$AA@ 0062a094     cl_keys.obj
 0003:000010a0       ??_C@_0P@EIAPFKBF@com_cameraMode?$AA@ 0062a0a0     cl_keys.obj
 0003:000010b4       ??_C@_0BI@EAPJOGJE@Client?5command?5overflow?$AA@ 0062a0b4     cl_main.obj
 0003:000010d0       __real@40a00000            0062a0d0     cl_main.obj
 0003:000010d4       __real@46fffe00            0062a0d4     cl_main.obj
 0003:000010d8       ??_C@_0P@JFMMMOHN@Stopped?5demo?4?6?$AA@ 0062a0d8     cl_main.obj
 0003:000010ec       ??_C@_0BH@FJJDMOAC@Not?5recording?5a?5demo?4?6?$AA@ 0062a0ec     cl_main.obj
 0003:00001108       ??_C@_0N@EFJGOOKC@demo?$CFi?$CFi?$CFi?$CFi?$AA@ 0062a108     cl_main.obj
 0003:00001118       ??_C@_0N@JINADPLJ@demo9999?4tga?$AA@ 0062a118     cl_main.obj
 0003:00001128       ??_C@_0BA@OHINOCDN@ui_recordSPDemo?$AA@ 0062a128     cl_main.obj
 0003:0000113c       ??_C@_0BC@PMCLPAOL@recording?5to?5?$CFs?4?6?$AA@ 0062a13c     cl_main.obj
 0003:00001154       ??_C@_0P@JBKMAJI@demos?1?$CFs?4dm_?$CFd?$AA@ 0062a154     cl_main.obj
 0003:00001168       ??_C@_0FA@PLJDEPGO@?$FO3WARNING?3?5You?5should?5set?5?8g_syn@ 0062a168     cl_main.obj
 0003:000011c8       ??_C@_0BF@LICFCALK@g_synchronousClients?$AA@ 0062a1c8     cl_main.obj
 0003:000011e4       ??_C@_0CD@JLOAFGIP@You?5must?5be?5in?5a?5level?5to?5record@ 0062a1e4     cl_main.obj
 0003:00001210       ??_C@_0BE@GOGLPLDO@Already?5recording?4?6?$AA@ 0062a210     cl_main.obj
 0003:00001228       ??_C@_0BD@PGNLAEFI@record?5?$DMdemoname?$DO?6?$AA@ 0062a228     cl_main.obj
 0003:00001240       ??_C@_0CF@PCNJDKKO@?$CFi?5frames?0?5?$CF3?41f?5seconds?3?5?$CF3?41f?5@ 0062a240     cl_main.obj
 0003:0000126c       ??_C@_0BK@CDNCLIJC@Demo?5file?5was?5truncated?4?6?$AA@ 0062a26c     cl_main.obj
 0003:0000128c       ??_C@_0CM@CDKKAHKA@CL_ReadDemoMessage?3?5demoMsglen?5?$DO@ 0062a28c     cl_main.obj
 0003:000012c0       ??_C@_0BB@OONEJEGE@couldn?8t?5open?5?$CFs?$AA@ 0062a2c0     cl_main.obj
 0003:000012d4       ??_C@_0CF@NNMMABBB@Protocol?5?$CFd?5not?5supported?5for?5de@ 0062a2d4     cl_main.obj
 0003:00001300       ??_C@_08OPAGIOMF@demos?1?$CFs?$AA@ 0062a300     cl_main.obj
 0003:0000130c       ??_C@_0O@JEEKIFAP@sv_killserver?$AA@ 0062a30c     cl_main.obj
 0003:0000131c       ??_C@_01HIHLOKLC@1?$AA@    0062a31c     cl_main.obj
 0003:00001320       ??_C@_0BF@LAJFIGGG@playdemo?5?$DMdemoname?$DO?6?$AA@ 0062a320     cl_main.obj
 0003:0000133c       ??_C@_0P@HACEFMAG@Not?5found?3?5?$CFs?6?$AA@ 0062a33c     cl_main.obj
 0003:00001350       ??_C@_0P@NIDHDKPC@Demo?5file?3?5?$CFs?6?$AA@ 0062a350     cl_main.obj
 0003:00001364       ??_C@_03LFLJCHJK@d1?6?$AA@ 0062a364     cl_main.obj
 0003:00001368       ??_C@_0BB@HGODKPPP@CL_NextDemo?3?5?$CFs?6?$AA@ 0062a368     cl_main.obj
 0003:0000137c       ??_C@_09IPAEKDAI@localhost?$AA@ 0062a37c     cl_main.obj
 0003:00001388       ??_C@_09NFOPKLIK@sv_cheats?$AA@ 0062a388     cl_main.obj
 0003:00001394       ??_C@_0BA@MIMGFFNE@cl_downloadName?$AA@ 0062a394     cl_main.obj
 0003:000013a8       ??_C@_0P@FABCFONG@r_uiFullScreen?$AA@ 0062a3a8     cl_main.obj
 0003:000013bc       ??_C@_0BG@NHOAAIGH@Unknown?5command?5?$CC?$CFs?$CC?6?$AA@ 0062a3bc     cl_main.obj
 0003:000013d8       ??_C@_0O@IFNCIAOO@getmotd?5?$CC?$CFs?$CC?6?$AA@ 0062a3d8     cl_main.obj
 0003:000013e8       ??_C@_07CPCPJPKL@version?$AA@ 0062a3e8     cl_main.obj
 0003:000013f4       ??_C@_08NELFFGLM@renderer?$AA@ 0062a3f4     cl_main.obj
 0003:00001400       ??_C@_09DBEGHIJJ@challenge?$AA@ 0062a400     cl_main.obj
 0003:0000140c       ??_C@_02IKAHHCAI@?$CFi?$AA@ 0062a40c     cl_main.obj
 0003:00001410       ??_C@_0BP@FPDCKHM@?$CFs?5resolved?5to?5?$CFi?4?$CFi?4?$CFi?4?$CFi?3?$CFi?6?$AA@ 0062a410     cl_main.obj
 0003:00001438       ??_C@_0BK@PDDCGPDI@Couldn?8t?5resolve?5address?6?$AA@ 0062a438     cl_main.obj
 0003:00001458       ??_C@_0O@NIMOHCFP@Resolving?5?$CFs?6?$AA@ 0062a458     cl_main.obj
 0003:00001468       ??_C@_0BH@CEAMHKGJ@update?4quake3arena?4com?$AA@ 0062a468     cl_main.obj
 0003:00001484       ??_C@_0BG@FGGNFFEK@getKeyAuthorize?5?$CFi?5?$CFs?$AA@ 0062a484     cl_main.obj
 0003:000014a0       ??_C@_0N@IFIIDPHP@cl_anonymous?$AA@ 0062a4a0     cl_main.obj
 0003:000014b0       ??_C@_06GIKKBIFN@demota?$AA@ 0062a4b0     cl_main.obj
 0003:000014b8       ??_C@_0M@KDAJBLAP@fs_restrict?$AA@ 0062a4b8     cl_main.obj
 0003:000014c8       ??_C@_0BK@MNOBFHCL@authorize?4quake3arena?4com?$AA@ 0062a4c8     cl_main.obj
 0003:000014e8       ??_C@_0BM@PIMKCOAK@Not?5connected?5to?5a?5server?4?6?$AA@ 0062a4e8     cl_main.obj
 0003:0000150c       ??_C@_0O@PJAFINBM@?$CFs?5undefined?6?$AA@ 0062a50c     cl_main.obj
 0003:0000151c       ??_C@_06BAKFFEGN@?$CFs?$DN?$CFs?6?$AA@ 0062a51c     cl_main.obj
 0003:00001524       ??_C@_01NEMOKFLO@?$DN?$AA@ 0062a524     cl_main.obj
 0003:00001528       ??_C@_0BJ@EBHAICOP@Disconnected?5from?5server?$AA@ 0062a528     cl_main.obj
 0003:00001548       ??_C@_0BG@JDIGCOKJ@ui_singlePlayerActive?$AA@ 0062a548     cl_main.obj
 0003:00001564       ??_C@_0M@LNGHCJI@connect?5?$CFs?6?$AA@ 0062a564     cl_main.obj
 0003:00001574       ??_C@_0BP@KAEALGFM@Can?8t?5reconnect?5to?5localhost?4?6?$AA@ 0062a574     cl_main.obj
 0003:0000159c       ??_C@_0BI@OBPNNDLP@cl_currentServerAddress?$AA@ 0062a59c     cl_main.obj
 0003:000015b8       ??_C@_0BE@BMPNGILO@Bad?5server?5address?6?$AA@ 0062a5b8     cl_main.obj
 0003:000015d0       ??_C@_0N@IAGKKNPJ@Server?5quit?6?$AA@ 0062a5d0     cl_main.obj
 0003:000015e0       ??_C@_0BJ@JGJJEKBC@usage?3?5connect?5?$FLserver?$FN?6?$AA@ 0062a5e0     cl_main.obj
 0003:00001600       ??_C@_0FE@GKHHMJFK@You?5must?5either?5be?5connected?0?6or@ 0062a600     cl_main.obj
 0003:00001664       ??_C@_05GCMNNKNG@rcon?5?$AA@ 0062a664     cl_main.obj
 0003:0000166c       ??_C@_0DN@LCHLNDDC@You?5must?5set?5?8rconpassword?8?5befo@ 0062a66c     cl_main.obj
 0003:000016b8       ??_C@_03JDANDILB@?$CFd?5?$AA@ 0062a6b8     cl_main.obj
 0003:000016bc       ??_C@_03LBGAPDPL@Yf?5?$AA@ 0062a6bc     cl_main.obj
 0003:000016c0       ??_C@_03MCDIKHCL@vdr?$AA@  0062a6c0     cl_main.obj
 0003:000016c4       ??_C@_09DIABHAFB@cl_paused?$AA@ 0062a6c4     cl_main.obj
 0003:000016d0       ??_C@_0BG@KJOBEGLE@Opened?5PK3?5Names?3?5?$CFs?6?$AA@ 0062a6d0     cl_main.obj
 0003:000016ec       ??_C@_0BK@GENIKODO@Referenced?5PK3?5Names?3?5?$CFs?6?$AA@ 0062a6ec     cl_main.obj
 0003:0000170c       ??_C@_08JBKNBCEM@?$CF4i?3?5?$CFs?6?$AA@ 0062a70c     cl_main.obj
 0003:00001718       ??_C@_0CI@DBDLLCJO@?9?9?9?9?9?9?9?9?9?9?9?9?9?9?9?9?9?9?9?9?9?9?9?9?9?9?9?9?9?9?9?9@ 0062a718     cl_main.obj
 0003:00001748       ??_C@_0BF@CNHFFNEA@User?5info?5settings?3?6?$AA@ 0062a748     cl_main.obj
 0003:00001764       ??_C@_0M@CDCBGBHB@Server?3?5?$CFs?6?$AA@ 0062a764     cl_main.obj
 0003:00001774       ??_C@_0L@PILDHKCK@state?3?5?$CFi?6?$AA@ 0062a774     cl_main.obj
 0003:00001784       ??_C@_0CI@OGJFLPIM@?9?9?9?9?9?9?9?9?9?5Client?5Information?5?9?9?9@ 0062a784     cl_main.obj
 0003:000017b4       ??_C@_06EIKEHMLC@donedl?$AA@ 0062a7b4     cl_main.obj
 0003:000017bc       ??_C@_0M@CDGAENEE@download?5?$CFs?$AA@ 0062a7bc     cl_main.obj
 0003:000017cc       ??_C@_0BA@CHCCPCBI@cl_downloadTime?$AA@ 0062a7cc     cl_main.obj
 0003:000017e0       ??_C@_0BB@FAHDFBEE@cl_downloadCount?$AA@ 0062a7e0     cl_main.obj
 0003:000017f4       ??_C@_0BA@IMGLJLPN@cl_downloadSize?$AA@ 0062a7f4     cl_main.obj
 0003:00001808       ??_C@_06IHDMMOPO@?$CFs?4tmp?$AA@ 0062a808     cl_main.obj
 0003:00001810       ??_C@_0FI@OJLPOMHD@?$CK?$CK?$CK?$CK?$CK?5CL_BeginDownload?5?$CK?$CK?$CK?$CK?$CK?6Loc@ 0062a810     cl_main.obj
 0003:0000187c       ??_C@_0P@LAKMDNN@Need?5paks?3?5?$CFs?6?$AA@ 0062a87c     cl_main.obj
 0003:00001890       ??_C@_0LE@HBLDLCIC@?6WARNING?3?5You?5are?5missing?5some?5f@ 0062a890     cl_main.obj
 0003:00001968       ??_C@_0CB@JLKOHGFD@CL_CheckForResend?3?5bad?5cls?4state@ 0062a968     cl_main.obj
 0003:00001990       ??_C@_08CCJJPJEL@connect?5?$AA@ 0062a990     cl_main.obj
 0003:0000199c       ??_C@_05IPCIHGO@qport?$AA@ 0062a99c     cl_main.obj
 0003:000019a4       ??_C@_08FCFPNNHF@protocol?$AA@ 0062a9a4     cl_main.obj
 0003:000019b0       ??_C@_09HOOHLIKH@net_qport?$AA@ 0062a9b0     cl_main.obj
 0003:000019bc       ??_C@_0N@FADCLAAC@getchallenge?$AA@ 0062a9bc     cl_main.obj
 0003:000019cc       ??_C@_0BB@GDGLAKGE@com_errorMessage?$AA@ 0062a9cc     cl_main.obj
 0003:000019e0       ??_C@_0CI@POLDFEDD@Server?5disconnected?5for?5unknown?5@ 0062a9e0     cl_main.obj
 0003:00001a10       ??_C@_0O@GJFLJONJ@cl_motdString?$AA@ 0062aa10     cl_main.obj
 0003:00001a20       ??_C@_04GJFDDCGE@motd?$AA@ 0062aa20     cl_main.obj
 0003:00001a28       ??_C@_0BO@DIFEDBKJ@?$CFd?5servers?5parsed?5?$CItotal?5?$CFd?$CJ?6?$AA@ 0062aa28     cl_main.obj
 0003:00001a4c       ??_C@_0BP@DMDBGEFJ@server?3?5?$CFd?5ip?3?5?$CFd?4?$CFd?4?$CFd?4?$CFd?3?$CFd?6?$AA@ 0062aa4c     cl_main.obj
 0003:00001a74       ??_C@_0BK@BOAAMPMC@CL_ServersResponsePacket?6?$AA@ 0062aa74     cl_main.obj
 0003:00001a94       ??_C@_0CI@KFHENOL@Unknown?5connectionless?5packet?5co@ 0062aa94     cl_main.obj
 0003:00001ac4       ??_C@_0BD@BBKFKIHA@getserversResponse?$AA@ 0062aac4     cl_main.obj
 0003:00001adc       ??_C@_05IJDJACGD@print?$AA@ 0062aadc     cl_main.obj
 0003:00001ae4       ??_C@_0N@KFCBIMP@keyAuthorize?$AA@ 0062aae4     cl_main.obj
 0003:00001af4       ??_C@_04OFDNEFMC@echo?$AA@ 0062aaf4     cl_main.obj
 0003:00001afc       ??_C@_0P@DGEHCAPG@statusResponse?$AA@ 0062aafc     cl_main.obj
 0003:00001b10       ??_C@_0N@LMKIPMEE@infoResponse?$AA@ 0062ab10     cl_main.obj
 0003:00001b20       ??_C@_0BI@OHPKCELG@?$CFs?5should?5have?5been?5?$CFs?6?$AA@ 0062ab20     cl_main.obj
 0003:00001b3c       ??_C@_0DF@MNDPKCCL@connectResponse?5from?5a?5different@ 0062ab3c     cl_main.obj
 0003:00001b7c       ??_C@_0DI@LOEOILK@connectResponse?5packet?5while?5not@ 0062ab7c     cl_main.obj
 0003:00001bc0       ??_C@_0CB@DAMFFBNO@Dup?5connect?5received?4?5?5Ignored?4?6@ 0062abc0     cl_main.obj
 0003:00001be8       ??_C@_0BA@LMOGOADK@connectResponse?$AA@ 0062abe8     cl_main.obj
 0003:00001bfc       ??_C@_0BH@HJNMAMEA@challengeResponse?3?5?$CFd?6?$AA@ 0062abfc     cl_main.obj
 0003:00001c18       ??_C@_0DB@NPIBIHLP@Unwanted?5challenge?5response?5rece@ 0062ac18     cl_main.obj
 0003:00001c54       ??_C@_0BC@DGKDGAMO@challengeResponse?$AA@ 0062ac54     cl_main.obj
 0003:00001c6c       ??_C@_0BC@IFKLHAPC@CL?5packet?5?$CFs?3?5?$CFs?6?$AA@ 0062ac6c     cl_main.obj
 0003:00001c84       ??_C@_0CI@KKHCEKLL@?$CFs?3sequenced?5packet?5without?5conn@ 0062ac84     cl_main.obj
 0003:00001cb4       ??_C@_0BB@JCENNPDP@?$CFs?3?5Runt?5packet?6?$AA@ 0062acb4     cl_main.obj
 0003:00001cc8       ??_C@_0BP@CBAODGNF@?6Server?5connection?5timed?5out?4?6?$AA@ 0062acc8     cl_main.obj
 0003:00001cf0       ??_C@_0O@FJGEONLL@userinfo?5?$CC?$CFs?$CC?$AA@ 0062acf0     cl_main.obj
 0003:00001d00       __real@3fd0000000000000    0062ad00     cl_main.obj
 0003:00001d0c       ??_C@_0BD@MBKJOELF@screenshot?5silent?6?$AA@ 0062ad0c     cl_main.obj
 0003:00001d24       ??_C@_04MMPNEILC@?$FO1?$CFs?$AA@ 0062ad24     cl_main.obj
 0003:00001d2c       ??_C@_04GGPEIADJ@?$FO3?$CFs?$AA@ 0062ad2c     cl_main.obj
 0003:00001d34       ??_C@_07PMJAFAE@console?$AA@ 0062ad34     cl_main.obj
 0003:00001d40       ??_C@_05PMAELIEO@white?$AA@ 0062ad40     cl_main.obj
 0003:00001d48       ??_C@_0BA@FILGFBEK@gfx?12d?1bigchars?$AA@ 0062ad48     cl_main.obj
 0003:00001d5c       ??_C@_04IAGNFIBA@size?$AA@ 0062ad5c     cl_main.obj
 0003:00001d64       ??_C@_0CL@EOJJLDJB@c?3?2quake3?2luamod_src?2code?2client@ 0062ad64     cl_main.obj
 0003:00001d98       ??_C@_0BM@BKBAAMDA@Couldn?8t?5initialize?5refresh?$AA@ 0062ad98     cl_main.obj
 0003:00001dbc       ??_C@_0CB@LHLKLKOG@?9?9?9?9?9?9?9?9?9?9?9?9?9?9?9?9?9?9?9?9?9?9?9?9?9?9?9?9?9?9?9?6@ 0062adbc     cl_main.obj
 0003:00001de4       ??_C@_0CC@CKFOOPEI@?9?9?9?9?9?5Initializing?5Renderer?5?9?9?9?9@ 0062ade4     cl_main.obj
 0003:00001e0c       ??_C@_0BE@BOKBONJL@model?5is?5set?5to?5?$CFs?6?$AA@ 0062ae0c     cl_main.obj
 0003:00001e24       ??_C@_09DHBBGOBJ@headmodel?$AA@ 0062ae24     cl_main.obj
 0003:00001e30       ??_C@_05NCCFOPHA@model?$AA@ 0062ae30     cl_main.obj
 0003:00001e38       ??_C@_0CM@KNFCNAPG@?9?9?9?9?9?5Client?5Initialization?5Comp@ 0062ae38     cl_main.obj
 0003:00001e6c       ??_C@_0L@FBHMLJNH@cl_running?$AA@ 0062ae6c     cl_main.obj
 0003:00001e7c       ??_C@_0BC@GPOKHKHA@fs_referencedList?$AA@ 0062ae7c     cl_main.obj
 0003:00001e94       ??_C@_0O@HJFIEPKA@fs_openedList?$AA@ 0062ae94     cl_main.obj
 0003:00001ea4       ??_C@_06NOAHJGOA@showip?$AA@ 0062aea4     cl_main.obj
 0003:00001eac       ??_C@_0N@LJMIJCBN@serverstatus?$AA@ 0062aeac     cl_main.obj
 0003:00001ebc       ??_C@_04OONEELOO@ping?$AA@ 0062aebc     cl_main.obj
 0003:00001ec4       ??_C@_06NMKMANLK@setenv?$AA@ 0062aec4     cl_main.obj
 0003:00001ecc       ??_C@_04CLKJCJJE@rcon?$AA@ 0062aecc     cl_main.obj
 0003:00001ed4       ??_C@_0O@BBKHNMKE@globalservers?$AA@ 0062aed4     cl_main.obj
 0003:00001ee4       ??_C@_0N@OHPGBJMI@localservers?$AA@ 0062aee4     cl_main.obj
 0003:00001ef4       ??_C@_09MCGBPECP@reconnect?$AA@ 0062aef4     cl_main.obj
 0003:00001f00       ??_C@_07KAIBNCHO@connect?$AA@ 0062af00     cl_main.obj
 0003:00001f0c       ??_C@_0L@OLGNCHFI@stoprecord?$AA@ 0062af0c     cl_main.obj
 0003:00001f1c       ??_C@_09DHDJHDLH@cinematic?$AA@ 0062af1c     cl_main.obj
 0003:00001f28       ??_C@_04PLPNPBEF@demo?$AA@ 0062af28     cl_main.obj
 0003:00001f30       ??_C@_06KKGOIHDP@record?$AA@ 0062af30     cl_main.obj
 0003:00001f38       ??_C@_0M@DIIAMDPB@vid_restart?$AA@ 0062af38     cl_main.obj
 0003:00001f48       ??_C@_0M@IJBIKBGC@snd_restart?$AA@ 0062af48     cl_main.obj
 0003:00001f58       ??_C@_0L@FEIAOOGN@clientinfo?$AA@ 0062af58     cl_main.obj
 0003:00001f68       ??_C@_0O@OBMKKPAG@configstrings?$AA@ 0062af68     cl_main.obj
 0003:00001f78       ??_C@_03LGLGIONO@cmd?$AA@  0062af78     cl_main.obj
 0003:00001f7c       ??_C@_0M@NABCNGBA@cg_viewsize?$AA@ 0062af7c     cl_main.obj
 0003:00001f8c       ??_C@_0BA@PKAEEJJB@cg_predictItems?$AA@ 0062af8c     cl_main.obj
 0003:00001fa0       ??_C@_08NLHBPEGP@password?$AA@ 0062afa0     cl_main.obj
 0003:00001fac       ??_C@_03OMLNFKE@sex?$AA@   0062afac     cl_main.obj
 0003:00001fb0       ??_C@_04ICKCIGNO@male?$AA@ 0062afb0     cl_main.obj
 0003:00001fb8       ??_C@_08OKGPDOIO@teamtask?$AA@ 0062afb8     cl_main.obj
 0003:00001fc4       ??_C@_08HBHLIHAM@handicap?$AA@ 0062afc4     cl_main.obj
 0003:00001fd0       ??_C@_03GNABGMEE@100?$AA@  0062afd0     cl_main.obj
 0003:00001fd4       ??_C@_06KEONFOCA@color2?$AA@ 0062afd4     cl_main.obj
 0003:00001fdc       ??_C@_06IPMAANOD@color1?$AA@ 0062afdc     cl_main.obj
 0003:00001fe4       ??_C@_01FAMBOPH@4?$AA@     0062afe4     cl_main.obj
 0003:00001fe8       ??_C@_0L@OOBNLHBJ@g_blueTeam?$AA@ 0062afe8     cl_main.obj
 0003:00001ff8       ??_C@_06GMDNOCON@Pagans?$AA@ 0062aff8     cl_main.obj
 0003:00002000       ??_C@_09HOBGGEAD@g_redTeam?$AA@ 0062b000     cl_main.obj
 0003:0000200c       ??_C@_07OLKAFEPH@Stroggs?$AA@ 0062b00c     cl_main.obj
 0003:00002018       ??_C@_0P@JMIBMNM@team_headmodel?$AA@ 0062b018     cl_main.obj
 0003:0000202c       ??_C@_06IHCBDILC@?$CKjames?$AA@ 0062b02c     cl_main.obj
 0003:00002034       ??_C@_0L@KEDOKIKJ@team_model?$AA@ 0062b034     cl_main.obj
 0003:00002044       ??_C@_05MAECCALN@james?$AA@ 0062b044     cl_main.obj
 0003:0000204c       ??_C@_05PDPNFFJO@sarge?$AA@ 0062b04c     cl_main.obj
 0003:00002054       ??_C@_05DGPADKBM@snaps?$AA@ 0062b054     cl_main.obj
 0003:0000205c       ??_C@_02PIBHCBOA@20?$AA@   0062b05c     cl_main.obj
 0003:00002060       ??_C@_04HCCHHEEF@rate?$AA@ 0062b060     cl_main.obj
 0003:00002068       ??_C@_04NEFKOBHG@3000?$AA@ 0062b068     cl_main.obj
 0003:00002070       ??_C@_04MEMAJGDJ@name?$AA@ 0062b070     cl_main.obj
 0003:00002078       ??_C@_0O@PCBPGDGA@UnnamedPlayer?$AA@ 0062b078     cl_main.obj
 0003:00002088       ??_C@_0L@KMOIMFOM@cl_maxPing?$AA@ 0062b088     cl_main.obj
 0003:00002098       ??_C@_03BAAJCDMO@800?$AA@  0062b098     cl_main.obj
 0003:0000209c       ??_C@_08BEMLPELN@m_filter?$AA@ 0062b09c     cl_main.obj
 0003:000020a8       ??_C@_06NKCCGJAO@m_side?$AA@ 0062b0a8     cl_main.obj
 0003:000020b0       ??_C@_09CGJLBBDA@m_forward?$AA@ 0062b0b0     cl_main.obj
 0003:000020bc       ??_C@_04FNMPJLCB@0?425?$AA@ 0062b0bc     cl_main.obj
 0003:000020c4       ??_C@_05HPEILLPC@m_yaw?$AA@ 0062b0c4     cl_main.obj
 0003:000020cc       ??_C@_07JIEGLHEC@m_pitch?$AA@ 0062b0cc     cl_main.obj
 0003:000020d8       ??_C@_05OACFFLK@0?4022?$AA@ 0062b0d8     cl_main.obj
 0003:000020e0       ??_C@_0O@JKEEFDLF@cg_autoswitch?$AA@ 0062b0e0     cl_main.obj
 0003:000020f0       ??_C@_0BK@NLNALACG@cl_serverStatusResendTime?$AA@ 0062b0f0     cl_main.obj
 0003:00002110       ??_C@_03EOKBPBHD@750?$AA@  0062b110     cl_main.obj
 0003:00002114       ??_C@_0O@EPDAEHAE@r_inGameVideo?$AA@ 0062b114     cl_main.obj
 0003:00002124       ??_C@_0O@PJLPEGOC@cl_conXOffset?$AA@ 0062b124     cl_main.obj
 0003:00002134       ??_C@_0BB@MLOALJHK@cl_allowDownload?$AA@ 0062b134     cl_main.obj
 0003:00002148       ??_C@_0BB@JAAMCGDF@cl_showmouserate?$AA@ 0062b148     cl_main.obj
 0003:0000215c       ??_C@_0M@HDIJIOFC@cl_freelook?$AA@ 0062b15c     cl_main.obj
 0003:0000216c       ??_C@_0O@EKMGNMKC@cl_mouseAccel?$AA@ 0062b16c     cl_main.obj
 0003:0000217c       ??_C@_0M@JFLMCFNC@sensitivity?$AA@ 0062b17c     cl_main.obj
 0003:0000218c       ??_C@_06HFMKGFEH@cl_run?$AA@ 0062b18c     cl_main.obj
 0003:00002194       ??_C@_02PJNFELNH@30?$AA@   0062b194     cl_main.obj
 0003:00002198       ??_C@_0BB@FCKNHEAF@cl_anglespeedkey?$AA@ 0062b198     cl_main.obj
 0003:000021ac       ??_C@_03GMOBGHL@1?45?$AA@  0062b1ac     cl_main.obj
 0003:000021b0       ??_C@_0O@KLONPPKB@cl_pitchspeed?$AA@ 0062b1b0     cl_main.obj
 0003:000021c0       ??_C@_0M@JHKIFKKF@cl_yawspeed?$AA@ 0062b1c0     cl_main.obj
 0003:000021d0       ??_C@_03GKAIMEJI@140?$AA@  0062b1d0     cl_main.obj
 0003:000021d4       ??_C@_0M@OFMEHMGC@rconAddress?$AA@ 0062b1d4     cl_main.obj
 0003:000021e4       ??_C@_0BA@HFABJKOC@cl_forceavidemo?$AA@ 0062b1e4     cl_main.obj
 0003:000021f8       ??_C@_0L@EFFMDGHC@cl_avidemo?$AA@ 0062b1f8     cl_main.obj
 0003:00002208       ??_C@_08LGFIIHD@timedemo?$AA@ 0062b208     cl_main.obj
 0003:00002214       ??_C@_0N@DJJLAFOK@rconPassword?$AA@ 0062b214     cl_main.obj
 0003:00002224       ??_C@_0O@NDLMCONH@cl_freezeDemo?$AA@ 0062b224     cl_main.obj
 0003:00002234       ??_C@_0BB@FEJGPFPP@cl_showTimeDelta?$AA@ 0062b234     cl_main.obj
 0003:00002248       ??_C@_0M@FIFNOBJK@cl_showSend?$AA@ 0062b248     cl_main.obj
 0003:00002258       ??_C@_0L@MNBOPENL@cl_shownet?$AA@ 0062b258     cl_main.obj
 0003:00002268       ??_C@_0N@PNJIOFAD@cl_timeNudge?$AA@ 0062b268     cl_main.obj
 0003:00002278       ??_C@_0L@JCNOFHIK@cl_timeout?$AA@ 0062b278     cl_main.obj
 0003:00002288       ??_C@_03HPLEMDKK@200?$AA@  0062b288     cl_main.obj
 0003:0000228c       ??_C@_07CFPJCBPL@cl_motd?$AA@ 0062b28c     cl_main.obj
 0003:00002298       ??_C@_0L@EEOFAGMJ@cl_noprint?$AA@ 0062b298     cl_main.obj
 0003:000022a8       ??_C@_0CD@IPKBNFJ@?9?9?9?9?9?5Client?5Initialization?5?9?9?9?9@ 0062b2a8     cl_main.obj
 0003:000022d4       ??_C@_0BJ@NDLHEOCN@?9?9?9?9?9?9?9?9?9?9?9?9?9?9?9?9?9?9?9?9?9?9?9?6?$AA@ 0062b2d4     cl_main.obj
 0003:000022f4       ??_C@_08PPJNGBMG@userinfo?$AA@ 0062b2f4     cl_main.obj
 0003:00002300       ??_C@_0BE@LMHMEFGD@recursive?5shutdown?6?$AA@ 0062b300     cl_main.obj
 0003:00002318       ??_C@_0BJ@EPBBJNIE@?9?9?9?9?9?5CL_Shutdown?5?9?9?9?9?9?6?$AA@ 0062b318     cl_main.obj
 0003:00002338       ??_C@_06DJHOIPC@?$CFs?3?5?$CFs?$AA@ 0062b338     cl_main.obj
 0003:00002340       ??_C@_0CO@PDOECEBD@MAX_OTHER_SERVERS?5hit?0?5dropping?5@ 0062b340     cl_main.obj
 0003:00002378       ??_C@_07EAJPOACB@nettype?$AA@ 0062b378     cl_main.obj
 0003:00002384       ??_C@_02DPKJAMEF@?$CFd?$AA@ 0062b384     cl_main.obj
 0003:00002388       ??_C@_03BBKEAIF@?$DP?$DP?$DP?$AA@ 0062b388     cl_main.obj
 0003:0000238c       ??_C@_03CLICADME@ipx?$AA@  0062b38c     cl_main.obj
 0003:00002390       ??_C@_03OCLLGKEH@udp?$AA@  0062b390     cl_main.obj
 0003:00002394       ??_C@_0BI@DBADJLIK@ping?5time?5?$CFdms?5from?5?$CFs?6?$AA@ 0062b394     cl_main.obj
 0003:000023b0       ??_C@_0CE@BMBLKOLI@Different?5protocol?5info?5packet?3?5@ 0062b3b0     cl_main.obj
 0003:000023dc       ??_C@_0L@CNOGMKDC@punkbuster?$AA@ 0062b3dc     cl_main.obj
 0003:000023ec       ??_C@_07MMIKBOAN@maxping?$AA@ 0062b3ec     cl_main.obj
 0003:000023f8       ??_C@_07CKOKLBOM@minping?$AA@ 0062b3f8     cl_main.obj
 0003:00002404       ??_C@_08NJPDEKHO@gametype?$AA@ 0062b404     cl_main.obj
 0003:00002410       ??_C@_04MJNAPEEI@game?$AA@ 0062b410     cl_main.obj
 0003:00002418       ??_C@_0O@OCOCOONB@sv_maxclients?$AA@ 0062b418     cl_main.obj
 0003:00002428       ??_C@_08EHKIGBEA@hostname?$AA@ 0062b428     cl_main.obj
 0003:00002434       ??_C@_07HKJFGNHJ@clients?$AA@ 0062b434     cl_main.obj
 0003:00002440       ??_C@_09EKLELPNI@getstatus?$AA@ 0062b440     cl_main.obj
 0003:0000244c       ??_C@_0BK@GJAGDIHH@?$CF?92d?5?5?5?$CF?93d?5?5?5?5?$CF?93d?5?5?5?$CFs?6?$AA@ 0062b44c     cl_main.obj
 0003:0000246c       ??_C@_07CIFAGBMG@unknown?$AA@ 0062b46c     cl_main.obj
 0003:00002478       ??_C@_05OKMLJOMC@?$CFd?5?$CFd?$AA@ 0062b478     cl_main.obj
 0003:00002480       ??_C@_0BJ@FOGFOPMO@num?3?5score?3?5ping?3?5name?3?6?$AA@ 0062b480     cl_main.obj
 0003:000024a0       ??_C@_0L@GBJHHNEK@?6Players?3?6?$AA@ 0062b4a0     cl_main.obj
 0003:000024b0       ??_C@_05FNFPHGDP@?$CF?924s?$AA@ 0062b4b0     cl_main.obj
 0003:000024b8       ??_C@_0BC@KPIAKMPH@Server?5settings?3?6?$AA@ 0062b4b8     cl_main.obj
 0003:000024d0       ??_C@_0BA@HEMALGFI@?$PP?$PP?$PP?$PPgetinfo?5xxx?$AA@ 0062b4d0     cl_main.obj
 0003:000024e4       ??_C@_0CO@LIFGMECC@Scanning?5for?5servers?5on?5the?5loca@ 0062b4e4     cl_main.obj
 0003:0000251c       ??_C@_05ILLBKCMN@?5demo?$AA@ 0062b51c     cl_main.obj
 0003:00002524       ??_C@_03EEBNCBOD@?5?$CFs?$AA@ 0062b524     cl_main.obj
 0003:00002528       ??_C@_0O@KMBAKMAC@getservers?5?$CFs?$AA@ 0062b528     cl_main.obj
 0003:00002538       ??_C@_0BH@HJHKJDCC@master?4quake3arena?4com?$AA@ 0062b538     cl_main.obj
 0003:00002554       ??_C@_0CH@IJAABCGN@Requesting?5servers?5from?5the?5mast@ 0062b554     cl_main.obj
 0003:00002584       ??_C@_0DK@CEAJIEBF@usage?3?5globalservers?5?$DMmaster?$CD?50?9@ 0062b584     cl_main.obj
 0003:000025cc       ??_C@_0M@PAOKIPMI@getinfo?5xxx?$AA@ 0062b5cc     cl_main.obj
 0003:000025dc       ??_C@_0BG@GCANHGBC@usage?3?5ping?5?$FLserver?$FN?6?$AA@ 0062b5dc     cl_main.obj
 0003:000025f8       ??_C@_0BO@PKCGGDHB@Usage?3?5serverstatus?5?$FLserver?$FN?6?$AA@ 0062b5f8     cl_main.obj
 0003:0000261c       ??_C@_04NOJCDH@?$CF02x?$AA@ 0062b61c     cl_main.obj
 0003:00002624       ??_C@_0N@NPHPNCMK@svc_snapshot?$AA@ 0062b624     cl_parse.obj
 0003:00002634       ??_C@_0N@NJJNDAEC@svc_download?$AA@ 0062b634     cl_parse.obj
 0003:00002644       ??_C@_0BC@MPNLMMMD@svc_serverCommand?$AA@ 0062b644     cl_parse.obj
 0003:0000265c       ??_C@_0N@BGKJKGIK@svc_baseline?$AA@ 0062b65c     cl_parse.obj
 0003:0000266c       ??_C@_0BB@FCKFJGAJ@svc_configstring?$AA@ 0062b66c     cl_parse.obj
 0003:00002680       ??_C@_0O@LFJOIOEL@svc_gamestate?$AA@ 0062b680     cl_parse.obj
 0003:00002690       ??_C@_07LENEADMB@svc_nop?$AA@ 0062b690     cl_parse.obj
 0003:0000269c       ??_C@_07NKDCEGCG@svc_bad?$AA@ 0062b69c     cl_parse.obj
 0003:000026a8       ??_C@_07ENBOGMFB@?$CF3i?3?$CFs?6?$AA@ 0062b6a8     cl_parse.obj
 0003:000026b4       ??_C@_0BE@HJHAKBFM@?$CF3i?3?5?5baseline?3?5?$CFi?6?$AA@ 0062b6b4     cl_parse.obj
 0003:000026cc       ??_C@_0BB@PEEFLBGI@?$CF3i?3?5?5delta?3?5?$CFi?6?$AA@ 0062b6cc     cl_parse.obj
 0003:000026e0       ??_C@_0BF@DMOLEINN@?$CF3i?3?5?5unchanged?3?5?$CFi?6?$AA@ 0062b6e0     cl_parse.obj
 0003:000026fc       ??_C@_0CH@FIOHCEPK@CL_ParsePacketEntities?3?5end?5of?5m@ 0062b6fc     cl_parse.obj
 0003:0000272c       ??_C@_0CD@OFCDBLEN@?5?5?5snapshot?3?$CFi?5?5delta?3?$CFi?5?5ping?3?$CF@ 0062b72c     cl_parse.obj
 0003:00002758       ??_C@_0BA@HLANGOLO@packet?5entities?$AA@ 0062b758     cl_parse.obj
 0003:0000276c       ??_C@_0M@DCHLDPOO@playerstate?$AA@ 0062b76c     cl_parse.obj
 0003:0000277c       ??_C@_0CB@DKGPPJCN@Delta?5parseEntitiesNum?5too?5old?4?6@ 0062b77c     cl_parse.obj
 0003:000027a4       ??_C@_0BG@KNOBNHLI@Delta?5frame?5too?5old?4?6?$AA@ 0062b7a4     cl_parse.obj
 0003:000027c0       ??_C@_0DF@IPHEMKHH@Delta?5from?5invalid?5frame?5?$CInot?5su@ 0062b7c0     cl_parse.obj
 0003:00002800       ??_C@_07CAKOHKGL@sv_pure?$AA@ 0062b800     cl_parse.obj
 0003:0000280c       ??_C@_07FMAMAFJE@fs_game?$AA@ 0062b80c     cl_parse.obj
 0003:00002818       ??_C@_0BG@GLEJBOHO@sv_referencedPakNames?$AA@ 0062b818     cl_parse.obj
 0003:00002834       ??_C@_0BC@GMMNJNGA@sv_referencedPaks?$AA@ 0062b834     cl_parse.obj
 0003:0000284c       ??_C@_0M@POGHGNMP@sv_pakNames?$AA@ 0062b84c     cl_parse.obj
 0003:0000285c       ??_C@_07PALKJHIL@sv_paks?$AA@ 0062b85c     cl_parse.obj
 0003:00002868       ??_C@_0M@KIKMJPNG@sv_serverid?$AA@ 0062b868     cl_parse.obj
 0003:00002878       ??_C@_0CE@PAKDFLME@CL_ParseGamestate?3?5bad?5command?5b@ 0062b878     cl_parse.obj
 0003:000028a4       ??_C@_0CB@MJAKJKGN@Baseline?5number?5out?5of?5range?3?5?$CFi@ 0062b8a4     cl_parse.obj
 0003:000028cc       ??_C@_09PCLPELCK@nextdl?5?$CFd?$AA@ 0062b8cc     cl_parse.obj
 0003:000028d8       ??_C@_0BF@FEBHKNJL@Could?5not?5create?5?$CFs?6?$AA@ 0062b8d8     cl_parse.obj
 0003:000028f4       ??_C@_06NJGLKCLH@stopdl?$AA@ 0062b8f4     cl_parse.obj
 0003:000028fc       ??_C@_0DI@JKPJCOJB@Server?5sending?5download?0?5but?5no?5@ 0062b8fc     cl_parse.obj
 0003:00002940       ??_C@_0CN@HEADJFOK@CL_ParseDownload?3?5Expected?5block@ 0062b940     cl_parse.obj
 0003:00002978       ??_C@_0DB@FPIIIAAE@CL_ParseServerMessage?3?5Illegible@ 0062b978     cl_parse.obj
 0003:000029b4       ??_C@_0BA@JPKIBJNA@?$CF3i?3BAD?5CMD?5?$CFi?6?$AA@ 0062b9b4     cl_parse.obj
 0003:000029c8       ??_C@_0P@OAODPOMK@END?5OF?5MESSAGE?$AA@ 0062b9c8     cl_parse.obj
 0003:000029dc       ??_C@_0DH@BBFPEAJH@CL_ParseServerMessage?3?5read?5past@ 0062b9dc     cl_parse.obj
 0003:00002a20       ??_C@_0BE@OPHJAJHM@?9?9?9?9?9?9?9?9?9?9?9?9?9?9?9?9?9?9?6?$AA@ 0062ba20     cl_parse.obj
 0003:00002a38       ??_C@_0L@OBBIDIHE@width?5?$CB?$DN?50?$AA@ 0062ba38     cl_scrn.obj
 0003:00002a48       ??_C@_0CL@CDIAFDJK@c?3?2quake3?2luamod_src?2code?2client@ 0062ba48     cl_scrn.obj
 0003:00002a80       __real@407e000000000000    0062ba80     cl_scrn.obj
 0003:00002a90       __real@4084000000000000    0062ba90     cl_scrn.obj
 0003:00002aa0       __real@3fb0000000000000    0062baa0     cl_scrn.obj
 0003:00002aac       ??_C@_0BC@LNEGBKC@RECORDING?5?$CFs?3?5?$CFik?$AA@ 0062baac     cl_scrn.obj
 0003:00002ac4       ??_C@_0L@CFOJGOPC@graphshift?$AA@ 0062bac4     cl_scrn.obj
 0003:00002ad4       ??_C@_0L@MJMDNBMK@graphscale?$AA@ 0062bad4     cl_scrn.obj
 0003:00002ae4       ??_C@_0M@GMACCADH@graphheight?$AA@ 0062bae4     cl_scrn.obj
 0003:00002af4       ??_C@_02MLODCJFF@32?$AA@   0062baf4     cl_scrn.obj
 0003:00002af8       ??_C@_0L@HHCDLFPE@debuggraph?$AA@ 0062baf8     cl_scrn.obj
 0003:00002b08       ??_C@_09GNNLMGGI@timegraph?$AA@ 0062bb08     cl_scrn.obj
 0003:00002b14       ??_C@_0CD@LIPOMDOG@SCR_DrawScreenField?3?5bad?5cls?4sta@ 0062bb14     cl_scrn.obj
 0003:00002b40       ??_C@_0BP@GMBCBCMM@draw?5screen?5without?5UI?5loaded?6?$AA@ 0062bb40     cl_scrn.obj
 0003:00002b68       ??_C@_0CF@GEKBNHMI@SCR_UpdateScreen?3?5recursively?5ca@ 0062bb68     cl_scrn.obj
 0003:00002b94       ??_C@_0BA@JEMDJBMB@servercache?4dat?$AA@ 0062bb94     cl_ui.obj
 0003:00002ba8       ??_C@_0BH@PNNHGENL@Bad?5UI?5system?5trap?3?5?$CFi?$AA@ 0062bba8     cl_ui.obj
 0003:00002bc4       ??_C@_0BG@JBIBCIPI@UI_CIN_PlayCinematic?6?$AA@ 0062bbc4     cl_ui.obj
 0003:00002be0       ??_C@_04HLBMEOMD@addr?$AA@ 0062bbe0     cl_ui.obj
 0003:00002be8       ??_C@_0CK@FNGBPDDH@User?5Interface?5is?5version?5?$CFd?0?5ex@ 0062bbe8     cl_ui.obj
 0003:00002c1c       ??_C@_0BH@ECPNONCF@VM_Create?5on?5UI?5failed?$AA@ 0062bc1c     cl_ui.obj
 0003:00002c38       ??_C@_02OGLLFMLI@ui?$AA@   0062bc38     cl_ui.obj
 0003:00002c3c       ??_C@_05IHIPGGNN@vm_ui?$AA@ 0062bc3c     cl_ui.obj
 0003:00002c44       ??_C@_0BO@HDIOGFHF@count?5?$CK?5sizeof?$CI?5?$CKcm?4shaders?5?$CJ?$AA@ 0062bc44     cm_load.obj
 0003:00002c68       ??_C@_0CM@FLEFNMNE@c?3?2quake3?2luamod_src?2code?2qcommo@ 0062bc68     cm_load.obj
 0003:00002c9c       ??_C@_0BE@ELELOBLD@Map?5with?5no?5shaders?$AA@ 0062bc9c     cm_load.obj
 0003:00002cb4       ??_C@_0CC@IBCMNOCH@CMod_LoadShaders?3?5funny?5lump?5siz@ 0062bcb4     cm_load.obj
 0003:00002cdc       ??_C@_0BO@DLAIFGNA@out?9?$DOleaf?4numLeafSurfaces?5?$CK?54?$AA@ 0062bcdc     cm_load.obj
 0003:00002d00       ??_C@_0BN@GHOIIMKJ@out?9?$DOleaf?4numLeafBrushes?5?$CK?54?$AA@ 0062bd00     cm_load.obj
 0003:00002d24       ??_C@_0BH@CCEOEHI@MAX_SUBMODELS?5exceeded?$AA@ 0062bd24     cm_load.obj
 0003:00002d40       ??_C@_0BO@NEONJKAD@count?5?$CK?5sizeof?$CI?5?$CKcm?4cmodels?5?$CJ?$AA@ 0062bd40     cm_load.obj
 0003:00002d64       ??_C@_0BD@MKELOBFD@Map?5with?5no?5models?$AA@ 0062bd64     cm_load.obj
 0003:00002d7c       ??_C@_0CE@MGJNCBPJ@CMod_LoadSubmodels?3?5funny?5lump?5s@ 0062bd7c     cm_load.obj
 0003:00002da8       ??_C@_0BM@DFNAHEGG@count?5?$CK?5sizeof?$CI?5?$CKcm?4nodes?5?$CJ?$AA@ 0062bda8     cm_load.obj
 0003:00002dcc       ??_C@_0BB@GPGCHEBB@Map?5has?5no?5nodes?$AA@ 0062bdcc     cm_load.obj
 0003:00002de0       ??_C@_0CA@CGOMLOLO@MOD_LoadBmodel?3?5funny?5lump?5size?$AA@ 0062bde0     cm_load.obj
 0003:00002e08       ??_C@_0CE@NNCDCDMG@CMod_LoadBrushes?3?5bad?5shaderNum?3@ 0062be08     cm_load.obj
 0003:00002e34       ??_C@_0DA@FNOFIEDM@?$CI?5BOX_BRUSHES?5?$CL?5count?5?$CJ?5?$CK?5sizeof@ 0062be34     cm_load.obj
 0003:00002e70       ??_C@_0DG@DFFODCB@cm?4numAreas?5?$CK?5cm?4numAreas?5?$CK?5size@ 0062be70     cm_load.obj
 0003:00002eb0       ??_C@_0CC@PFPMDKPC@cm?4numAreas?5?$CK?5sizeof?$CI?5?$CKcm?4areas?5@ 0062beb0     cm_load.obj
 0003:00002ed8       ??_C@_0CM@ILOCJOMC@?$CI?5BOX_LEAFS?5?$CL?5count?5?$CJ?5?$CK?5sizeof?$CI?5@ 0062bed8     cm_load.obj
 0003:00002f0c       ??_C@_0BC@EBABHCIG@Map?5with?5no?5leafs?$AA@ 0062bf0c     cm_load.obj
 0003:00002f28       __real@3ff0000000000000    0062bf28     cm_load.obj
 0003:00002f34       ??_C@_0CO@PHHNKDIO@?$CI?5BOX_PLANES?5?$CL?5count?5?$CJ?5?$CK?5sizeof?$CI@ 0062bf34     cm_load.obj
 0003:00002f6c       ??_C@_0BD@FKOGFNAN@Map?5with?5no?5planes?$AA@ 0062bf6c     cm_load.obj
 0003:00002f84       ??_C@_0DC@NJGGBPAJ@?$CIcount?5?$CL?5BOX_BRUSHES?$CJ?5?$CK?5sizeof?$CI?5@ 0062bf84     cm_load.obj
 0003:00002fc0       ??_C@_0CD@GIJJGEFB@count?5?$CK?5sizeof?$CI?5?$CKcm?4leafsurfaces@ 0062bfc0     cm_load.obj
 0003:00002fec       ??_C@_0CH@MJKOBAAK@CMod_LoadBrushSides?3?5bad?5shaderN@ 0062bfec     cm_load.obj
 0003:0000301c       ??_C@_0DB@FCHCOBNC@?$CI?5BOX_SIDES?5?$CL?5count?5?$CJ?5?$CK?5sizeof?$CI?5@ 0062c01c     cm_load.obj
 0003:00003058       ??_C@_0L@HADKEJID@l?9?$DOfilelen?$AA@ 0062c058     cm_load.obj
 0003:00003068       ??_C@_03BKCJCHLK@len?$AA@  0062c068     cm_load.obj
 0003:0000306c       ??_C@_0BA@OBNKAALD@cm?4clusterBytes?$AA@ 0062c06c     cm_load.obj
 0003:00003080       ??_C@_0BL@GCIBIODK@ParseMesh?3?5MAX_PATCH_VERTS?$AA@ 0062c080     cm_load.obj
 0003:000030a0       ??_C@_0BB@ELDBGPIC@sizeof?$CI?5?$CKpatch?5?$CJ?$AA@ 0062c0a0     cm_load.obj
 0003:000030b4       ??_C@_0CK@KBOCBBIG@cm?4numSurfaces?5?$CK?5sizeof?$CI?5cm?4surf@ 0062c0b4     cm_load.obj
 0003:000030e8       ??_C@_0DK@KJOJIHED@CM_LoadMap?3?5?$CFs?5has?5wrong?5version@ 0062c0e8     cm_load.obj
 0003:00003130       ??_C@_0BB@OEPBHON@Couldn?8t?5load?5?$CFs?$AA@ 0062c130     cm_load.obj
 0003:00003144       ??_C@_0BG@JGBNEMJA@sizeof?$CI?5?$CKcm?4cmodels?5?$CJ?$AA@ 0062c144     cm_load.obj
 0003:00003160       ??_C@_0BG@FOHJEOAK@CM_LoadMap?$CI?5?$CFs?0?5?$CFi?5?$CJ?6?$AA@ 0062c160     cm_load.obj
 0003:0000317c       ??_C@_0BD@GHKOGBLC@cm_playerCurveClip?$AA@ 0062c17c     cm_load.obj
 0003:00003194       ??_C@_0M@DMJHPFDE@cm_noCurves?$AA@ 0062c194     cm_load.obj
 0003:000031a4       ??_C@_0L@GKMKNHLN@cm_noAreas?$AA@ 0062c1a4     cm_load.obj
 0003:000031b4       ??_C@_0BG@KOPIJPGC@CM_LoadMap?3?5NULL?5name?$AA@ 0062c1b4     cm_load.obj
 0003:000031d0       ??_C@_0CO@INDKCALG@CM_ClipHandleToModel?3?5bad?5handle@ 0062c1d0     cm_load.obj
 0003:00003208       ??_C@_0CE@IDDBKAAE@CM_ClipHandleToModel?3?5bad?5handle@ 0062c208     cm_load.obj
 0003:00003234       ??_C@_0BL@CFOECHKA@CM_InlineModel?3?5bad?5number?$AA@ 0062c234     cm_load.obj
 0003:00003254       ??_C@_0BL@NKFJNPCM@CM_LeafCluster?3?5bad?5number?$AA@ 0062c254     cm_load.obj
 0003:00003274       ??_C@_0BI@LLPODCBJ@CM_LeafArea?3?5bad?5number?$AA@ 0062c274     cm_load.obj
 0003:00003290       __real@3f947ae147ae147b    0062c290     cm_patch.obj
 0003:000032a0       __real@3f1a36e2eb1c432d    0062c2a0     cm_patch.obj
 0003:000032ac       __real@bf800000            0062c2ac     cm_patch.obj
 0003:000032b0       ??_C@_0BB@JNELFKGE@MAX_PATCH_PLANES?$AA@ 0062c2b0     cm_patch.obj
 0003:000032c4       ??_C@_0CN@BPJNCPGM@WARNING?3?5CM_AddFacetBevels?4?4?4?5in@ 0062c2c4     cm_patch.obj
 0003:000032fc       ??_C@_0CD@OEGHCJEG@WARNING?3?5bevel?5plane?5already?5use@ 0062c2fc     cm_patch.obj
 0003:00003328       __real@3fb999999999999a    0062c328     cm_patch.obj
 0003:00003334       ??_C@_0BI@JFDENLMJ@ERROR?3?5too?5many?5bevels?6?$AA@ 0062c334     cm_patch.obj
 0003:00003350       ??_C@_0O@JMKMDBI@sizeof?$CI?5?$CKpf?5?$CJ?$AA@ 0062c350     cm_patch.obj
 0003:00003360       ??_C@_0CN@JDBIGCAG@c?3?2quake3?2luamod_src?2code?2qcommo@ 0062c360     cm_patch.obj
 0003:00003398       ??_C@_0DC@BHAKBNNN@CM_GeneratePatchFacets?3?5source?5i@ 0062c398     cm_patch.obj
 0003:000033d8       ??_C@_0EE@IBFPNDNH@CM_GeneratePatchFacets?3?5even?5siz@ 0062c3d8     cm_patch.obj
 0003:0000342c       ??_C@_0DF@ODLAAPCB@CM_GeneratePatchFacets?3?5bad?5para@ 0062c42c     cm_patch.obj
 0003:00003470       __real@bfb999999999999a    0062c470     cm_patch.obj
 0003:0000347c       ??_C@_0CC@GIMHNJMA@numPlanes?5?$CK?5sizeof?$CI?5?$CKpf?9?$DOplanes?5@ 0062c47c     cm_patch.obj
 0003:000034a4       ??_C@_0CC@EIPNMLHO@numFacets?5?$CK?5sizeof?$CI?5?$CKpf?9?$DOfacets?5@ 0062c4a4     cm_patch.obj
 0003:000034cc       ??_C@_0L@BHDFOPIG@MAX_FACETS?$AA@ 0062c4cc     cm_patch.obj
 0003:000034dc       ??_C@_0BH@LLNEMILC@CM_EdgePlaneNum?3?5bad?5k?$AA@ 0062c4dc     cm_patch.obj
 0003:000034f8       __real@40800000            0062c4f8     cm_patch.obj
 0003:000034fc       ??_C@_0CE@NJNBHFJK@WARNING?3?5CM_GridPlane?5unresolvab@ 0062c4fc     cm_patch.obj
 0003:00003528       ??_C@_0DA@PCDKAIPH@WARNING?3?5CM_SetBorderInward?3?5mix@ 0062c528     cm_patch.obj
 0003:00003564       ??_C@_0CC@BGGAAOHM@CM_SetBorderInward?3?5bad?5paramete@ 0062c564     cm_patch.obj
 0003:0000358c       __real@c77fff00            0062c58c     cm_patch.obj
 0003:00003590       __real@477fff00            0062c590     cm_patch.obj
 0003:00003598       __real@3fc0000000000000    0062c598     cm_patch.obj
 0003:000035a4       ??_C@_0BF@BAKLCMON@r_debugSurfaceUpdate?$AA@ 0062c5a4     cm_patch.obj
 0003:000035c0       ??_C@_0CH@BLOEEIKO@winding?5chopped?5away?5by?5border?5p@ 0062c5c0     cm_patch.obj
 0003:000035f0       ??_C@_0N@JBOPDDFG@cm_debugSize?$AA@ 0062c5f0     cm_patch.obj
 0003:00003600       ??_C@_01FDFGLJHB@2?$AA@    0062c600     cm_patch.obj
 0003:00003604       ??_C@_0P@ENOIJBKF@r_debugSurface?$AA@ 0062c604     cm_patch.obj
 0003:00003618       ??_C@_0BH@LNMPEGNH@?$CI?$CF5?41f?0?5?$CF5?41f?0?5?$CF5?41f?$CJ?6?$AA@ 0062c618     cm_polylib.obj
 0003:00003634       ??_C@_01LKDEMHDF@s?$AA@    0062c634     cm_polylib.obj
 0003:00003638       ??_C@_0CP@OECJPEMC@c?3?2quake3?2luamod_src?2code?2qcommo@ 0062c638     cm_polylib.obj
 0003:00003670       ??_C@_0CD@BOFJFDD@FreeWinding?3?5freed?5a?5freed?5windi@ 0062c670     cm_polylib.obj
 0003:000036a0       __real@3feff7ced916872b    0062c6a0     cm_polylib.obj
 0003:000036ac       ??_C@_0CD@BHBKGNIF@BaseWindingForPlane?3?5no?5axis?5fou@ 0062c6ac     cm_polylib.obj
 0003:000036d8       ??_C@_0CD@PEDPMDOJ@ClipWinding?3?5MAX_POINTS_ON_WINDI@ 0062c6d8     cm_polylib.obj
 0003:00003704       ??_C@_0CG@OLJCNKCC@ClipWinding?3?5points?5exceeded?5est@ 0062c704     cm_polylib.obj
 0003:00003734       ??_C@_0BJ@OGJJAGOO@CheckWinding?3?5non?9convex?$AA@ 0062c734     cm_polylib.obj
 0003:00003754       ??_C@_0BO@BKAOIPNM@CheckWinding?3?5degenerate?5edge?$AA@ 0062c754     cm_polylib.obj
 0003:00003778       ??_C@_0BO@IFHIHAOC@CheckWinding?3?5point?5off?5plane?$AA@ 0062c778     cm_polylib.obj
 0003:0000379c       __real@3dcccccd            0062c79c     cm_polylib.obj
 0003:000037a0       __real@bdcccccd            0062c7a0     cm_polylib.obj
 0003:000037a4       ??_C@_0BL@MEPEMAFE@CheckFace?3?5BUGUS_RANGE?3?5?$CFf?$AA@ 0062c7a4     cm_polylib.obj
 0003:000037c4       ??_C@_0BG@EFPIHBAE@CheckWinding?3?5?$CFf?5area?$AA@ 0062c7c4     cm_polylib.obj
 0003:000037e0       ??_C@_0BI@CIEPJPFG@CheckWinding?3?5?$CFi?5points?$AA@ 0062c7e0     cm_polylib.obj
 0003:000037fc       ??_C@_0BH@BFMDHBGF@FloodArea_r?3?5reflooded?$AA@ 0062c7fc     cm_test.obj
 0003:00003818       ??_C@_0DD@NONPJOAP@CM_AdjustAreaPortalState?3?5negati@ 0062c818     cm_test.obj
 0003:00003858       ??_C@_0CK@BFFNFBLN@CM_ChangeAreaPortalState?3?5bad?5ar@ 0062c858     cm_test.obj
 0003:0000388c       ??_C@_0BE@NBHJNIOB@area?5?$DO?$DN?5cm?4numAreas?$AA@ 0062c88c     cm_test.obj
 0003:000038a4       __real@3f000000            0062c8a4     cm_trace.obj
 0003:000038a8       ??_C@_0GF@KGDDLEEP@tw?4trace?4allsolid?5?$HM?$HM?5tw?4trace?4fr@ 0062c8a8     cm_trace.obj
 0003:00003924       ??_C@_0CN@OABFKBFK@c?3?2quake3?2luamod_src?2code?2qcommo@ 0062c924     cm_trace.obj
 0003:00003960       __real@3fefff2e48e8a71e    0062c960     cm_trace.obj
 0003:0000396c       ??_C@_0BI@JOMBKBLK@Cbuf_AddText?3?5overflow?6?$AA@ 0062c96c     cmd.obj
 0003:00003988       ??_C@_0BM@KMPIOOIF@Cbuf_InsertText?5overflowed?6?$AA@ 0062c988     cmd.obj
 0003:000039ac       ??_C@_0CA@HHKKPMIM@Cbuf_ExecuteText?3?5bad?5exec_when?$AA@ 0062c9ac     cmd.obj
 0003:000039d4       ??_C@_0M@NJLDBOCK@execing?5?$CFs?6?$AA@ 0062c9d4     cmd.obj
 0003:000039e4       ??_C@_0BC@EKILBLKK@couldn?8t?5exec?5?$CFs?6?$AA@ 0062c9e4     cmd.obj
 0003:000039fc       ??_C@_04IFJILJI@?4cfg?$AA@ 0062c9fc     cmd.obj
 0003:00003a04       ??_C@_0CJ@HNMBJIBF@exec?5?$DMfilename?$DO?5?3?5execute?5a?5scri@ 0062ca04     cmd.obj
 0003:00003a38       ??_C@_0DC@EJOKMNAB@vstr?5?$DMvariablename?$DO?5?3?5execute?5a?5@ 0062ca38     cmd.obj
 0003:00003a74       ??_C@_03IKGEINEE@?$CFs?5?$AA@ 0062ca74     cmd.obj
 0003:00003a78       ??_C@_0BH@GPJDCFFC@sizeof?$CIcmd_function_t?$CJ?$AA@ 0062ca78     cmd.obj
 0003:00003a94       ??_C@_0CI@NPJIAFDD@c?3?2quake3?2luamod_src?2code?2qcommo@ 0062ca94     cmd.obj
 0003:00003ac4       ??_C@_0CE@BLDHFDBK@Cmd_AddCommand?3?5?$CFs?5already?5defin@ 0062cac4     cmd.obj
 0003:00003af0       ??_C@_0N@IIIOLKJI@?$CFi?5commands?6?$AA@ 0062caf0     cmd.obj
 0003:00003b00       ??_C@_04PNOAOIAG@wait?$AA@ 0062cb00     cmd.obj
 0003:00003b08       ??_C@_04HIDEMJAH@vstr?$AA@ 0062cb08     cmd.obj
 0003:00003b10       ??_C@_04MGEIEJAD@exec?$AA@ 0062cb10     cmd.obj
 0003:00003b18       ??_C@_07LKLFKPJJ@cmdlist?$AA@ 0062cb18     cmd.obj
 0003:00003b24       ??_C@_0BG@HNINGLEK@logfile?5opened?5on?5?$CFs?6?$AA@ 0062cb24     common.obj
 0003:00003b40       ??_C@_0N@HGNLKJGF@qconsole?4log?$AA@ 0062cb40     common.obj
 0003:00003b50       ??_C@_0BK@MPNLHLAM@Server?5fatal?5crashed?3?5?$CFs?6?$AA@ 0062cb50     common.obj
 0003:00003b70       ??_C@_0BH@PKJLOEHK@Server?5didn?8t?5have?5CD?6?$AA@ 0062cb70     common.obj
 0003:00003b8c       ??_C@_0BE@FIJAKBIE@Server?5crashed?3?5?$CFs?6?$AA@ 0062cb8c     common.obj
 0003:00003ba4       ??_C@_0DF@NMNFBMEP@?$CK?$CK?$CK?$CK?$CK?$CK?$CK?$CK?$CK?$CK?$CK?$CK?$CK?$CK?$CK?$CK?$CK?$CK?$CK?$CK?6ERROR?3?5?$CFs?6?$CK@ 0062cba4     common.obj
 0003:00003be4       ??_C@_0BK@DDHCKPII@recursive?5error?5after?3?5?$CFs?$AA@ 0062cbe4     common.obj
 0003:00003c04       ??_C@_0N@GPGLOFGG@cvar_restart?$AA@ 0062cc04     common.obj
 0003:00003c14       ??_C@_04FAOFCKOL@safe?$AA@ 0062cc14     common.obj
 0003:00003c1c       ??_C@_03KCHOJKKI@set?$AA@  0062cc1c     common.obj
 0003:00003c20       ??_C@_0P@JAPNKEH@MISSING?5VALUE?6?$AA@ 0062cc20     common.obj
 0003:00003c34       ??_C@_0CE@FGOINGFL@Z_Free?3?5memory?5block?5wrote?5past?5@ 0062cc34     common.obj
 0003:00003c60       ??_C@_0BO@KPDAKNIP@Z_Free?3?5freed?5a?5freed?5pointer?$AA@ 0062cc60     common.obj
 0003:00003c84       ??_C@_0CH@OJFIIOIA@Z_Free?3?5freed?5a?5pointer?5without?5@ 0062cc84     common.obj
 0003:00003cb4       ??_C@_0BF@IBBHAAHI@Z_Free?3?5NULL?5pointer?$AA@ 0062ccb4     common.obj
 0003:00003cd0       ??_C@_0DM@CJFCFDMA@Z_Malloc?3?5failed?5on?5allocation?5o@ 0062ccd0     common.obj
 0003:00003d18       ??_C@_04GHJNJNPO@main?$AA@ 0062cd18     common.obj
 0003:00003d20       ??_C@_05KJDGBEEG@small?$AA@ 0062cd20     common.obj
 0003:00003d28       ??_C@_0CC@LIMDBBOP@Z_TagMalloc?3?5tried?5to?5use?5a?50?5ta@ 0062cd28     common.obj
 0003:00003d50       ??_C@_0CK@MHBJLLKL@Z_CheckHeap?3?5two?5consecutive?5fre@ 0062cd50     common.obj
 0003:00003d84       ??_C@_0DH@DHOAKNHO@Z_CheckHeap?3?5next?5block?5doesn?8t?5@ 0062cd84     common.obj
 0003:00003dc8       ??_C@_0DH@PDLFHKNN@Z_CheckHeap?3?5block?5size?5does?5not@ 0062cdc8     common.obj
 0003:00003e0c       ??_C@_0BI@MAFPOHOH@?$CFd?5?$CFs?5memory?5overhead?$AN?6?$AA@ 0062ce0c     common.obj
 0003:00003e28       ??_C@_0BM@BAHOBDOG@?$CFd?5?$CFs?5memory?5in?5?$CFd?5blocks?$AN?6?$AA@ 0062ce28     common.obj
 0003:00003e4c       ??_C@_0CF@PJBDDOGL@size?5?$DN?5?$CF8d?3?5?$CFs?0?5line?3?5?$CFd?5?$CI?$CFs?$CJ?5?$FL?$CF@ 0062ce4c     common.obj
 0003:00003e78       ??_C@_0CP@MANOLJKG@?$AN?6?$DN?$DN?$DN?$DN?$DN?$DN?$DN?$DN?$DN?$DN?$DN?$DN?$DN?$DN?$DN?$DN?$AN?6?$CFs?5log?$AN?6?$DN?$DN?$DN?$DN@ 0062ce78     common.obj
 0003:00003eb0       ??_C@_05GCKAPDAI@SMALL?$AA@ 0062ceb0     common.obj
 0003:00003eb8       ??_C@_04KLKHHPIG@MAIN?$AA@ 0062ceb8     common.obj
 0003:00003ec0       ??_C@_0N@LECNMEFA@strlen?$CIin?$CJ?$CL1?$AA@ 0062cec0     common.obj
 0003:00003ed0       ??_C@_0CL@JJPFLAPG@c?3?2quake3?2luamod_src?2code?2qcommo@ 0062ced0     common.obj
 0003:00003f04       ??_C@_0CI@OANEJCJB@?5?5?5?5?5?5?5?5?$CF8i?5bytes?5in?5small?5Zone?5@ 0062cf04     common.obj
 0003:00003f34       ??_C@_0CE@NPDILPEO@?5?5?5?5?5?5?5?5?$CF8i?5bytes?5in?5dynamic?5oth@ 0062cf34     common.obj
 0003:00003f60       ??_C@_0CH@EOLLDOAN@?5?5?5?5?5?5?5?5?$CF8i?5bytes?5in?5dynamic?5ren@ 0062cf60     common.obj
 0003:00003f90       ??_C@_0CF@CNFAILNA@?5?5?5?5?5?5?5?5?$CF8i?5bytes?5in?5dynamic?5bot@ 0062cf90     common.obj
 0003:00003fbc       ??_C@_0BN@HAFIPPM@?$CF8i?5bytes?5in?5?$CFi?5zone?5blocks?6?$AA@ 0062cfbc     common.obj
 0003:00003fe0       ??_C@_0BG@FENEFIEO@?$CF8i?5unused?5highwater?6?$AA@ 0062cfe0     common.obj
 0003:00003ffc       ??_C@_0BH@CLOMEGOK@?$CF8i?5total?5hunk?5in?5use?6?$AA@ 0062cffc     common.obj
 0003:00004018       ??_C@_0BI@GFEBGNFI@?$CF8i?5high?5tempHighwater?6?$AA@ 0062d018     common.obj
 0003:00004034       ??_C@_0P@PNBADBH@?$CF8i?5high?5temp?6?$AA@ 0062d034     common.obj
 0003:00004048       ??_C@_0BE@HHMLFLFC@?$CF8i?5high?5permanent?6?$AA@ 0062d048     common.obj
 0003:00004060       ??_C@_0P@MGIBPNNM@?$CF8i?5high?5mark?6?$AA@ 0062d060     common.obj
 0003:00004074       ??_C@_0BH@FCECDNPG@?$CF8i?5low?5tempHighwater?6?$AA@ 0062d074     common.obj
 0003:00004090       ??_C@_0O@IOIEGEPB@?$CF8i?5low?5temp?6?$AA@ 0062d090     common.obj
 0003:000040a0       ??_C@_0BD@DOEBODMG@?$CF8i?5low?5permanent?6?$AA@ 0062d0a0     common.obj
 0003:000040b8       ??_C@_0O@EHNEJKDK@?$CF8i?5low?5mark?6?$AA@ 0062d0b8     common.obj
 0003:000040c8       ??_C@_0BG@OCFDAFBB@?$CF8i?5bytes?5total?5zone?6?$AA@ 0062d0c8     common.obj
 0003:000040e4       ??_C@_0BG@IMIDAEKI@?$CF8i?5bytes?5total?5hunk?6?$AA@ 0062d0e4     common.obj
 0003:00004100       ??_C@_0CE@BLFCFJMN@ERROR?3?5two?5consecutive?5free?5bloc@ 0062d100     common.obj
 0003:0000412c       ??_C@_0DB@INBMMEOG@ERROR?3?5next?5block?5doesn?8t?5have?5p@ 0062d12c     common.obj
 0003:00004168       ??_C@_0DB@EJEJBDEF@ERROR?3?5block?5size?5does?5not?5touch@ 0062d168     common.obj
 0003:000041a4       ??_C@_0CB@IHMKPJJG@block?3?$CFp?5?5?5?5size?3?$CF7i?5?5?5?5tag?3?$CF3i?6@ 0062d1a4     common.obj
 0003:000041cc       ??_C@_0BK@CDNNLLKC@Com_TouchMemory?3?5?$CFi?5msec?6?$AA@ 0062d1cc     common.obj
 0003:000041ec       ??_C@_0CO@GEDAJKNP@Small?5zone?5data?5failed?5to?5alloca@ 0062d1ec     common.obj
 0003:00004224       __real@49800000            0062d224     common.obj
 0003:00004228       ??_C@_0CF@OPBLBLPA@Zone?5data?5failed?5to?5allocate?5?$CFi?5@ 0062d228     common.obj
 0003:00004254       ??_C@_0N@MAMMMEDK@com_zoneMegs?$AA@ 0062d254     common.obj
 0003:00004264       ??_C@_02KMALDIDP@16?$AA@   0062d264     common.obj
 0003:00004268       ??_C@_0BB@PCMLDEB@?$CFd?5hunk?5blocks?$AN?6?$AA@ 0062d268     common.obj
 0003:0000427c       ??_C@_0BB@OAKONLKG@?$CFd?5Hunk?5memory?$AN?6?$AA@ 0062d27c     common.obj
 0003:00004290       ??_C@_0CA@DEIGDGFG@size?5?$DN?5?$CF8d?3?5?$CFs?0?5line?3?5?$CFd?5?$CI?$CFs?$CJ?$AN?6?$AA@ 0062d290     common.obj
 0003:000042b8       ??_C@_0DB@BHMHHFJ@?$AN?6?$DN?$DN?$DN?$DN?$DN?$DN?$DN?$DN?$DN?$DN?$DN?$DN?$DN?$DN?$DN?$DN?$AN?6Hunk?5log?$AN?6?$DN?$DN@ 0062d2b8     common.obj
 0003:000042f4       ??_C@_0DH@MKFMPAEL@?$AN?6?$DN?$DN?$DN?$DN?$DN?$DN?$DN?$DN?$DN?$DN?$DN?$DN?$DN?$DN?$DN?$DN?$AN?6Hunk?5Small?5l@ 0062d2f4     common.obj
 0003:00004338       ??_C@_0N@KHAFGFJD@hunksmalllog?$AA@ 0062d338     common.obj
 0003:00004348       ??_C@_07ODFIHFKE@hunklog?$AA@ 0062d348     common.obj
 0003:00004354       ??_C@_07KBFIDOBD@zonelog?$AA@ 0062d354     common.obj
 0003:00004360       ??_C@_07FNDDLPMM@meminfo?$AA@ 0062d360     common.obj
 0003:0000436c       ??_C@_0CF@BDKJHKGO@Hunk?5data?5failed?5to?5allocate?5?$CFi?5@ 0062d36c     common.obj
 0003:00004398       ??_C@_0DB@DJODFHPN@Minimum?5com_hunkMegs?5is?5?$CFi?0?5allo@ 0062d398     common.obj
 0003:000043d8       ??_C@_0EI@EOGOECDI@Minimum?5com_hunkMegs?5for?5a?5dedic@ 0062d3d8     common.obj
 0003:00004430       ??_C@_0N@JFILOCFO@com_hunkMegs?$AA@ 0062d430     common.obj
 0003:00004440       ??_C@_02KLACJAOD@56?$AA@   0062d440     common.obj
 0003:00004444       ??_C@_0DM@JGPFFDMA@Hunk?5initialization?5failed?4?5File@ 0062d444     common.obj
 0003:0000448c       ??_C@_0BP@KPGLMOBC@Hunk_Clear?3?5reset?5the?5hunk?5ok?6?$AA@ 0062d48c     common.obj
 0003:000044b4       ??_C@_0BI@DFDJEDO@Hunk_Alloc?5failed?5on?5?$CFi?$AA@ 0062d4b4     common.obj
 0003:000044d0       ??_C@_0CP@BHLCFLCK@Hunk_Alloc?3?5Hunk?5memory?5system?5n@ 0062d4d0     common.obj
 0003:00004508       ??_C@_0CG@IDCIPPIH@Hunk_AllocateTempMemory?3?5failed?5@ 0062d508     common.obj
 0003:00004538       ??_C@_0CK@KPLCADKN@Hunk_FreeTempMemory?3?5not?5the?5fin@ 0062d538     common.obj
 0003:0000456c       ??_C@_0BP@DFPHFPJG@Hunk_FreeTempMemory?3?5bad?5magic?$AA@ 0062d56c     common.obj
 0003:00004594       ??_C@_0BN@MJLDDPNI@Couldn?8t?5open?5journal?5files?6?$AA@ 0062d594     common.obj
 0003:000045b8       ??_C@_0M@COLEEONP@com_journal?$AA@ 0062d5b8     common.obj
 0003:000045c8       ??_C@_0BM@POMPJIOA@Replaying?5journaled?5events?6?$AA@ 0062d5c8     common.obj
 0003:000045ec       ??_C@_0BA@OJDELHBG@journaldata?4dat?$AA@ 0062d5ec     common.obj
 0003:00004600       ??_C@_0M@BEDDKMKF@journal?4dat?$AA@ 0062d600     common.obj
 0003:00004610       ??_C@_0BD@MBEKCKFD@Journaling?5events?6?$AA@ 0062d610     common.obj
 0003:00004628       ??_C@_07CFFBIKLI@journal?$AA@ 0062d628     common.obj
 0003:00004634       ??_C@_0BO@GBMLCFPO@Error?5writing?5to?5journal?5file?$AA@ 0062d634     common.obj
 0003:00004658       ??_C@_0P@PLFFBPED@ev?4evPtrLength?$AA@ 0062d658     common.obj
 0003:0000466c       ??_C@_0CA@BFODPKNC@Error?5reading?5from?5journal?5file?$AA@ 0062d66c     common.obj
 0003:00004694       ??_C@_0CB@OJGNBCMC@WARNING?3?5Com_PushEvent?5overflow?6@ 0062d694     common.obj
 0003:000046bc       ??_C@_0BJ@GPNJLJPC@SV_PacketEvent?5time?3?5?$CFi?6?$AA@ 0062d6bc     common.obj
 0003:000046dc       ??_C@_0CA@ENDIPNNF@Com_EventLoop?3?5oversize?5packet?6?$AA@ 0062d6dc     common.obj
 0003:00004704       ??_C@_0CB@HFEJCBKA@Com_EventLoop?3?5bad?5event?5type?5?$CFi@ 0062d704     common.obj
 0003:0000472c       ??_C@_0BB@FHAPCDKO@?5?5?5?5?5?5?5?5?5?5?5?5?5?5?5?5?$AA@ 0062d72c     common.obj
 0003:00004740       ??_C@_08LAIDFEPP@?$CFs?1q3key?$AA@ 0062d740     common.obj
 0003:0000474c       ??_C@_0CI@HOGAMGJF@?9?9?9?5Common?5Initialization?5Comple@ 0062d74c     common.obj
 0003:0000477c       ??_C@_0BE@DIBMBDCC@cinematic?5intro?4RoQ?$AA@ 0062d77c     common.obj
 0003:00004794       ??_C@_0BG@DLPIPEDG@cinematic?5idlogo?4RoQ?6?$AA@ 0062d794     common.obj
 0003:000047b0       ??_C@_08EPEHIMMI@?$CFs?5?$CFs?5?$CFs?$AA@ 0062d7b0     common.obj
 0003:000047bc       ??_C@_0M@HMAJCOKO@writeconfig?$AA@ 0062d7bc     common.obj
 0003:000047cc       ??_C@_0O@OGEFLAOE@changeVectors?$AA@ 0062d7cc     common.obj
 0003:000047dc       ??_C@_04KNNLNNGO@quit?$AA@ 0062d7dc     common.obj
 0003:000047e4       ??_C@_06NANJHIPM@freeze?$AA@ 0062d7e4     common.obj
 0003:000047ec       ??_C@_05DLEGDHMH@crash?$AA@ 0062d7ec     common.obj
 0003:000047f4       ??_C@_05KKCIMGE@error?$AA@ 0062d7f4     common.obj
 0003:000047fc       ??_C@_0BF@BLLHOFDD@com_noErrorInterrupt?$AA@ 0062d7fc     common.obj
 0003:00004818       ??_C@_0BA@PBHFIIBP@com_introplayed?$AA@ 0062d818     common.obj
 0003:0000482c       ??_C@_0BA@MOHNLIKA@com_buildScript?$AA@ 0062d82c     common.obj
 0003:00004840       ??_C@_0L@MPAGGMDN@sv_running?$AA@ 0062d840     common.obj
 0003:00004850       ??_C@_09CGEBDJFG@sv_paused?$AA@ 0062d850     common.obj
 0003:0000485c       ??_C@_0L@JMMMBHPM@com_speeds?$AA@ 0062d85c     common.obj
 0003:0000486c       ??_C@_07OFMACKEH@viewlog?$AA@ 0062d86c     common.obj
 0003:00004878       ??_C@_0M@FAMBDMMF@com_dropsim?$AA@ 0062d878     common.obj
 0003:00004888       ??_C@_0O@LCCBKALF@com_showtrace?$AA@ 0062d888     common.obj
 0003:00004898       ??_C@_09BHOLEJHN@fixedtime?$AA@ 0062d898     common.obj
 0003:000048a4       ??_C@_09IIOBMIO@timescale?$AA@ 0062d8a4     common.obj
 0003:000048b0       ??_C@_07HMINABEO@logfile?$AA@ 0062d8b0     common.obj
 0003:000048bc       ??_C@_09DKNLLEN@com_blood?$AA@ 0062d8bc     common.obj
 0003:000048c8       ??_C@_0L@PCENNGCA@com_maxfps?$AA@ 0062d8c8     common.obj
 0003:000048d8       ??_C@_02IIPHFAHD@85?$AA@   0062d8d8     common.obj
 0003:000048dc       ??_C@_09BJOAODLF@dedicated?$AA@ 0062d8dc     common.obj
 0003:000048e8       ??_C@_0BD@PHEIHMPD@exec?5autoexec?4cfg?6?$AA@ 0062d8e8     common.obj
 0003:00004900       ??_C@_0BD@MLBAFJNC@exec?5q3config?4cfg?6?$AA@ 0062d900     common.obj
 0003:00004918       ??_C@_0BC@FDOILEKD@exec?5default?4cfg?6?$AA@ 0062d918     common.obj
 0003:00004930       ??_C@_09DNECJBKD@developer?$AA@ 0062d930     common.obj
 0003:0000493c       ??_C@_0BM@JMOBJEDO@Error?5during?5initialization?$AA@ 0062d93c     common.obj
 0003:00004960       ??_C@_09GPBPOFIE@?$CFs?5?$CFs?5?$CFs?6?$AA@ 0062d960     common.obj
 0003:0000496c       ??_C@_0O@BCEKEKOP@win?9x86?9debug?$AA@ 0062d96c     common.obj
 0003:0000497c       ??_C@_0M@PDCPACJF@Jul?519?52008?$AA@ 0062d97c     common.obj
 0003:0000498c       ??_C@_0BE@PFFNONJO@Testing?5fatal?5error?$AA@ 0062d98c     common.obj
 0003:000049a4       ??_C@_0BD@DDPCEAL@Testing?5drop?5error?$AA@ 0062d9a4     common.obj
 0003:000049bc       ??_C@_0BC@DJHDECHL@freeze?5?$DMseconds?$DO?6?$AA@ 0062d9bc     common.obj
 0003:000049d4       ??_C@_0CG@FPKFBBME@?1?1?5generated?5by?5quake?0?5do?5not?5mo@ 0062d9d4     common.obj
 0003:00004a04       ??_C@_0BE@JKCFDMJK@Couldn?8t?5write?5?$CFs?4?6?$AA@ 0062da04     common.obj
 0003:00004a1c       ??_C@_06KOMAFLML@baseq3?$AA@ 0062da1c     common.obj
 0003:00004a24       ??_C@_0N@KFPKBBOI@q3config?4cfg?$AA@ 0062da24     common.obj
 0003:00004a38       ??_C@_0EM@CPHPFGMM@?1?1?5id?5Software?5and?5Activision?5wi@ 0062da38     common.obj
 0003:00004a94       ??_C@_0CG@ILMLHNJJ@?1?1?5Do?5not?5give?5this?5file?5to?5ANYO@ 0062da94     common.obj
 0003:00004ac4       ??_C@_0CI@PFGDDHBG@?6?1?1?5generated?5by?5quake?0?5do?5not?5m@ 0062dac4     common.obj
 0003:00004af4       ??_C@_0N@FMLDMECN@Writing?5?$CFs?4?6?$AA@ 0062daf4     common.obj
 0003:00004b04       ??_C@_0BP@JAAMJFGO@Usage?3?5writeconfig?5?$DMfilename?$DO?6?$AA@ 0062db04     common.obj
 0003:00004b2c       ??_C@_0CD@IHBFIHBI@Hitch?5warning?3?5?$CFi?5msec?5frame?5tim@ 0062db2c     common.obj
 0003:00004b58       ??_C@_0CC@HBLLGKBA@?$CF4i?5traces?5?5?$CI?$CFib?5?$CFip?$CJ?5?$CF4i?5points@ 0062db58     common.obj
 0003:00004b80       ??_C@_0DM@DEOKJHOL@frame?3?$CFi?5all?3?$CF3i?5sv?3?$CF3i?5ev?3?$CF3i?5c@ 0062db80     common.obj
 0003:00004bc8       __real@c0490fdb            0062dbc8     common.obj
 0003:00004bcc       __real@40490fdb            0062dbcc     common.obj
 0003:00004bd0       ??_C@_07FBMPDAOB@?5?5?5?5?$CFs?6?$AA@ 0062dbd0     common.obj
 0003:00004bdc       ??_C@_09OBPPEEI@MAX_CVARS?$AA@ 0062dbdc     cvar.obj
 0003:00004be8       ??_C@_0DI@GOCCEMPD@Warning?3?5cvar?5?$CC?$CFs?$CC?5given?5initial@ 0062dbe8     cvar.obj
 0003:00004c2c       ??_C@_07LGPHKPBC@BADNAME?$AA@ 0062dc2c     cvar.obj
 0003:00004c38       ??_C@_0BO@HIEMFHPL@invalid?5cvar?5name?5string?3?5?$CFs?6?$AA@ 0062dc38     cvar.obj
 0003:00004c5c       ??_C@_0BJ@EGPKCOBM@Cvar_Get?3?5NULL?5parameter?$AA@ 0062dc5c     cvar.obj
 0003:00004c7c       ??_C@_0BI@NNDBDFOI@?$CFs?5is?5cheat?5protected?4?6?$AA@ 0062dc7c     cvar.obj
 0003:00004c98       ??_C@_0CF@MMBKLCAG@?$CFs?5will?5be?5changed?5upon?5restarti@ 0062dc98     cvar.obj
 0003:00004cc4       ??_C@_0BI@PGDNNHME@?$CFs?5is?5write?5protected?4?6?$AA@ 0062dcc4     cvar.obj
 0003:00004ce0       ??_C@_0BC@PCJCNELF@?$CFs?5is?5read?5only?4?6?$AA@ 0062dce0     cvar.obj
 0003:00004cf8       ??_C@_0BC@MNGANAJN@Cvar_Set2?3?5?$CFs?5?$CFs?6?$AA@ 0062dcf8     cvar.obj
 0003:00004d10       ??_C@_02NJPGOMH@?$CFf?$AA@ 0062dd10     cvar.obj
 0003:00004d14       ??_C@_0P@OHLLLJFN@latched?3?5?$CC?$CFs?$CC?6?$AA@ 0062dd14     cvar.obj
 0003:00004d28       ??_C@_0BP@BMGCKJHO@?$CC?$CFs?$CC?5is?3?$CC?$CFs?$FO7?$CC?5default?3?$CC?$CFs?$FO7?$CC?6?$AA@ 0062dd28     cvar.obj
 0003:00004d50       ??_C@_0BK@FDJCCMFA@usage?3?5toggle?5?$DMvariable?$DO?6?$AA@ 0062dd50     cvar.obj
 0003:00004d70       ??_C@_0BP@JNHFCPJL@usage?3?5set?5?$DMvariable?$DO?5?$DMvalue?$DO?6?$AA@ 0062dd70     cvar.obj
 0003:00004d98       ??_C@_0CA@BBMGOBNI@usage?3?5setu?5?$DMvariable?$DO?5?$DMvalue?$DO?6?$AA@ 0062dd98     cvar.obj
 0003:00004dc0       ??_C@_0CA@GDDHLLFI@usage?3?5sets?5?$DMvariable?$DO?5?$DMvalue?$DO?6?$AA@ 0062ddc0     cvar.obj
 0003:00004de8       ??_C@_0CA@OEJADIJJ@usage?3?5seta?5?$DMvariable?$DO?5?$DMvalue?$DO?6?$AA@ 0062dde8     cvar.obj
 0003:00004e10       ??_C@_0BJ@HCHIPOJA@usage?3?5reset?5?$DMvariable?$DO?6?$AA@ 0062de10     cvar.obj
 0003:00004e30       ??_C@_0O@IMDAJAHE@seta?5?$CFs?5?$CC?$CFs?$CC?6?$AA@ 0062de30     cvar.obj
 0003:00004e40       ??_C@_08JANFGNJF@cl_cdkey?$AA@ 0062de40     cvar.obj
 0003:00004e4c       ??_C@_0BB@ELMIENAI@?$CFi?5cvar?5indexes?6?$AA@ 0062de4c     cvar.obj
 0003:00004e60       ??_C@_0BB@CNBPFGFL@?6?$CFi?5total?5cvars?6?$AA@ 0062de60     cvar.obj
 0003:00004e74       ??_C@_09INMFINGF@?5?$CFs?5?$CC?$CFs?$CC?6?$AA@ 0062de74     cvar.obj
 0003:00004e80       ??_C@_01GFHCPBMG@C?$AA@    0062de80     cvar.obj
 0003:00004e84       ??_C@_01OCOKONAJ@L?$AA@    0062de84     cvar.obj
 0003:00004e88       ??_C@_01FHEEJDEE@A?$AA@    0062de88     cvar.obj
 0003:00004e8c       ??_C@_01JPJNBJEM@I?$AA@    0062de8c     cvar.obj
 0003:00004e90       ??_C@_01DGKLNCNG@R?$AA@    0062de90     cvar.obj
 0003:00004e94       ??_C@_01HJOKEEBB@U?$AA@    0062de94     cvar.obj
 0003:00004e98       ??_C@_01CPLAODJH@S?$AA@    0062de98     cvar.obj
 0003:00004e9c       ??_C@_0DM@CADHDAHP@Cvar_Update?3?5src?5?$CFs?5length?5?$CFd?5ex@ 0062de9c     cvar.obj
 0003:00004ee4       ??_C@_0CB@LCNMLEBG@Cvar_Update?3?5handle?5out?5of?5range@ 0062dee4     cvar.obj
 0003:00004f0c       ??_C@_06FMFKLOKO@vmCvar?$AA@ 0062df0c     cvar.obj
 0003:00004f14       ??_C@_0CJ@KJLHBCNG@c?3?2quake3?2luamod_src?2code?2qcommo@ 0062df14     cvar.obj
 0003:00004f48       ??_C@_08HKAEGNIC@cvarlist?$AA@ 0062df48     cvar.obj
 0003:00004f54       ??_C@_05CFMALAOA@reset?$AA@ 0062df54     cvar.obj
 0003:00004f5c       ??_C@_04KEEJAPKG@seta?$AA@ 0062df5c     cvar.obj
 0003:00004f64       ??_C@_04IKOHNIPD@setu?$AA@ 0062df64     cvar.obj
 0003:00004f6c       ??_C@_04NMLNHPHF@sets?$AA@ 0062df6c     cvar.obj
 0003:00004f74       ??_C@_06FHLCKAHH@toggle?$AA@ 0062df74     cvar.obj
 0003:00004f7c       ??_C@_0BH@ENNDMPLD@FS_FileForHandle?3?5NULL?$AA@ 0062df7c     files.obj
 0003:00004f98       ??_C@_0CN@FJPHMIMA@FS_FileForHandle?3?5can?8t?5get?5FILE@ 0062df98     files.obj
 0003:00004fd0       ??_C@_0CA@KPOIDJBD@FS_FileForHandle?3?5out?5of?5reange?$AA@ 0062dfd0     files.obj
 0003:00004ff8       ??_C@_04HDOCAJNK@?$CFs?$CFs?$AA@ 0062dff8     files.obj
 0003:00005000       ??_C@_06HALAHGDI@?1?$CFs?1?$CFs?$AA@ 0062e000     files.obj
 0003:00005008       ??_C@_02JDPG@rb?$AA@       0062e008     files.obj
 0003:0000500c       ??_C@_02GMLFBBN@wb?$AA@    0062e00c     files.obj
 0003:00005010       ??_C@_0BA@MLCEENKL@writing?5to?3?5?$CFs?6?$AA@ 0062e010     files.obj
 0003:00005024       ??_C@_0BK@KMAALCKD@FS_SV_FOpenFileWrite?3?5?$CFs?6?$AA@ 0062e024     files.obj
 0003:00005044       ??_C@_0CN@OMHGMFID@Filesystem?5call?5made?5without?5ini@ 0062e044     files.obj
 0003:0000507c       ??_C@_0BM@PCLMEAKM@FS_HandleForFile?3?5none?5free?$AA@ 0062e07c     files.obj
 0003:000050a0       ??_C@_0DA@OPJLIFHH@WARNING?3?5refusing?5to?5create?5rela@ 0062e0a0     files.obj
 0003:000050dc       ??_C@_02MOLJINC@?3?3?$AA@  0062e0dc     files.obj
 0003:000050e0       ??_C@_02DJGKEECL@?4?4?$AA@ 0062e0e0     files.obj
 0003:000050e4       ??_C@_0CG@FLINNLBK@FS_SV_FOpenFileRead?5?$CIfs_cdpath?$CJ?5@ 0062e0e4     files.obj
 0003:00005114       ??_C@_0CH@DIDGHCFB@FS_SV_FOpenFileRead?5?$CIfs_basepath@ 0062e114     files.obj
 0003:00005144       ??_C@_0CH@NKEDPAKN@FS_SV_FOpenFileRead?5?$CIfs_homepath@ 0062e144     files.obj
 0003:00005174       ??_C@_0BJ@HAKJFOOE@FS_SV_Rename?3?5?$CFs?5?9?9?$DO?5?$CFs?6?$AA@ 0062e174     files.obj
 0003:00005194       ??_C@_0BP@DCHMDBJP@Short?5write?5in?5FS_Copyfiles?$CI?$CJ?6?$AA@ 0062e194     files.obj
 0003:000051bc       ??_C@_0BO@PEGACBP@Short?5read?5in?5FS_Copyfiles?$CI?$CJ?6?$AA@ 0062e1bc     files.obj
 0003:000051e0       ??_C@_0BI@CAOFAEDB@Ignoring?5journal?5files?6?$AA@ 0062e1e0     files.obj
 0003:000051fc       ??_C@_0P@KGHBPCIF@copy?5?$CFs?5to?5?$CFs?6?$AA@ 0062e1fc     files.obj
 0003:00005210       ??_C@_0BG@PNPFEECE@FS_Rename?3?5?$CFs?5?9?9?$DO?5?$CFs?6?$AA@ 0062e210     files.obj
 0003:0000522c       ??_C@_0BH@DHOJCMAJ@FS_FOpenFileWrite?3?5?$CFs?6?$AA@ 0062e22c     files.obj
 0003:00005248       ??_C@_02BOGAIONP@ab?$AA@   0062e248     files.obj
 0003:0000524c       ??_C@_0BI@KJCGJHFP@FS_FOpenFileAppend?3?5?$CFs?6?$AA@ 0062e24c     files.obj
 0003:00005268       ??_C@_0P@CJCGDCLK@Can?8t?5find?5?$CFs?6?$AA@ 0062e268     files.obj
 0003:0000527c       ??_C@_0CJ@MGIOFJMI@FS_FOpenFileRead?3?5?$CFs?5?$CIfound?5in?5?8@ 0062e27c     files.obj
 0003:000052b0       ??_C@_04PBCOOEDG@?4dat?$AA@ 0062e2b0     files.obj
 0003:000052b8       ??_C@_05IDJGMGLA@?4game?$AA@ 0062e2b8     files.obj
 0003:000052c0       ??_C@_0CG@BBPIBMKO@FS_FOpenFileRead?3?5?$CFs?5?$CIfound?5in?5?8@ 0062e2c0     files.obj
 0003:000052f0       ??_C@_0BD@NBMLGLPG@Couldn?8t?5reopen?5?$CFs?$AA@ 0062e2f0     files.obj
 0003:00005308       ??_C@_06FIKIFLOA@pd?$CJlqh?$AA@ 0062e308     files.obj
 0003:00005310       ??_C@_09KOGMCLPC@?2?$GAZf?$FO?8jof?$AA@ 0062e310     files.obj
 0003:0000531c       ??_C@_0L@PDOPIANI@dTZT?$GAX?$CBdi?$GA?$AA@ 0062e31c     files.obj
 0003:0000532c       ??_C@_05OMAOFEO@?4menu?$AA@ 0062e32c     files.obj
 0003:00005334       ??_C@_06IPPMLGON@?4arena?$AA@ 0062e334     files.obj
 0003:0000533c       ??_C@_04NONLJGOA@?4bot?$AA@ 0062e33c     files.obj
 0003:00005344       ??_C@_0L@LOIHPJMG@levelshots?$AA@ 0062e344     files.obj
 0003:00005354       ??_C@_07GACINHDJ@?4config?$AA@ 0062e354     files.obj
 0003:00005360       ??_C@_04LCMACLFG@?4txt?$AA@ 0062e360     files.obj
 0003:00005368       ??_C@_07MAFDLGF@?4shader?$AA@ 0062e368     files.obj
 0003:00005374       ??_C@_05DEAEPJBI@q3key?$AA@ 0062e374     files.obj
 0003:0000537c       ??_C@_06KDKPKJKM@?4dm_?$CFd?$AA@ 0062e37c     files.obj
 0003:00005384       ??_C@_0DE@FPPDNFFA@FS_FOpenFileRead?3?5NULL?5?8filename@ 0062e384     files.obj
 0003:000053c4       ??_C@_0BH@JBMACPMK@FS_Read?3?5?91?5bytes?5read?$AA@ 0062e3c4     files.obj
 0003:000053e0       ??_C@_0BM@KBJOLIDM@FS_Write?3?5?91?5bytes?5written?6?$AA@ 0062e3e0     files.obj
 0003:00005404       ??_C@_0BL@MHLILIO@FS_Write?3?50?5bytes?5written?6?$AA@ 0062e404     files.obj
 0003:00005424       ??_C@_0BH@JLADNIGI@Bad?5origin?5in?5FS_Seek?6?$AA@ 0062e424     files.obj
 0003:00005440       ??_C@_0CE@PCHLGHBN@ZIP?5FILE?5FSEEK?5NOT?5YET?5IMPLEMENT@ 0062e440     files.obj
 0003:0000546c       ??_C@_0BN@IBAOHAGH@Writing?5?$CFs?5to?5journal?5file?4?6?$AA@ 0062e46c     files.obj
 0003:00005490       ??_C@_0CF@GJHFIHLC@Writing?5len?5for?5?$CFs?5to?5journal?5fi@ 0062e490     files.obj
 0003:000054bc       ??_C@_0CG@JNPHIOFB@Writing?5zero?5for?5?$CFs?5to?5journal?5f@ 0062e4bc     files.obj
 0003:000054ec       ??_C@_0CB@MAKFKKPM@Read?5from?5journalDataFile?5failed@ 0062e4ec     files.obj
 0003:00005514       ??_C@_0BP@DLEFKJEB@Loading?5?$CFs?5from?5journal?5file?4?6?$AA@ 0062e514     files.obj
 0003:0000553c       ??_C@_0BN@KJKCEPNA@FS_ReadFile?5with?5empty?5name?6?$AA@ 0062e53c     files.obj
 0003:00005560       ??_C@_0BE@HILOFDOP@FS_FreeFile?$CI?5NULL?5?$CJ?$AA@ 0062e560     files.obj
 0003:00005578       ??_C@_0BD@LDIONFIK@Failed?5to?5open?5?$CFs?6?$AA@ 0062e578     files.obj
 0003:00005590       ??_C@_0BN@HEBINHD@FS_WriteFile?3?5NULL?5parameter?$AA@ 0062e590     files.obj
 0003:000055b4       ??_C@_0CF@BCICEKL@?$CI?5nfiles?5?$CL?51?5?$CJ?5?$CK?5sizeof?$CI?5?$CKlistCo@ 0062e5b4     files.obj
 0003:000055e0       ??_C@_0CK@NHMEILHE@c?3?2quake3?2luamod_src?2code?2qcommo@ 0062e5e0     files.obj
 0003:00005614       ??_C@_08GEJGLEOK@$modlist?$AA@ 0062e614     files.obj
 0003:00005620       ??_C@_0BB@NEJIHPJO@?1description?4txt?$AA@ 0062e620     files.obj
 0003:00005634       ??_C@_04JMPKHIOK@?4pk3?$AA@ 0062e634     files.obj
 0003:0000563c       ??_C@_01LFCBOECM@?4?$AA@   0062e63c     files.obj
 0003:00005640       ??_C@_0CG@FHFCLCFD@?$CI?5totalLength?5?$CL?51?5?$CJ?5?$CK?5sizeof?$CI?5ch@ 0062e640     files.obj
 0003:00005670       ??_C@_0BB@DKKMKEBK@?9?9?9?9?9?9?9?9?9?9?9?9?9?9?9?6?$AA@ 0062e670     files.obj
 0003:00005684       ??_C@_0BE@MKJFMONH@Directory?5of?5?$CFs?5?$CFs?6?$AA@ 0062e684     files.obj
 0003:0000569c       ??_C@_0CE@GOHPFEGA@usage?3?5dir?5?$DMdirectory?$DO?5?$FLextensio@ 0062e69c     files.obj
 0003:000056c8       ??_C@_0CJ@INLGDABC@?$CI?5numfiles?5?$CL?51?5?$CJ?5?$CK?5sizeof?$CI?5?$CKsort@ 0062e6c8     files.obj
 0003:000056fc       ??_C@_0BB@EGMCJFKN@?$CFd?5files?5listed?6?$AA@ 0062e6fc     files.obj
 0003:00005710       ??_C@_0BK@BBJDOPOH@example?3?5fdir?5?$CKq3dm?$CK?4bsp?6?$AA@ 0062e710     files.obj
 0003:00005730       ??_C@_0BG@OINMOPNJ@usage?3?5fdir?5?$DMfilter?$DO?6?$AA@ 0062e730     files.obj
 0003:0000574c       ??_C@_0P@HENFNMJG@handle?5?$CFi?3?5?$CFs?6?$AA@ 0062e74c     files.obj
 0003:00005760       ??_C@_06KIFJAIP@?$CFs?1?$CFs?6?$AA@ 0062e760     files.obj
 0003:00005768       ??_C@_0BG@CENCGGPF@?5?5?5?5on?5the?5pure?5list?6?$AA@ 0062e768     files.obj
 0003:00005784       ??_C@_0BK@MCAEBIFK@?5?5?5?5not?5on?5the?5pure?5list?6?$AA@ 0062e784     files.obj
 0003:000057a4       ??_C@_0P@GCFMIPGN@?$CFs?5?$CI?$CFi?5files?$CJ?6?$AA@ 0062e7a4     files.obj
 0003:000057b8       ??_C@_0BG@HPKHMA@Current?5search?5path?3?6?$AA@ 0062e7b8     files.obj
 0003:000057d4       ??_C@_0BJ@GCFEINHC@Usage?3?5touchFile?5?$DMfile?$DO?6?$AA@ 0062e7d4     files.obj
 0003:000057f4       ??_C@_08LGPKPKCN@?$CFs?1pak?$CFd?$AA@ 0062e7f4     files.obj
 0003:00005800       ??_C@_0CJ@MOAKOHNN@?5?$CIlocal?5file?5exists?5with?5wrong?5c@ 0062e800     files.obj
 0003:00005834       ??_C@_0M@KGJNBCOJ@?$CFs?4?$CF08x?4pk3?$AA@ 0062e834     files.obj
 0003:00005844       ??_C@_06NHIHDJNN@?$CFs?4pk3?$AA@ 0062e844     files.obj
 0003:0000584c       ??_C@_01EOFPKCAF@?$EA?$AA@ 0062e84c     files.obj
 0003:00005850       ??_C@_0M@PLGKGDEK@missionpack?$AA@ 0062e850     files.obj
 0003:00005860       ??_C@_09BCJOAAGD@touchFile?$AA@ 0062e860     files.obj
 0003:0000586c       ??_C@_04MBOEABIA@fdir?$AA@ 0062e86c     files.obj
 0003:00005874       ??_C@_03DAPAKLGM@dir?$AA@  0062e874     files.obj
 0003:00005878       ??_C@_04LNEJFJGI@path?$AA@ 0062e878     files.obj
 0003:00005880       ??_C@_0BP@JOGJAID@FS?5search?5reorder?5is?5required?6?$AA@ 0062e880     files.obj
 0003:000058a8       ??_C@_0BN@HAHOMMJP@Connected?5to?5a?5pure?5server?4?6?$AA@ 0062e8a8     files.obj
 0003:000058cc       ??_C@_0BK@EGLLFLGB@Couldn?8t?5load?5default?4cfg?$AA@ 0062e8cc     files.obj
 0003:000058ec       ??_C@_0M@BAINMAIF@default?4cfg?$AA@ 0062e8ec     files.obj
 0003:000058fc       ??_C@_0N@PLNEKBEI@fs_copyfiles?$AA@ 0062e8fc     files.obj
 0003:0000590c       ??_C@_0M@LECGGKKC@fs_homepath?$AA@ 0062e90c     files.obj
 0003:0000591c       ??_C@_0M@DGDBFJN@fs_basepath?$AA@ 0062e91c     files.obj
 0003:0000592c       ??_C@_09CIALLHHK@fs_cdpath?$AA@ 0062e92c     files.obj
 0003:00005938       ??_C@_0BH@ENGIAIMF@?$CFd?5files?5in?5pk3?5files?6?$AA@ 0062e938     files.obj
 0003:00005954       ??_C@_0BI@FLKKINBM@?9?9?9?9?9?9?9?9?9?9?9?9?9?9?9?9?9?9?9?9?9?9?6?$AA@ 0062e954     files.obj
 0003:00005970       ??_C@_0M@HHPKLILN@fs_basegame?$AA@ 0062e970     files.obj
 0003:00005980       ??_C@_08OKNDMBHA@fs_debug?$AA@ 0062e980     files.obj
 0003:0000598c       ??_C@_0BI@LBEJILEG@?9?9?9?9?9?5FS_Startup?5?9?9?9?9?9?6?$AA@ 0062e98c     files.obj
 0003:000059a8       ??_C@_0BH@GAJPAFHB@sizeof?$CI?5?$CKsearch?9?$DOdir?5?$CJ?$AA@ 0062e9a8     files.obj
 0003:000059c4       ??_C@_0BF@NFDBPDKP@sizeof?$CIsearchpath_t?$CJ?$AA@ 0062e9c4     files.obj
 0003:000059e0       ??_C@_0CO@OLGBLONP@sizeof?$CI?5pack_t?5?$CJ?5?$CL?5i?5?$CK?5sizeof?$CIfi@ 0062e9e0     files.obj
 0003:00005a18       ??_C@_0BO@MONMIIK@gi?4number_entry?5?$CK?5sizeof?$CIint?$CJ?$AA@ 0062ea18     files.obj
 0003:00005a3c       ??_C@_0DB@IKDDFEGN@?$CIgi?4number_entry?5?$CK?5sizeof?$CI?5fileI@ 0062ea3c     files.obj
 0003:00005a78       ??_C@_0BH@KPMEDBPE@Corrupted?5pak0?4pk3?3?5?$CFu?$AA@ 0062ea78     files.obj
 0003:00005a94       ??_C@_0CE@KPCDGPCC@?6Running?5in?5restricted?5demo?5mode@ 0062ea94     files.obj
 0003:00005ac0       ??_C@_0BP@LCBBIFIA@Invalid?5product?5identification?$AA@ 0062eac0     files.obj
 0003:00005ae8       ??_C@_0O@PPIKOBGI@productid?4txt?$AA@ 0062eae8     files.obj
 0003:00005af8       ??_C@_0BF@BLDAMEAN@Invalid?5game?5folder?6?$AA@ 0062eaf8     files.obj
 0003:00005b14       ??_C@_0O@KIDPHDKB@fs_gamedirvar?$AA@ 0062eb14     files.obj
 0003:00005b24       ??_C@_0BI@PIKLIGCP@FSH_FOpenFile?3?5bad?5mode?$AA@ 0062eb24     files.obj
 0003:00005b40       ??_C@_0M@LANFJBCD@jumppad_ent?$AA@ 0062eb40     msg.obj
 0003:00005b50       ??_C@_0BA@PEKHLKLH@grapplePoint?$FL2?$FN?$AA@ 0062eb50     msg.obj
 0003:00005b64       ??_C@_0BA@PGOBAEOO@grapplePoint?$FL1?$FN?$AA@ 0062eb64     msg.obj
 0003:00005b78       ??_C@_0BA@PHCDGONJ@grapplePoint?$FL0?$FN?$AA@ 0062eb78     msg.obj
 0003:00005b8c       ??_C@_0O@DMGGNGOM@viewangles?$FL2?$FN?$AA@ 0062eb8c     msg.obj
 0003:00005b9c       ??_C@_0O@FIJGMFDG@eventParms?$FL1?$FN?$AA@ 0062eb9c     msg.obj
 0003:00005bac       ??_C@_0O@FJFEKPAB@eventParms?$FL0?$FN?$AA@ 0062ebac     msg.obj
 0003:00005bbc       ??_C@_0L@OCHPBDAP@torsoTimer?$AA@ 0062ebbc     msg.obj
 0003:00005bcc       ??_C@_0BA@OFFIKLKI@delta_angles?$FL2?$FN?$AA@ 0062ebcc     msg.obj
 0003:00005be0       ??_C@_0BA@OGNMHPMG@delta_angles?$FL0?$FN?$AA@ 0062ebe0     msg.obj
 0003:00005bf4       ??_C@_07HHCKHIKK@pm_type?$AA@ 0062ebf4     msg.obj
 0003:00005c00       ??_C@_0M@JFNAGFPA@damageCount?$AA@ 0062ec00     msg.obj
 0003:00005c10       ??_C@_0M@MJMBEJAO@damagePitch?$AA@ 0062ec10     msg.obj
 0003:00005c20       ??_C@_09DCADJNIO@damageYaw?$AA@ 0062ec20     msg.obj
 0003:00005c2c       ??_C@_0M@HOGACEIB@damageEvent?$AA@ 0062ec2c     msg.obj
 0003:00005c3c       ??_C@_0L@MAFIMFPM@viewheight?$AA@ 0062ec3c     msg.obj
 0003:00005c4c       ??_C@_0BC@GBAGMPPC@externalEventParm?$AA@ 0062ec4c     msg.obj
 0003:00005c64       ??_C@_0BA@OHBOBFPB@delta_angles?$FL1?$FN?$AA@ 0062ec64     msg.obj
 0003:00005c78       ??_C@_05HJCMGBKF@speed?$AA@ 0062ec78     msg.obj
 0003:00005c80       ??_C@_07GFBFDLBM@gravity?$AA@ 0062ec80     msg.obj
 0003:00005c8c       ??_C@_0O@NKKNBCBK@externalEvent?$AA@ 0062ec8c     msg.obj
 0003:00005c9c       ??_C@_0M@KALDLEMN@weaponstate?$AA@ 0062ec9c     msg.obj
 0003:00005cac       ??_C@_08DPFJBFEN@pm_flags?$AA@ 0062ecac     msg.obj
 0003:00005cb8       ??_C@_09PDPBIKFA@events?$FL1?$FN?$AA@ 0062ecb8     msg.obj
 0003:00005cc4       ??_C@_09PCDDOAGH@events?$FL0?$FN?$AA@ 0062ecc4     msg.obj
 0003:00005cd0       ??_C@_0M@POONNNAA@movementDir?$AA@ 0062ecd0     msg.obj
 0003:00005ce0       ??_C@_0O@GLMOEBPG@eventSequence?$AA@ 0062ece0     msg.obj
 0003:00005cf0       ??_C@_07DDMNBPBG@pm_time?$AA@ 0062ecf0     msg.obj
 0003:00005cfc       ??_C@_09FPJALGDE@legsTimer?$AA@ 0062ecfc     msg.obj
 0003:00005d08       ??_C@_0M@DGBCHEDG@velocity?$FL2?$FN?$AA@ 0062ed08     msg.obj
 0003:00005d18       ??_C@_0L@PNPIGBF@weaponTime?$AA@ 0062ed18     msg.obj
 0003:00005d28       ??_C@_0O@DPOCACIC@viewangles?$FL0?$FN?$AA@ 0062ed28     msg.obj
 0003:00005d38       ??_C@_0O@DOCAGILF@viewangles?$FL1?$FN?$AA@ 0062ed38     msg.obj
 0003:00005d48       ??_C@_0M@DEFEMKGP@velocity?$FL1?$FN?$AA@ 0062ed48     msg.obj
 0003:00005d58       ??_C@_0M@DFJGKAFI@velocity?$FL0?$FN?$AA@ 0062ed58     msg.obj
 0003:00005d68       ??_C@_08HDFLKCJP@bobCycle?$AA@ 0062ed68     msg.obj
 0003:00005d74       ??_C@_0M@BGGKMAGH@commandTime?$AA@ 0062ed74     msg.obj
 0003:00005d84       ??_C@_05MIJNFGED@frame?$AA@ 0062ed84     msg.obj
 0003:00005d8c       ??_C@_0O@HPPKGIAK@constantLight?$AA@ 0062ed8c     msg.obj
 0003:00005d9c       ??_C@_0L@MOGFAHDO@angles2?$FL2?$FN?$AA@ 0062ed9c     msg.obj
 0003:00005dac       ??_C@_0L@MNOBNDFA@angles2?$FL0?$FN?$AA@ 0062edac     msg.obj
 0003:00005dbc       ??_C@_09PCHELDHA@angles?$FL2?$FN?$AA@ 0062edbc     msg.obj
 0003:00005dc8       ??_C@_05CAIMHGND@time2?$AA@ 0062edc8     msg.obj
 0003:00005dd0       ??_C@_0BA@EFHFHEJM@apos?4trDelta?$FL2?$FN?$AA@ 0062edd0     msg.obj
 0003:00005de4       ??_C@_0BA@EHDDMKMF@apos?4trDelta?$FL1?$FN?$AA@ 0062ede4     msg.obj
 0003:00005df8       ??_C@_0BA@EGPBKAPC@apos?4trDelta?$FL0?$FN?$AA@ 0062edf8     msg.obj
 0003:00005e0c       ??_C@_0P@BICHHIIO@apos?4trBase?$FL2?$FN?$AA@ 0062ee0c     msg.obj
 0003:00005e20       ??_C@_0BA@DPBJMBAH@apos?4trDuration?$AA@ 0062ee20     msg.obj
 0003:00005e34       ??_C@_0M@EBDENFGM@apos?4trTime?$AA@ 0062ee34     msg.obj
 0003:00005e44       ??_C@_04CLCEDBPF@time?$AA@ 0062ee44     msg.obj
 0003:00005e4c       ??_C@_09PBPAGHBO@angles?$FL0?$FN?$AA@ 0062ee4c     msg.obj
 0003:00005e58       ??_C@_0M@EDEPDPKE@modelindex2?$AA@ 0062ee58     msg.obj
 0003:00005e68       ??_C@_0L@EOIHEPPC@origin2?$FL1?$FN?$AA@ 0062ee68     msg.obj
 0003:00005e78       ??_C@_0L@EPEFCFMF@origin2?$FL0?$FN?$AA@ 0062ee78     msg.obj
 0003:00005e88       ??_C@_0L@EMMBPBKL@origin2?$FL2?$FN?$AA@ 0062ee88     msg.obj
 0003:00005e98       ??_C@_08HDLPHJFP@generic1?$AA@ 0062ee98     msg.obj
 0003:00005ea4       ??_C@_09DPJGNNNM@loopSound?$AA@ 0062eea4     msg.obj
 0003:00005eb0       ??_C@_0BA@GEGLLMHD@otherEntityNum2?$AA@ 0062eeb0     msg.obj
 0003:00005ec4       ??_C@_0L@OOABJPOI@modelindex?$AA@ 0062eec4     msg.obj
 0003:00005ed4       ??_C@_08BOHIELLL@powerups?$AA@ 0062eed4     msg.obj
 0003:00005ee0       ??_C@_05OPIONHBI@solid?$AA@ 0062eee0     msg.obj
 0003:00005ee8       ??_C@_09FOHGOHCG@origin?$FL2?$FN?$AA@ 0062eee8     msg.obj
 0003:00005ef4       ??_C@_09FMDAFJHP@origin?$FL1?$FN?$AA@ 0062eef4     msg.obj
 0003:00005f00       ??_C@_09FNPCDDEI@origin?$FL0?$FN?$AA@ 0062ef00     msg.obj
 0003:00005f0c       ??_C@_0M@FNDLCNA@apos?4trType?$AA@ 0062ef0c     msg.obj
 0003:00005f1c       ??_C@_0P@JDFIJFKD@pos?4trDuration?$AA@ 0062ef1c     msg.obj
 0003:00005f30       ??_C@_09PADCANCJ@angles?$FL1?$FN?$AA@ 0062ef30     msg.obj
 0003:00005f3c       ??_C@_09ENNGDKOC@clientNum?$AA@ 0062ef3c     msg.obj
 0003:00005f48       ??_C@_06GEPNGEJI@weapon?$AA@ 0062ef48     msg.obj
 0003:00005f50       ??_C@_0P@MIMDOCJJ@otherEntityNum?$AA@ 0062ef50     msg.obj
 0003:00005f64       ??_C@_06PEMOFHAI@eFlags?$AA@ 0062ef64     msg.obj
 0003:00005f6c       ??_C@_0L@KGHGOFDE@pos?4trType?$AA@ 0062ef6c     msg.obj
 0003:00005f7c       ??_C@_0BA@GCAPFJDJ@groundEntityNum?$AA@ 0062ef7c     msg.obj
 0003:00005f90       ??_C@_08NBDCCOLG@legsAnim?$AA@ 0062ef90     msg.obj
 0003:00005f9c       ??_C@_09EHJMMCCL@eventParm?$AA@ 0062ef9c     msg.obj
 0003:00005fa8       ??_C@_09IDGFAJEG@torsoAnim?$AA@ 0062efa8     msg.obj
 0003:00005fb4       ??_C@_05IBNLLBBK@eType?$AA@ 0062efb4     msg.obj
 0003:00005fbc       ??_C@_0L@MMCDLJGH@angles2?$FL1?$FN?$AA@ 0062efbc     msg.obj
 0003:00005fcc       ??_C@_05GFHEIIDD@event?$AA@ 0062efcc     msg.obj
 0003:00005fd4       ??_C@_0P@BLKDKMOA@apos?4trBase?$FL0?$FN?$AA@ 0062efd4     msg.obj
 0003:00005fe8       ??_C@_0P@OJDECADI@pos?4trDelta?$FL2?$FN?$AA@ 0062efe8     msg.obj
 0003:00005ffc       ??_C@_0P@BKGBMGNH@apos?4trBase?$FL1?$FN?$AA@ 0062effc     msg.obj
 0003:00006010       ??_C@_0O@OFIKJMKF@pos?4trBase?$FL2?$FN?$AA@ 0062f010     msg.obj
 0003:00006020       ??_C@_0P@OLHCJOGB@pos?4trDelta?$FL1?$FN?$AA@ 0062f020     msg.obj
 0003:00006034       ??_C@_0P@OKLAPEFG@pos?4trDelta?$FL0?$FN?$AA@ 0062f034     msg.obj
 0003:00006048       ??_C@_0O@OHMMCCPM@pos?4trBase?$FL1?$FN?$AA@ 0062f048     msg.obj
 0003:00006058       ??_C@_0O@OGAOEIML@pos?4trBase?$FL0?$FN?$AA@ 0062f058     msg.obj
 0003:00006068       ??_C@_0L@OCJBICII@pos?4trTime?$AA@ 0062f068     msg.obj
 0003:00006078       ??_C@_0DB@CDCFBJOH@MSG_Copy?3?5can?8t?5copy?5into?5a?5smal@ 0062f078     msg.obj
 0003:000060b4       ??_C@_0BE@HBLHKMBF@can?8t?5read?5?$CFd?5bits?6?$AA@ 0062f0b4     msg.obj
 0003:000060cc       ??_C@_0BL@JPLBKHNB@MSG_WriteBits?3?5bad?5bits?5?$CFi?$AA@ 0062f0cc     msg.obj
 0003:000060ec       ??_C@_0CC@BCAHGEKN@MSG_WriteString?3?5MAX_STRING_CHAR@ 0062f0ec     msg.obj
 0003:00006114       ??_C@_0CB@FEBBBOCP@MSG_WriteString?3?5BIG_INFO_STRING@ 0062f114     msg.obj
 0003:0000613c       __real@43800000            0062f13c     msg.obj
 0003:00006140       ??_C@_0M@JKPELGIL@?$CFd?5used?5?$CFd?6?$AA@ 0062f140     msg.obj
 0003:00006150       ??_C@_0CM@EJOMBCBE@MSG_WriteDeltaEntity?3?5Bad?5entity@ 0062f150     msg.obj
 0003:00006184       ??_C@_0CD@OGOMLMDM@numFields?5?$CL?51?5?$DN?$DN?5sizeof?$CI?5?$CKfrom?5?$CJ@ 0062f184     msg.obj
 0003:000061b0       ??_C@_0CI@CIPHOCEO@c?3?2quake3?2luamod_src?2code?2qcommo@ 0062f1b0     msg.obj
 0003:000061e0       ??_C@_0M@ILPPMOAB@?5?$CI?$CFi?5bits?$CJ?6?$AA@ 0062f1e0     msg.obj
 0003:000061f0       ??_C@_06NHADCFMO@?$CFs?3?$CFf?5?$AA@ 0062f1f0     msg.obj
 0003:000061f8       ??_C@_06NMFPGCPD@?$CFs?3?$CFi?5?$AA@ 0062f1f8     msg.obj
 0003:00006200       ??_C@_0M@HKNCGALG@?$CF3i?3?5?$CD?$CF?93i?5?$AA@ 0062f200     msg.obj
 0003:00006210       ??_C@_0BD@NOLCAOLH@?$CF3i?3?5?$CD?$CF?93i?5remove?6?$AA@ 0062f210     msg.obj
 0003:00006228       ??_C@_0BM@MHCCEDBM@Bad?5delta?5entity?5number?3?5?$CFi?$AA@ 0062f228     msg.obj
 0003:0000624c       ??_C@_0M@GJDAJLLB@PS_POWERUPS?$AA@ 0062f24c     msg.obj
 0003:0000625c       ??_C@_07CDFACGBI@PS_AMMO?$AA@ 0062f25c     msg.obj
 0003:00006268       ??_C@_0O@GFKBHLEI@PS_PERSISTANT?$AA@ 0062f268     msg.obj
 0003:00006278       ??_C@_08PLJCGDKN@PS_STATS?$AA@ 0062f278     msg.obj
 0003:00006284       ??_C@_0BC@OLEJBHLP@?$CF3i?3?5playerstate?5?$AA@ 0062f284     msg.obj
 0003:0000629c       ??_C@_06HJHJCKIO@server?$AA@ 0062f29c     net_chan.obj
 0003:000062a4       ??_C@_06DGDLPBAN@client?$AA@ 0062f2a4     net_chan.obj
 0003:000062ac       ??_C@_08HJDPOCEL@showdrop?$AA@ 0062f2ac     net_chan.obj
 0003:000062b8       ??_C@_0M@DDMGOMOJ@showpackets?$AA@ 0062f2b8     net_chan.obj
 0003:000062c8       ??_C@_0CD@LNBJCMMG@?$CFs?5send?5?$CF4i?5?3?5s?$DN?$CFi?5fragment?$DN?$CFi?0?$CF@ 0062f2c8     net_chan.obj
 0003:000062f4       ??_C@_0BL@BFLOIGMD@?$CFs?5send?5?$CF4i?5?3?5s?$DN?$CFi?5ack?$DN?$CFi?6?$AA@ 0062f2f4     net_chan.obj
 0003:00006314       ??_C@_0BO@OIBNDEGJ@Netchan_Transmit?3?5length?5?$DN?5?$CFi?$AA@ 0062f314     net_chan.obj
 0003:00006338       ??_C@_0CF@FNEEAEAE@?$CFs?3fragmentLength?5?$CFi?5?$DO?5msg?9?$DOmaxs@ 0062f338     net_chan.obj
 0003:00006364       ??_C@_0BM@KGOPCCAH@?$CFs?3illegal?5fragment?5length?6?$AA@ 0062f364     net_chan.obj
 0003:00006388       ??_C@_0BP@NNNGGON@?$CFs?3Dropped?5a?5message?5fragment?6?$AA@ 0062f388     net_chan.obj
 0003:000063b0       ??_C@_0BN@CDDCLPO@?$CFs?3Dropped?5?$CFi?5packets?5at?5?$CFi?6?$AA@ 0062f3b0     net_chan.obj
 0003:000063d4       ??_C@_0CB@IKJIFCCO@?$CFs?3Out?5of?5order?5packet?5?$CFi?5at?5?$CFi?6@ 0062f3d4     net_chan.obj
 0003:000063fc       ??_C@_0BE@NEBCOCEH@?$CFs?5recv?5?$CF4i?5?3?5s?$DN?$CFi?6?$AA@ 0062f3fc     net_chan.obj
 0003:00006414       ??_C@_0CD@PJJBGHAI@?$CFs?5recv?5?$CF4i?5?3?5s?$DN?$CFi?5fragment?$DN?$CFi?0?$CF@ 0062f414     net_chan.obj
 0003:00006440       ??_C@_0CG@BDGJLBKO@NET_CompareBaseAdr?3?5bad?5address?5@ 0062f440     net_chan.obj
 0003:00006470       ??_C@_0CO@DHMLBJGH@?$CF02x?$CF02x?$CF02x?$CF02x?4?$CF02x?$CF02x?$CF02x?$CF02@ 0062f470     net_chan.obj
 0003:000064a8       ??_C@_0BA@OMBGEIBN@?$CFi?4?$CFi?4?$CFi?4?$CFi?3?$CFhu?$AA@ 0062f4a8     net_chan.obj
 0003:000064bc       ??_C@_03EHEMCPIE@bot?$AA@  0062f4bc     net_chan.obj
 0003:000064c0       ??_C@_08HAEGGJGF@loopback?$AA@ 0062f4c0     net_chan.obj
 0003:000064cc       ??_C@_0CC@DHFIOJGP@NET_CompareAdr?3?5bad?5address?5type@ 0062f4cc     net_chan.obj
 0003:000064f4       ??_C@_0BB@NGJDDNAF@send?5packet?5?$CF4i?6?$AA@ 0062f4f4     net_chan.obj
 0003:00006508       ??_C@_01JLIPDDHJ@?3?$AA@   0062f508     net_chan.obj
 0003:0000650c       __real@437f0000            0062f50c     q_math.obj
 0003:00006510       __real@43340000            0062f510     q_math.obj
 0003:00006518       __real@400921fb60000000    0062f518     q_math.obj
 0003:00006528       __real@4066800000000000    0062f528     q_math.obj
 0003:00006534       ??_C@_0BK@JDDBNDOP@Q_fabs?$CIinv_denom?$CJ?5?$CB?$DN?50?40f?$AA@ 0062f534     q_math.obj
 0003:00006554       ??_C@_0CI@LJOCNONI@c?3?2quake3?2luamod_src?2code?2game?2q@ 0062f554     q_math.obj
 0003:00006584       __real@c3340000            0062f584     q_math.obj
 0003:00006588       __real@4066c16c16c16c17    0062f588     q_math.obj
 0003:00006598       __real@4076800000000000    0062f598     q_math.obj
 0003:000065a4       __real@3c8efa35            0062f5a4     q_math.obj
 0003:000065a8       ??_C@_0BI@KPLEBEJF@ERROR?3?5?$CFs?0?5line?5?$CFd?3?5?$CFs?6?$AA@ 0062f5a8     q_shared.obj
 0003:000065c4       ??_C@_0BK@DJMKDJBL@WARNING?3?5?$CFs?0?5line?5?$CFd?3?5?$CFs?6?$AA@ 0062f5c4     q_shared.obj
 0003:000065e4       ??_C@_0BF@BFEJCABG@MatchToken?3?5?$CFs?5?$CB?$DN?5?$CFs?$AA@ 0062f5e4     q_shared.obj
 0003:00006600       ??_C@_01PKGAHCOL@?$CJ?$AA@ 0062f600     q_shared.obj
 0003:00006604       ??_C@_01ODHLEDKK@?$CI?$AA@ 0062f604     q_shared.obj
 0003:00006608       ??_C@_0BJ@OLBOPICM@Q_strncpyz?3?5destsize?5?$DM?51?$AA@ 0062f608     q_shared.obj
 0003:00006628       ??_C@_0BF@BJHHBLMD@Q_strncpyz?3?5NULL?5src?$AA@ 0062f628     q_shared.obj
 0003:00006644       ??_C@_0BG@EKAPNPCH@Q_strncpyz?3?5NULL?5dest?$AA@ 0062f644     q_shared.obj
 0003:00006660       ??_C@_0BN@EFOOAHFL@Q_strcat?3?5already?5overflowed?$AA@ 0062f660     q_shared.obj
 0003:00006684       ??_C@_0CD@GIPJKOOD@Com_sprintf?3?5overflow?5of?5?$CFi?5in?5?$CF@ 0062f684     q_shared.obj
 0003:000066b0       ??_C@_0CC@GMEFDOKA@Com_sprintf?3?5overflowed?5bigbuffe@ 0062f6b0     q_shared.obj
 0003:000066d8       ??_C@_0CG@FLHABLN@Info_ValueForKey?3?5oversize?5infos@ 0062f6d8     q_shared.obj
 0003:00006708       ??_C@_0CE@HMPLGKDK@Info_RemoveKey?3?5oversize?5infostr@ 0062f708     q_shared.obj
 0003:00006734       ??_C@_0CI@CPIEPBLO@Info_RemoveKey_Big?3?5oversize?5inf@ 0062f734     q_shared.obj
 0003:00006764       ??_C@_0BN@CAOBGKLE@Info?5string?5length?5exceeded?6?$AA@ 0062f764     q_shared.obj
 0003:00006788       ??_C@_06NELKLDPM@?2?$CFs?2?$CFs?$AA@ 0062f788     q_shared.obj
 0003:00006790       ??_C@_0CD@MGFMEBLE@Can?8t?5use?5keys?5or?5values?5with?5a?5@ 0062f790     q_shared.obj
 0003:000067bc       ??_C@_0CL@JCFAGLFD@Can?8t?5use?5keys?5or?5values?5with?5a?5@ 0062f7bc     q_shared.obj
 0003:000067f0       ??_C@_0CD@JIDDAEOO@Can?8t?5use?5keys?5or?5values?5with?5a?5@ 0062f7f0     q_shared.obj
 0003:0000681c       ??_C@_0CJ@CEEBDGNA@Info_SetValueForKey?3?5oversize?5in@ 0062f81c     q_shared.obj
 0003:00006850       ??_C@_0CB@EMDOOGBI@BIG?5Info?5string?5length?5exceeded?6@ 0062f850     q_shared.obj
 0003:00006878       ??_C@_0BF@PIJCDGGI@No?5background?5file?4?6?$AA@ 0062f878     snd_dma.obj
 0003:00006894       ??_C@_0BF@DBAKANBB@Background?5file?3?5?$CFs?6?$AA@ 0062f894     snd_dma.obj
 0003:000068b0       ??_C@_0BB@DLHOOLMA@0x?$CFx?5dma?5buffer?6?$AA@ 0062f8b0     snd_dma.obj
 0003:000068c4       ??_C@_0L@CLCJCFAJ@?$CF5d?5speed?6?$AA@ 0062f8c4     snd_dma.obj
 0003:000068d4       ??_C@_0BG@FOGLIFDD@?$CF5d?5submission_chunk?6?$AA@ 0062f8d4     snd_dma.obj
 0003:000068f0       ??_C@_0BA@HGOIHECG@?$CF5d?5samplebits?6?$AA@ 0062f8f0     snd_dma.obj
 0003:00006904       ??_C@_0N@LFEODKMK@?$CF5d?5samples?6?$AA@ 0062f904     snd_dma.obj
 0003:00006914       ??_C@_0M@FDDHHICE@?$CF5d?5stereo?6?$AA@ 0062f914     snd_dma.obj
 0003:00006924       ??_C@_0BH@MEMPFHHG@sound?5system?5is?5muted?6?$AA@ 0062f924     snd_dma.obj
 0003:00006940       ??_C@_0BK@NEOOOKPB@sound?5system?5not?5started?6?$AA@ 0062f940     snd_dma.obj
 0003:00006960       ??_C@_0BI@JEHEKKKP@?9?9?9?9?9?5Sound?5Info?5?9?9?9?9?9?6?$AA@ 0062f960     snd_dma.obj
 0003:0000697c       ??_C@_06HEFAAICK@s_stop?$AA@ 0062f97c     snd_dma.obj
 0003:00006984       ??_C@_06KDCPAFOD@s_info?$AA@ 0062f984     snd_dma.obj
 0003:0000698c       ??_C@_06EFMDBICL@s_list?$AA@ 0062f98c     snd_dma.obj
 0003:00006994       ??_C@_05LLDJOKNO@music?$AA@ 0062f994     snd_dma.obj
 0003:0000699c       ??_C@_04GBHMDDO@play?$AA@  0062f99c     snd_dma.obj
 0003:000069a4       ??_C@_0CG@KGENGPKN@?9?9?9?9?9?9?9?9?9?9?9?9?9?9?9?9?9?9?9?9?9?9?9?9?9?9?9?9?9?9?9?9@ 0062f9a4     snd_dma.obj
 0003:000069d4       ??_C@_0BD@FJHCPMAJ@not?5initializing?4?6?$AA@ 0062f9d4     snd_dma.obj
 0003:000069ec       ??_C@_0M@NLIFPOIG@s_initsound?$AA@ 0062f9ec     snd_dma.obj
 0003:000069fc       ??_C@_0M@GGPLEHOA@s_testsound?$AA@ 0062f9fc     snd_dma.obj
 0003:00006a0c       ??_C@_06CBNOHGMK@s_show?$AA@ 0062fa0c     snd_dma.obj
 0003:00006a14       ??_C@_0N@MILGKHMC@s_mixPreStep?$AA@ 0062fa14     snd_dma.obj
 0003:00006a24       ??_C@_04FOELEPEP@0?405?$AA@ 0062fa24     snd_dma.obj
 0003:00006a2c       ??_C@_0L@CIDOAMPN@s_mixahead?$AA@ 0062fa2c     snd_dma.obj
 0003:00006a3c       ??_C@_03PBDDOHNJ@0?42?$AA@ 0062fa3c     snd_dma.obj
 0003:00006a40       ??_C@_05GPLACMP@s_khz?$AA@ 0062fa40     snd_dma.obj
 0003:00006a48       ??_C@_02MKCBEDGC@22?$AA@   0062fa48     snd_dma.obj
 0003:00006a4c       ??_C@_09FFKKACPC@s_doppler?$AA@ 0062fa4c     snd_dma.obj
 0003:00006a58       ??_C@_0N@EPGANNDD@s_separation?$AA@ 0062fa58     snd_dma.obj
 0003:00006a68       ??_C@_03LOHCHBBO@0?45?$AA@ 0062fa68     snd_dma.obj
 0003:00006a6c       ??_C@_0O@DCFOJKGE@s_musicvolume?$AA@ 0062fa6c     snd_dma.obj
 0003:00006a7c       ??_C@_08HCGCKAMG@s_volume?$AA@ 0062fa7c     snd_dma.obj
 0003:00006a88       ??_C@_03LNMAPFD@0?48?$AA@  0062fa88     snd_dma.obj
 0003:00006a8c       ??_C@_0CH@FFLNOAMN@?6?9?9?9?9?9?9?9?5sound?5initialization?5?9?9@ 0062fa8c     snd_dma.obj
 0003:00006abc       ??_C@_0CA@PLLGIKIN@Channel?5memory?5manager?5started?6?$AA@ 0062fabc     snd_dma.obj
 0003:00006ae4       ??_C@_09MPGJFHJB@soundinfo?$AA@ 0062fae4     snd_dma.obj
 0003:00006af0       ??_C@_09CJIFEKFJ@soundlist?$AA@ 0062faf0     snd_dma.obj
 0003:00006afc       ??_C@_09MAAKNOCD@stopsound?$AA@ 0062fafc     snd_dma.obj
 0003:00006b08       ??_C@_0BH@PPLJNIIB@sound?1feedback?1hit?4wav?$AA@ 0062fb08     snd_dma.obj
 0003:00006b24       ??_C@_0CO@KFOCFNID@?$FO3WARNING?3?5could?5not?5find?5?$CFs?5?9?5u@ 0062fb24     snd_dma.obj
 0003:00006b5c       ??_C@_0BO@KNMPIDHG@Sound?5name?5exceeds?5MAX_QPATH?6?$AA@ 0062fb5c     snd_dma.obj
 0003:00006b80       ??_C@_0BJ@ONEALDEO@S_FindName?3?5out?5of?5sfx_t?$AA@ 0062fb80     snd_dma.obj
 0003:00006ba0       ??_C@_0BI@FNMGDFHG@Sound?5name?5too?5long?3?5?$CFs?$AA@ 0062fba0     snd_dma.obj
 0003:00006bbc       ??_C@_0BI@MBEBGPGI@S_FindName?3?5empty?5name?6?$AA@ 0062fbbc     snd_dma.obj
 0003:00006bd8       ??_C@_0BC@JMCPOJBP@S_FindName?3?5NULL?6?$AA@ 0062fbd8     snd_dma.obj
 0003:00006bf0       __real@42a00000            0062fbf0     snd_dma.obj
 0003:00006bf4       ??_C@_0BA@EKACNJLN@dropping?5sound?6?$AA@ 0062fbf4     snd_dma.obj
 0003:00006c08       ??_C@_08IOBNMEPB@?$CFi?5?3?5?$CFs?6?$AA@ 0062fc08     snd_dma.obj
 0003:00006c14       ??_C@_02JCPHEAGH@?$FO3?$AA@ 0062fc14     snd_dma.obj
 0003:00006c18       ??_C@_0CG@MHCEPADK@S_StartSound?3?5handle?5?$CFi?5out?5of?5r@ 0062fc18     snd_dma.obj
 0003:00006c48       ??_C@_0BP@PLEMPNLH@S_StartSound?3?5bad?5entitynum?5?$CFi?$AA@ 0062fc48     snd_dma.obj
 0003:00006c70       ??_C@_0CL@JCKKLMHG@S_StartLocalSound?3?5handle?5?$CFi?5out@ 0062fc70     snd_dma.obj
 0003:00006ca8       __real@0000000000000000    0062fca8     snd_dma.obj
 0003:00006cb4       ??_C@_0BA@JCBCPJHP@?$CFs?5has?5length?50?$AA@ 0062fcb4     snd_dma.obj
 0003:00006cc8       ??_C@_0CL@NOGDPHFG@S_AddLoopingSound?3?5handle?5?$CFi?5out@ 0062fcc8     snd_dma.obj
 0003:00006cfc       ??_C@_0CP@ECDOCLA@S_AddRealLoopingSound?3?5handle?5?$CFi@ 0062fcfc     snd_dma.obj
 0003:00006d34       ??_C@_0CC@BJECBNFP@S_RawSamples?3?5overflowed?5?$CFi?5?$DO?5?$CFi@ 0062fd34     snd_dma.obj
 0003:00006d5c       ??_C@_0CK@EAFGMFOG@S_RawSamples?3?5resetting?5minimum?3@ 0062fd5c     snd_dma.obj
 0003:00006d90       ??_C@_0CJ@FABAALOF@S_UpdateEntityPosition?3?5bad?5enti@ 0062fd90     snd_dma.obj
 0003:00006dc4       ??_C@_0BK@LAAFJK@?9?9?9?9?$CI?$CFi?$CJ?9?9?9?9?5painted?3?5?$CFi?6?$AA@ 0062fdc4     snd_dma.obj
 0003:00006de4       ??_C@_09NKFDHBJC@?$CFf?5?$CFf?5?$CFs?6?$AA@ 0062fde4     snd_dma.obj
 0003:00006df0       ??_C@_0BG@BFIOFFAA@not?5started?5or?5muted?6?$AA@ 0062fdf0     snd_dma.obj
 0003:00006e10       __real@3f847ae147ae147b    0062fe10     snd_dma.obj
 0003:00006e1c       __real@41300000            0062fe1c     snd_dma.obj
 0003:00006e20       ??_C@_06MKMJDPPC@?$CFs?4wav?$AA@ 0062fe20     snd_dma.obj
 0003:00006e28       ??_C@_0BO@IEIFFKHL@music?5?$DMmusicfile?$DO?5?$FLloopfile?$FN?6?$AA@ 0062fe28     snd_dma.obj
 0003:00006e4c       ??_C@_0BE@FOMELIJC@Total?5resident?3?5?$CFi?6?$AA@ 0062fe4c     snd_dma.obj
 0003:00006e64       ??_C@_0BC@HICHNCDI@?$CF6i?$FL?$CFs?$FN?5?3?5?$CFs?$FL?$CFs?$FN?6?$AA@ 0062fe64     snd_dma.obj
 0003:00006e7c       ??_C@_09BLPOEION@resident?5?$AA@ 0062fe7c     snd_dma.obj
 0003:00006e88       ??_C@_09IKAMNOEC@paged?5out?$AA@ 0062fe88     snd_dma.obj
 0003:00006e94       ??_C@_05JDPOCLPK@mulaw?$AA@ 0062fe94     snd_dma.obj
 0003:00006e9c       ??_C@_05NFJCPBPK@daub4?$AA@ 0062fe9c     snd_dma.obj
 0003:00006ea4       ??_C@_05BANKJDCB@adpcm?$AA@ 0062fea4     snd_dma.obj
 0003:00006eac       ??_C@_05DCAALEKH@16bit?$AA@ 0062feac     snd_dma.obj
 0003:00006eb4       ??_C@_0BF@OFMFCFOH@No?5data?5chunk?5in?5?$CFs?6?$AA@ 0062feb4     snd_dma.obj
 0003:00006ed0       ??_C@_04PJOLNDGD@data?$AA@ 0062fed0     snd_dma.obj
 0003:00006ed8       ??_C@_0CM@GEAHPJEC@?$FO3WARNING?3?5music?5file?5?$CFs?5is?5not?5@ 0062fed8     snd_dma.obj
 0003:00006f0c       ??_C@_0CE@GKPHMJFG@Not?5a?5microsoft?5PCM?5format?5wav?3?5@ 0062ff0c     snd_dma.obj
 0003:00006f38       ??_C@_0BE@CADIOBKC@No?5fmt?5chunk?5in?5?$CFs?6?$AA@ 0062ff38     snd_dma.obj
 0003:00006f50       ??_C@_04CAJPEBPP@fmt?5?$AA@ 0062ff50     snd_dma.obj
 0003:00006f58       ??_C@_0CI@BJIPAJDD@?$FO3WARNING?3?5couldn?8t?5open?5music?5f@ 0062ff58     snd_dma.obj
 0003:00006f88       ??_C@_04IBLEHOMF@?4wav?$AA@ 0062ff88     snd_dma.obj
 0003:00006f90       ??_C@_0CC@NGKFCGIG@S_StartBackgroundTrack?$CI?5?$CFs?0?5?$CFs?5?$CJ@ 0062ff90     snd_dma.obj
 0003:00006fb8       ??_C@_0CF@BHKHLDOB@StreamedRead?5failure?5on?5music?5tr@ 0062ffb8     snd_dma.obj
 0003:00006fe4       ??_C@_0CF@BDGBFLDG@S_FreeOldestSound?3?5freeing?5sound@ 0062ffe4     snd_dma.obj
 0003:00007010       ??_C@_0BO@JLIKIDHN@Sound?5memory?5manager?5started?6?$AA@ 00630010     snd_mem.obj
 0003:00007034       ??_C@_0O@HNCJJOBC@com_soundMegs?$AA@ 00630034     snd_mem.obj
 0003:00007044       ??_C@_01KJLJFBPL@8?$AA@    00630044     snd_mem.obj
 0003:00007048       ??_C@_0CH@DLPNPMAK@?$FO3WARNING?3?5?$CFs?5is?5not?5a?522kHz?5wav@ 00630048     snd_mem.obj
 0003:00007078       ??_C@_0CD@BHGEJMMG@?$FO3WARNING?3?5?$CFs?5is?5a?58?5bit?5wav?5fil@ 00630078     snd_mem.obj
 0003:000070a4       ??_C@_0BJ@LNMLELKA@?$CFs?5is?5a?5stereo?5wav?5file?6?$AA@ 006300a4     snd_mem.obj
 0003:000070c4       ??_C@_0BE@DOAIJNHB@Missing?5data?5chunk?6?$AA@ 006300c4     snd_mem.obj
 0003:000070dc       ??_C@_0BL@LLPLMHJH@Microsoft?5PCM?5format?5only?6?$AA@ 006300dc     snd_mem.obj
 0003:000070fc       ??_C@_0BD@FLDJFMEC@Missing?5fmt?5chunk?6?$AA@ 006300fc     snd_mem.obj
 0003:00007114       ??_C@_0BK@HIFIFFLN@Missing?5RIFF?1WAVE?5chunks?6?$AA@ 00630114     snd_mem.obj
 0003:00007134       ??_C@_04HFHJMNCD@WAVE?$AA@ 00630134     snd_mem.obj
 0003:0000713c       ??_C@_04EPCGJKAP@RIFF?$AA@ 0063013c     snd_mem.obj
 0003:00007144       ??_C@_0DC@PNBPCCNC@?$CFd?5bytes?5free?5sound?5buffer?5memor@ 00630144     snd_mem.obj
 0003:00007180       __real@4070000000000000    00630180     snd_mix.obj
 0003:00007190       __real@40d3880000000000    00630190     snd_mix.obj
 0003:0000719c       __real@45000000            0063019c     snd_mix.obj
 0003:000071a0       __real@44800000            006301a0     snd_mix.obj
 0003:000071a8       __real@bfc0907dc1930691    006301a8     snd_wavelet.obj
 0003:000071b8       __real@3fccb0bf0b6b7109    006301b8     snd_wavelet.obj
 0003:000071c8       __real@3feac4bdd6e3fd71    006301c8     snd_wavelet.obj
 0003:000071d8       __real@3fdee8dd4748bf14    006301d8     snd_wavelet.obj
 0003:000071e4       __real@c7000000            006301e4     snd_wavelet.obj
 0003:000071e8       ??_C@_0CE@GNNEKHHF@SV_BotFreeClient?3?5bad?5clientNum?3@ 006301e8     sv_bot.obj
 0003:00007214       ??_C@_0BC@KEMOOJ@bot_highlightarea?$AA@ 00630214     sv_bot.obj
 0003:0000722c       ??_C@_0P@PHABANOG@bot_groundonly?$AA@ 0063022c     sv_bot.obj
 0003:00007240       ??_C@_0BB@GFMPGHPP@bot_reachability?$AA@ 00630240     sv_bot.obj
 0003:00007254       ??_C@_09JMCENGKH@bot_debug?$AA@ 00630254     sv_bot.obj
 0003:00007260       ??_C@_0BE@HKMNOMAG@unknown?5print?5type?6?$AA@ 00630260     sv_bot.obj
 0003:00007278       ??_C@_0L@CNJLHKJM@?$FO1Exit?3?5?$CFs?$AA@ 00630278     sv_bot.obj
 0003:00007288       ??_C@_0M@GLOCHAGD@?$FO1Fatal?3?5?$CFs?$AA@ 00630288     sv_bot.obj
 0003:00007298       ??_C@_0M@LKBEKEOF@?$FO1Error?3?5?$CFs?$AA@ 00630298     sv_bot.obj
 0003:000072a8       ??_C@_0O@LHCIHOMB@?$FO3Warning?3?5?$CFs?$AA@ 006302a8     sv_bot.obj
 0003:000072b8       ??_C@_0CK@PIFNCPMF@c?3?2quake3?2luamod_src?2code?2server@ 006302b8     sv_bot.obj
 0003:000072ec       ??_C@_0DA@ONPNGPHE@SV_Bot_HunkAlloc?3?5Alloc?5with?5mar@ 006302ec     sv_bot.obj
 0003:00007328       __real@c0000000            00630328     sv_bot.obj
 0003:00007330       __real@bfefae147ae147ae    00630330     sv_bot.obj
 0003:00007340       __real@3fefae147ae147ae    00630340     sv_bot.obj
 0003:0000734c       ??_C@_0DC@ICCMFCJF@?$FO1Error?3?5SV_BotLibSetup?5without?5@ 0063034c     sv_bot.obj
 0003:00007388       ??_C@_0BE@IDNEOHBL@bot_interbreedwrite?$AA@ 00630388     sv_bot.obj
 0003:000073a0       ??_C@_0BE@BBMLIECL@bot_interbreedcycle?$AA@ 006303a0     sv_bot.obj
 0003:000073b8       ??_C@_0BD@GLHGHIJE@bot_interbreedbots?$AA@ 006303b8     sv_bot.obj
 0003:000073d0       ??_C@_02PKFBJPLJ@10?$AA@   006303d0     sv_bot.obj
 0003:000073d4       ??_C@_0BD@MIDHDJEH@bot_interbreedchar?$AA@ 006303d4     sv_bot.obj
 0003:000073ec       ??_C@_0P@IGNPDGBD@bot_minplayers?$AA@ 006303ec     sv_bot.obj
 0003:00007400       ??_C@_0O@ILENLOKO@bot_challenge?$AA@ 00630400     sv_bot.obj
 0003:00007410       ??_C@_0P@OLNMGHML@bot_rocketjump?$AA@ 00630410     sv_bot.obj
 0003:00007424       ??_C@_0M@HIPNFLBG@bot_grapple?$AA@ 00630424     sv_bot.obj
 0003:00007434       ??_C@_0L@DIBKBFBJ@bot_report?$AA@ 00630434     sv_bot.obj
 0003:00007444       ??_C@_09KJGEBPM@bot_pause?$AA@ 00630444     sv_bot.obj
 0003:00007450       ??_C@_0L@JNAIAIAH@bot_nochat?$AA@ 00630450     sv_bot.obj
 0003:00007460       ??_C@_0N@JOELMLFL@bot_fastchat?$AA@ 00630460     sv_bot.obj
 0003:00007470       ??_C@_0BB@LICKAML@bot_testclusters?$AA@ 00630470     sv_bot.obj
 0003:00007484       ??_C@_0O@NEGDFLLI@bot_testsolid?$AA@ 00630484     sv_bot.obj
 0003:00007494       ??_C@_0O@BBHMLBKC@bot_testrchat?$AA@ 00630494     sv_bot.obj
 0003:000074a4       ??_C@_0O@HIGNEDPK@bot_testichat?$AA@ 006304a4     sv_bot.obj
 0003:000074b4       ??_C@_0BF@BBFOCAKO@bot_reloadcharacters?$AA@ 006304b4     sv_bot.obj
 0003:000074d0       ??_C@_0O@NKIABNEG@bot_thinktime?$AA@ 006304d0     sv_bot.obj
 0003:000074e0       ??_C@_0BF@MDEDPJEF@bot_saveroutingcache?$AA@ 006304e0     sv_bot.obj
 0003:000074fc       ??_C@_0BA@CHMPBPHA@bot_aasoptimize?$AA@ 006304fc     sv_bot.obj
 0003:00007510       ??_C@_0P@HFCEKFCE@bot_forcewrite?$AA@ 00630510     sv_bot.obj
 0003:00007524       ??_C@_0BG@GJKIOMNG@bot_forcereachability?$AA@ 00630524     sv_bot.obj
 0003:00007540       ??_C@_0BE@HANIKEON@bot_forceclustering?$AA@ 00630540     sv_bot.obj
 0003:00007558       ??_C@_0BG@HILKKLKJ@bot_visualizejumppads?$AA@ 00630558     sv_bot.obj
 0003:00007574       ??_C@_0BC@OFKLJGBH@bot_maxdebugpolys?$AA@ 00630574     sv_bot.obj
 0003:0000758c       ??_C@_0O@IHEJFHJE@bot_developer?$AA@ 0063058c     sv_bot.obj
 0003:0000759c       ??_C@_0L@BKCPIMBP@bot_enable?$AA@ 0063059c     sv_bot.obj
 0003:000075ac       ??_C@_0O@HMNJPAOJ@botlib_export?$AA@ 006305ac     sv_bot.obj
 0003:000075bc       ??_C@_0CM@BMOBJFIG@sizeof?$CIbot_debugpoly_t?$CJ?5?$CK?5bot_ma@ 006305bc     sv_bot.obj
 0003:000075f0       ??_C@_0BF@NJDIPJLA@Game?5CD?5not?5in?5drive?$AA@ 006305f0     sv_bot.obj
 0003:0000760c       ??_C@_03BANJEMDJ@say?$AA@  0063060c     sv_ccmds.obj
 0003:00007610       ??_C@_0L@OMIGLNJO@killserver?$AA@ 00630610     sv_ccmds.obj
 0003:00007620       ??_C@_08ICLMJBJO@spdevmap?$AA@ 00630620     sv_ccmds.obj
 0003:0000762c       ??_C@_05JFDPDGMD@spmap?$AA@ 0063062c     sv_ccmds.obj
 0003:00007634       ??_C@_06JMKHDEMO@devmap?$AA@ 00630634     sv_ccmds.obj
 0003:0000763c       ??_C@_03HBNNNHNM@map?$AA@  0063063c     sv_ccmds.obj
 0003:00007640       ??_C@_0L@LFJOEPCG@sectorlist?$AA@ 00630640     sv_ccmds.obj
 0003:00007650       ??_C@_08GCHPGJL@dumpuser?$AA@ 00630650     sv_ccmds.obj
 0003:0000765c       ??_C@_0L@JENAJOPJ@systeminfo?$AA@ 0063065c     sv_ccmds.obj
 0003:0000766c       ??_C@_0L@OJMFMOP@serverinfo?$AA@ 0063066c     sv_ccmds.obj
 0003:0000767c       ??_C@_06DJIHEMFI@status?$AA@ 0063067c     sv_ccmds.obj
 0003:00007684       ??_C@_0L@NBDAICFL@clientkick?$AA@ 00630684     sv_ccmds.obj
 0003:00007694       ??_C@_09NMALIMLK@banClient?$AA@ 00630694     sv_ccmds.obj
 0003:000076a0       ??_C@_07MNEAPDFN@banUser?$AA@ 006306a0     sv_ccmds.obj
 0003:000076ac       ??_C@_04FNIJDBCC@kick?$AA@ 006306ac     sv_ccmds.obj
 0003:000076b4       ??_C@_09NCPIAHOP@heartbeat?$AA@ 006306b4     sv_ccmds.obj
 0003:000076c0       ??_C@_0L@LPENDGCI@g_doWarmup?$AA@ 006306c0     sv_ccmds.obj
 0003:000076d0       ??_C@_02HJDGIJBC@sp?$AA@   006306d0     sv_ccmds.obj
 0003:000076d4       ??_C@_0L@GFINLBEC@g_gametype?$AA@ 006306d4     sv_ccmds.obj
 0003:000076e4       ??_C@_0BD@IOLJLANL@Can?8t?5find?5map?5?$CFs?6?$AA@ 006306e4     sv_ccmds.obj
 0003:000076fc       ??_C@_0DC@HPLLIPAB@SV_MapRestart_f?$CI?$CFd?$CJ?3?5dropped?5cli@ 006306fc     sv_ccmds.obj
 0003:00007738       ??_C@_0N@HLIAHCAN@map_restart?6?$AA@ 00630738     sv_ccmds.obj
 0003:00007748       ??_C@_0CA@KCGHPPMG@variable?5change?5?9?9?5restarting?4?6?$AA@ 00630748     sv_ccmds.obj
 0003:00007770       ??_C@_0BI@BNNKLCPB@Server?5is?5not?5running?4?6?$AA@ 00630770     sv_ccmds.obj
 0003:0000778c       ??_C@_0L@GPCEIOHM@print?5?$CC?$CFs?$CC?$AA@ 0063078c     sv_ccmds.obj
 0003:0000779c       ??_C@_0BJ@BPEGMFB@Cannot?5kick?5host?5player?6?$AA@ 0063079c     sv_ccmds.obj
 0003:000077bc       ??_C@_07GCOBEAMC@allbots?$AA@ 006307bc     sv_ccmds.obj
 0003:000077c8       ??_C@_0L@JGGOGHBB@was?5kicked?$AA@ 006307c8     sv_ccmds.obj
 0003:000077d8       ??_C@_03NFKEKGGK@all?$AA@  006307d8     sv_ccmds.obj
 0003:000077e0       ??_C@_0FB@IAPOMDOC@Usage?3?5kick?5?$DMplayer?5name?$DO?6kick?5a@ 006307e0     sv_ccmds.obj
 0003:00007844       ??_C@_0CA@COHLGPJ@Player?5?$CFs?5is?5not?5on?5the?5server?6?$AA@ 00630844     sv_ccmds.obj
 0003:0000786c       ??_C@_0BG@FMLKELB@No?5player?5specified?4?6?$AA@ 0063086c     sv_ccmds.obj
 0003:00007888       ??_C@_0CA@IHMFJNLM@?$CFs?5was?5banned?5from?5coming?5back?6?$AA@ 00630888     sv_ccmds.obj
 0003:000078b0       ??_C@_0BE@LNHBPGBP@banUser?5?$CFi?4?$CFi?4?$CFi?4?$CFi?$AA@ 006308b0     sv_ccmds.obj
 0003:000078c8       ??_C@_0BO@JNCGGNFP@Usage?3?5banUser?5?$DMplayer?5name?$DO?6?$AA@ 006308c8     sv_ccmds.obj
 0003:000078ec       ??_C@_0CC@FHLBNCJE@Usage?3?5banClient?5?$DMclient?5number?$DO@ 006308ec     sv_ccmds.obj
 0003:00007914       ??_C@_0BJ@PDNIBEAG@Client?5?$CFi?5is?5not?5active?6?$AA@ 00630914     sv_ccmds.obj
 0003:00007934       ??_C@_0BF@BEBENGBA@Bad?5client?5slot?3?5?$CFi?6?$AA@ 00630934     sv_ccmds.obj
 0003:00007950       ??_C@_0BF@GAKLMKPI@Bad?5slot?5number?3?5?$CFs?6?$AA@ 00630950     sv_ccmds.obj
 0003:0000796c       ??_C@_0CA@OMEFHEIE@Usage?3?5kicknum?5?$DMclient?5number?$DO?6?$AA@ 0063096c     sv_ccmds.obj
 0003:00007994       ??_C@_04PJGPIPHP@?5?$CF5i?$AA@ 00630994     sv_ccmds.obj
 0003:0000799c       ??_C@_03NPMIIIHK@?$CF5i?$AA@ 0063099c     sv_ccmds.obj
 0003:000079a0       ??_C@_04IPICLMID@?$CF7i?5?$AA@ 006309a0     sv_ccmds.obj
 0003:000079a8       ??_C@_02PGJLIFGD@?$FO7?$AA@ 006309a8     sv_ccmds.obj
 0003:000079ac       ??_C@_04JNDHBDGN@?$CF4i?5?$AA@ 006309ac     sv_ccmds.obj
 0003:000079b4       ??_C@_05JIJJOLGO@ZMBI?5?$AA@ 006309b4     sv_ccmds.obj
 0003:000079bc       ??_C@_05FHKCJFKL@CNCT?5?$AA@ 006309bc     sv_ccmds.obj
 0003:000079c4       ??_C@_04CFILHEAI@?$CF5i?5?$AA@ 006309c4     sv_ccmds.obj
 0003:000079cc       ??_C@_04OACLNE@?$CF3i?5?$AA@ 006309cc     sv_ccmds.obj
 0003:000079d8       ??_C@_0EK@MBPBHBBK@?9?9?9?5?9?9?9?9?9?5?9?9?9?9?5?9?9?9?9?9?9?9?9?9?9?9?9?9?9?9?5?9@ 006309d8     sv_ccmds.obj
 0003:00007a30       ??_C@_0EJ@JCNPBNOM@num?5score?5ping?5name?5?5?5?5?5?5?5?5?5?5?5?5l@ 00630a30     sv_ccmds.obj
 0003:00007a88       ??_C@_08BLGHJHOM@map?3?5?$CFs?6?$AA@ 00630a88     sv_ccmds.obj
 0003:00007a94       ??_C@_0L@KDCLABHC@chat?5?$CC?$CFs?6?$CC?$AA@ 00630a94     sv_ccmds.obj
 0003:00007aa4       ??_C@_09KIHOHKKG@console?3?5?$AA@ 00630aa4     sv_ccmds.obj
 0003:00007ab0       ??_C@_0BH@LAHBCPJF@Server?5info?5settings?3?6?$AA@ 00630ab0     sv_ccmds.obj
 0003:00007acc       ??_C@_0BH@HBKMNNLG@System?5info?5settings?3?6?$AA@ 00630acc     sv_ccmds.obj
 0003:00007ae8       ??_C@_09DDAOCEB@?9?9?9?9?9?9?9?9?6?$AA@ 00630ae8     sv_ccmds.obj
 0003:00007af4       ??_C@_09IIBHBCGO@userinfo?6?$AA@ 00630af4     sv_ccmds.obj
 0003:00007b00       ??_C@_0BG@NIEOENOA@Usage?3?5info?5?$DMuserid?$DO?6?$AA@ 00630b00     sv_ccmds.obj
 0003:00007b1c       ??_C@_06EKEKFCEC@nextdl?$AA@ 00630b1c     sv_client.obj
 0003:00007b24       ??_C@_08HNIAHLMM@download?$AA@ 00630b24     sv_client.obj
 0003:00007b30       ??_C@_02GFBACKGC@cp?$AA@   00630b30     sv_client.obj
 0003:00007b34       ??_C@_0CG@IHMMCKIP@getIpAuthorize?5?$CFi?5?$CFi?4?$CFi?4?$CFi?4?$CFi?5?$CFs@ 00630b34     sv_client.obj
 0003:00007b64       ??_C@_0BP@ECBEJKDB@sending?5getIpAuthorize?5for?5?$CFs?6?$AA@ 00630b64     sv_client.obj
 0003:00007b8c       ??_C@_0BM@KDJKNJFI@authorize?5server?5timed?5out?6?$AA@ 00630b8c     sv_client.obj
 0003:00007bb0       ??_C@_0BF@JLJINJFC@challengeResponse?5?$CFi?$AA@ 00630bb0     sv_client.obj
 0003:00007bcc       ??_C@_0CE@IHINFNJF@print?6Someone?5is?5using?5this?5CD?5K@ 00630bcc     sv_client.obj
 0003:00007bf8       ??_C@_09MBPDEDJD@print?6?$CFs?6?$AA@ 00630bf8     sv_client.obj
 0003:00007c04       ??_C@_0CF@DFLDHJDB@print?6Awaiting?5CD?5key?5authorizat@ 00630c04     sv_client.obj
 0003:00007c30       ??_C@_06MPKMECK@accept?$AA@ 00630c30     sv_client.obj
 0003:00007c38       ??_C@_0CD@NLEENFLL@print?6Server?5is?5not?5a?5demo?5serve@ 00630c38     sv_client.obj
 0003:00007c64       ??_C@_0CL@OHKPCOFN@SV_AuthorizeIpPacket?3?5challenge?5@ 00630c64     sv_client.obj
 0003:00007c98       ??_C@_0DB@LGFOIHIH@SV_AuthorizeIpPacket?3?5not?5from?5a@ 00630c98     sv_client.obj
 0003:00007cd4       ??_C@_0CL@DFDOECNK@Going?5from?5CS_FREE?5to?5CS_CONNECT@ 00630cd4     sv_client.obj
 0003:00007d08       ??_C@_0CB@GOGCKONC@Game?5rejected?5a?5connection?3?5?$CFs?4?6@ 00630d08     sv_client.obj
 0003:00007d30       ??_C@_0BI@BLKLCACF@Rejected?5a?5connection?4?6?$AA@ 00630d30     sv_client.obj
 0003:00007d4c       ??_C@_0BH@NCFENBBP@print?6Server?5is?5full?4?6?$AA@ 00630d4c     sv_client.obj
 0003:00007d68       ??_C@_0CB@OMBNPOIO@server?5is?5full?5on?5local?5connect?6@ 00630d68     sv_client.obj
 0003:00007d90       ??_C@_0BE@HMGKIAJD@only?5bots?5on?5server?$AA@ 00630d90     sv_client.obj
 0003:00007da8       ??_C@_0O@FLCHKEJG@?$CFs?3reconnect?6?$AA@ 00630da8     sv_client.obj
 0003:00007db8       ??_C@_0CH@PHCNAHEM@Client?5?$CFi?5rejected?5on?5a?5too?5high@ 00630db8     sv_client.obj
 0003:00007de8       ??_C@_0CE@KINDDLDA@print?6Server?5is?5for?5low?5pings?5on@ 00630de8     sv_client.obj
 0003:00007e14       ??_C@_0CG@PNAAMAJH@Client?5?$CFi?5rejected?5on?5a?5too?5low?5@ 00630e14     sv_client.obj
 0003:00007e44       ??_C@_0CF@JPLKPOEC@print?6Server?5is?5for?5high?5pings?5o@ 00630e44     sv_client.obj
 0003:00007e70       ??_C@_0CN@CCHCPFHI@Client?5?$CFi?5connecting?5with?5?$CFi?5cha@ 00630e70     sv_client.obj
 0003:00007ea8       ??_C@_02GIIHKPLE@ip?$AA@   00630ea8     sv_client.obj
 0003:00007eac       ??_C@_0CI@EIEGJKNB@print?6No?5or?5bad?5challenge?5for?5ad@ 00630eac     sv_client.obj
 0003:00007edc       ??_C@_0CC@CIJKAFKI@?$CFs?3reconnect?5rejected?5?3?5too?5soon@ 00630edc     sv_client.obj
 0003:00007f04       ??_C@_0CG@NFNEGGLD@?5?5?5?5rejected?5connect?5from?5versio@ 00630f04     sv_client.obj
 0003:00007f34       ??_C@_0CI@CNIPOKOM@print?6Server?5uses?5protocol?5versi@ 00630f34     sv_client.obj
 0003:00007f64       ??_C@_0BG@MHNPDKDO@SVC_DirectConnect?5?$CI?$CJ?6?$AA@ 00630f64     sv_client.obj
 0003:00007f80       ??_C@_0BA@PCPGFMFA@disconnect?5?$CC?$CFs?$CC?$AA@ 00630f80     sv_client.obj
 0003:00007f94       ??_C@_0BL@IKHIFDGN@Going?5to?5CS_ZOMBIE?5for?5?$CFs?6?$AA@ 00630f94     sv_client.obj
 0003:00007fb4       ??_C@_0BB@FFPEABPI@print?5?$CC?$CFs?$FO7?5?$CFs?6?$CC?$AA@ 00630fb4     sv_client.obj
 0003:00007fc8       ??_C@_0CN@KDBDIPIK@Going?5from?5CS_CONNECTED?5to?5CS_PR@ 00630fc8     sv_client.obj
 0003:00008000       ??_C@_0CB@EAILJHJ@SV_SendClientGameState?$CI?$CJ?5for?5?$CFs?6@ 00631000     sv_client.obj
 0003:00008028       ??_C@_0CK@GAFGMNPI@Going?5from?5CS_PRIMED?5to?5CS_ACTIV@ 00631028     sv_client.obj
 0003:0000805c       ??_C@_0CI@MOHODIAH@clientDownload?3?5?$CFd?5?3?5file?5?$CC?$CFs?$CC?5a@ 0063105c     sv_client.obj
 0003:0000808c       ??_C@_0BJ@GCBEGMAA@clientDownload?3?5?$CFs?5Done?6?$AA@ 0063108c     sv_client.obj
 0003:000080ac       ??_C@_0BA@KJHEBMDK@broken?5download?$AA@ 006310ac     sv_client.obj
 0003:000080c0       ??_C@_0CK@EEKHNEKF@clientDownload?3?5?$CFd?5?3?5file?5?$CC?$CFs?$CC?5c@ 006310c0     sv_client.obj
 0003:000080f4       ??_C@_0DF@CGGBKJAN@clientDownload?3?5?$CFd?5?3?5client?5ackn@ 006310f4     sv_client.obj
 0003:00008134       ??_C@_0CH@KLJBEJLM@clientDownload?3?5?$CFd?5?3?5writing?5blo@ 00631134     sv_client.obj
 0003:00008164       ??_C@_0L@FHBHENPL@sv_MaxRate?$AA@ 00631164     sv_client.obj
 0003:00008174       ??_C@_04KOJKLCBG@1000?$AA@ 00631174     sv_client.obj
 0003:0000817c       ??_C@_0BF@CGDEMHKI@MAX_DOWNLOAD_BLKSIZE?$AA@ 0063117c     sv_client.obj
 0003:00008198       ??_C@_0CN@KAOPFIC@c?3?2quake3?2luamod_src?2code?2server@ 00631198     sv_client.obj
 0003:000081d0       ??_C@_0DE@NDHILGPJ@File?5?$CC?$CFs?$CC?5not?5found?5on?5server?5fo@ 006311d0     sv_client.obj
 0003:00008210       ??_C@_0DE@PKCFFLAA@clientDownload?3?5?$CFd?5?3?5?$CC?$CFs?$CC?5file?5n@ 00631210     sv_client.obj
 0003:00008250       ??_C@_0NL@DHILMFMH@Could?5not?5download?5?$CC?$CFs?$CC?5because?5@ 00631250     sv_client.obj
 0003:00008358       ??_C@_0KC@PMIAHGNA@Could?5not?5download?5?$CC?$CFs?$CC?5because?5@ 00631358     sv_client.obj
 0003:0000841c       ??_C@_0CM@JNECMCJP@clientDownload?3?5?$CFd?5?3?5?$CC?$CFs?$CC?5downlo@ 0063141c     sv_client.obj
 0003:00008450       ??_C@_0CF@NHMNKNNJ@Cannot?5autodownload?5id?5pk3?5file?5@ 00631450     sv_client.obj
 0003:00008480       ??_C@_0GM@IJEBFDBA@Cannot?5autodownload?5Team?5Arena?5f@ 00631480     sv_client.obj
 0003:00008504       ??_C@_0DI@PLGAONGI@clientDownload?3?5?$CFd?5?3?5?$CC?$CFs?$CC?5cannot@ 00631504     sv_client.obj
 0003:00008548       ??_C@_0CE@JIBLCLMP@clientDownload?3?5?$CFd?5?3?5begining?5?$CC?$CF@ 00631548     sv_client.obj
 0003:00008574       ??_C@_0N@GGGDBMDO@disconnected?$AA@ 00631574     sv_client.obj
 0003:00008584       ??_C@_0DH@DJILMAML@Unpure?5client?5detected?4?5Invalid?5@ 00631584     sv_client.obj
 0003:000085c8       ??_C@_0CN@FCJKPEIK@ignoring?5outdated?5cp?5command?5fro@ 006315c8     sv_client.obj
 0003:00008600       ??_C@_09NGKOICNF@vm?1ui?4qvm?$AA@ 00631600     sv_client.obj
 0003:0000860c       ??_C@_0N@MIJFBLLA@vm?1cgame?4qvm?$AA@ 0063160c     sv_client.obj
 0003:0000861c       ??_C@_0CA@PLBLJOEE@client?5text?5ignored?5for?5?$CFs?3?5?$CFs?6?$AA@ 0063161c     sv_client.obj
 0003:00008644       ??_C@_0CJ@KKMJLOKN@WARNING?3?5bad?5command?5byte?5for?5cl@ 00631644     sv_client.obj
 0003:00008678       ??_C@_0CD@KEGKAOCA@?$CFs?5?3?5dropped?5gamestate?0?5resendin@ 00631678     sv_client.obj
 0003:000086a4       ??_C@_0DJ@EAHJJJGJ@?$CFs?5?3?5ignoring?5pre?5map_restart?5?1?5@ 006316a4     sv_client.obj
 0003:000086e8       ??_C@_0CA@OFPHIHAN@DEBUG?3?5illegible?5client?5message?$AA@ 006316e8     sv_client.obj
 0003:00008710       ??_C@_0BH@DJCJEPBJ@Lost?5reliable?5commands?$AA@ 00631710     sv_client.obj
 0003:0000872c       ??_C@_0CC@POHIDIAI@Client?5?$CFs?5lost?5?$CFi?5clientCommands@ 0063172c     sv_client.obj
 0003:00008754       ??_C@_0BN@CDEFJJCC@clientCommand?3?5?$CFs?5?3?5?$CFi?5?3?5?$CFs?6?$AA@ 00631754     sv_client.obj
 0003:00008778       ??_C@_0BN@OHAOFFFB@Cannot?5validate?5pure?5client?$CB?$AA@ 00631778     sv_client.obj
 0003:0000879c       ??_C@_0DA@HCALNAD@?$CFs?3?5didn?8t?5get?5cp?5command?0?5resen@ 0063179c     sv_client.obj
 0003:000087d8       ??_C@_0CA@MHDHEKFF@cmdCount?5?$DO?5MAX_PACKET_USERCMDS?6?$AA@ 006317d8     sv_client.obj
 0003:00008800       ??_C@_0O@KIEOLJAH@cmdCount?5?$DM?51?6?$AA@ 00631800     sv_client.obj
 0003:00008810       ??_C@_0CA@HBFCCGAO@SV_SvEntityForGentity?3?5bad?5gEnt?$AA@ 00631810     sv_game.obj
 0003:00008838       ??_C@_0CJ@BCMBPMHM@SV_SetBrushModel?3?5?$CFs?5isn?8t?5a?5bru@ 00631838     sv_game.obj
 0003:0000886c       ??_C@_0BH@MHCNIHPH@SV_SetBrushModel?3?5NULL?$AA@ 0063186c     sv_game.obj
 0003:00008888       ??_C@_0CD@INNMELOE@SV_GetServerinfo?3?5bufferSize?5?$DN?$DN?5@ 00631888     sv_game.obj
 0003:000088b4       ??_C@_0CA@HGKJAJPL@SV_GetUsercmd?3?5bad?5clientNum?3?$CFi?$AA@ 006318b4     sv_game.obj
 0003:000088dc       ??_C@_0BJ@HAMMCDKL@Bad?5game?5system?5trap?3?5?$CFi?$AA@ 006318dc     sv_game.obj
 0003:000088fc       ??_C@_0BK@FFDIGEEK@VM_Restart?5on?5game?5failed?$AA@ 006318fc     sv_game.obj
 0003:0000891c       ??_C@_0BJ@EAOELJMB@VM_Create?5on?5game?5failed?$AA@ 0063191c     sv_game.obj
 0003:0000893c       ??_C@_06BLCJNLEL@qagame?$AA@ 0063193c     sv_game.obj
 0003:00008944       ??_C@_07BHFGNDCM@vm_game?$AA@ 00631944     sv_game.obj
 0003:00008950       ??_C@_0M@MAONIEJF@cs?5?$CFi?5?$CC?$CFs?$CC?6?$AA@ 00631950     sv_init.obj
 0003:00008960       ??_C@_0M@BPLDJGIF@?$CFs?5?$CFi?5?$CC?$CFs?$CC?6?$AA@ 00631960     sv_init.obj
 0003:00008970       ??_C@_0CC@NDBLLBPI@SV_SetConfigstring?3?5bad?5index?5?$CFi@ 00631970     sv_init.obj
 0003:00008998       ??_C@_0CC@GPKJPKM@SV_GetConfigstring?3?5bad?5index?5?$CFi@ 00631998     sv_init.obj
 0003:000089c0       ??_C@_0CF@GDNLOPIJ@SV_GetConfigstring?3?5bufferSize?5?$DN@ 006319c0     sv_init.obj
 0003:000089ec       ??_C@_0BO@HKNINECJ@SV_SetUserinfo?3?5bad?5index?5?$CFi?6?$AA@ 006319ec     sv_init.obj
 0003:00008a10       ??_C@_0BO@EFONBEDJ@SV_GetUserinfo?3?5bad?5index?5?$CFi?6?$AA@ 00631a10     sv_init.obj
 0003:00008a34       ??_C@_0CB@MDKHFBJG@SV_GetUserinfo?3?5bufferSize?5?$DN?$DN?5?$CFi@ 00631a34     sv_init.obj
 0003:00008a5c       ??_C@_0CK@EBIBHALJ@sizeof?$CIclient_t?$CJ?5?$CK?5sv_maxclients@ 00631a5c     sv_init.obj
 0003:00008a90       ??_C@_0CL@CIPPHGEN@c?3?2quake3?2luamod_src?2code?2server@ 00631a90     sv_init.obj
 0003:00008ac4       ??_C@_0BM@HIHCAEOD@SV_Startup?3?5svs?4initialized?$AA@ 00631ac4     sv_init.obj
 0003:00008ae8       ??_C@_0CK@OHCOEDEE@sv_maxclients?9?$DOinteger?5?$CK?5sizeof?$CI@ 00631ae8     sv_init.obj
 0003:00008b1c       ??_C@_09FHDGEKJP@vm?1?$CFs?4qvm?$AA@ 00631b1c     sv_init.obj
 0003:00008b28       ??_C@_0CF@MLCIJBNO@?9?9?9?9?9?9?9?9?9?9?9?9?9?9?9?9?9?9?9?9?9?9?9?9?9?9?9?9?9?9?9?9@ 00631b28     sv_init.obj
 0003:00008b54       ??_C@_0CO@LKBABFKA@WARNING?3?5sv_pure?5set?5but?5no?5PK3?5@ 00631b54     sv_init.obj
 0003:00008b8c       ??_C@_0P@HEEKJLPJ@sv_mapChecksum?$AA@ 00631b8c     sv_init.obj
 0003:00008ba0       ??_C@_0O@JEFGAJAK@map_restart?50?$AA@ 00631ba0     sv_init.obj
 0003:00008bb0       ??_C@_0CO@HKIBLAAD@sizeof?$CIentityState_t?$CJ?$CKsvs?4numSna@ 00631bb0     sv_init.obj
 0003:00008be8       ??_C@_0CF@OFBEAHFI@?9?9?9?9?9?9?5Server?5Initialization?5?9?9?9@ 00631be8     sv_init.obj
 0003:00008c14       ??_C@_0O@IIGECOIK@sv_strictAuth?$AA@ 00631c14     sv_init.obj
 0003:00008c24       ??_C@_0BA@DJIAIMF@sv_lanForceRate?$AA@ 00631c24     sv_init.obj
 0003:00008c38       ??_C@_0O@GOELPJCA@sv_padPackets?$AA@ 00631c38     sv_init.obj
 0003:00008c48       ??_C@_0M@EFKNOLKP@sv_showloss?$AA@ 00631c48     sv_init.obj
 0003:00008c58       ??_C@_0BC@MCFEMHMF@sv_reconnectlimit?$AA@ 00631c58     sv_init.obj
 0003:00008c70       ??_C@_0L@LLHDLDHL@sv_master5?$AA@ 00631c70     sv_init.obj
 0003:00008c80       ??_C@_0L@KCGIICDK@sv_master4?$AA@ 00631c80     sv_init.obj
 0003:00008c90       ??_C@_0L@ONCJBEPN@sv_master3?$AA@ 00631c90     sv_init.obj
 0003:00008ca0       ??_C@_0L@PEDCCFLM@sv_master2?$AA@ 00631ca0     sv_init.obj
 0003:00008cb0       ??_C@_0L@NPBPHGHP@sv_master1?$AA@ 00631cb0     sv_init.obj
 0003:00008cc0       ??_C@_0BB@MOCFKELF@sv_allowDownload?$AA@ 00631cc0     sv_init.obj
 0003:00008cd4       ??_C@_0O@LLNJEMPF@sv_zombietime?$AA@ 00631cd4     sv_init.obj
 0003:00008ce4       ??_C@_0L@MKEICGA@sv_timeout?$AA@ 00631ce4     sv_init.obj
 0003:00008cf4       ??_C@_06JGIFLGEL@sv_fps?$AA@ 00631cf4     sv_init.obj
 0003:00008cfc       ??_C@_0BD@HGHMKODF@sv_privatePassword?$AA@ 00631cfc     sv_init.obj
 0003:00008d14       ??_C@_0BA@HMJAMCL@sv_floodProtect?$AA@ 00631d14     sv_init.obj
 0003:00008d28       ??_C@_0L@DCJCBAAG@sv_maxPing?$AA@ 00631d28     sv_init.obj
 0003:00008d38       ??_C@_0L@NEPCLPOH@sv_minPing?$AA@ 00631d38     sv_init.obj
 0003:00008d48       ??_C@_0L@KOGBCPKN@sv_maxRate?$AA@ 00631d48     sv_init.obj
 0003:00008d58       ??_C@_0M@NHCIKFPA@sv_hostname?$AA@ 00631d58     sv_init.obj
 0003:00008d68       ??_C@_06LNKFDEGN@noname?$AA@ 00631d68     sv_init.obj
 0003:00008d70       ??_C@_0BC@BAEHHBBD@sv_privateClients?$AA@ 00631d70     sv_init.obj
 0003:00008d88       ??_C@_05MIMHCHNF@nomap?$AA@ 00631d88     sv_init.obj
 0003:00008d90       ??_C@_0M@DBAEPHIE@sv_keywords?$AA@ 00631d90     sv_init.obj
 0003:00008da0       ??_C@_09KPHKOKCC@timelimit?$AA@ 00631da0     sv_init.obj
 0003:00008dac       ??_C@_09GCIEGDDN@fraglimit?$AA@ 00631dac     sv_init.obj
 0003:00008db8       ??_C@_07GMGCLCAP@dmflags?$AA@ 00631db8     sv_init.obj
 0003:00008dc4       ??_C@_0BN@CHNIPINJ@?9?9?9?9?9?9?9?9?9?9?9?9?9?9?9?9?9?9?9?9?9?9?9?9?9?9?9?6?$AA@ 00631dc4     sv_init.obj
 0003:00008de8       ??_C@_0BN@MINIHLBM@?9?9?9?9?9?5Server?5Shutdown?5?9?9?9?9?9?6?$AA@ 00631de8     sv_init.obj
 0003:00008e0c       ??_C@_05FEKEECGM@cs?5?$CFi?$AA@ 00631e0c     sv_main.obj
 0003:00008e14       ??_C@_0BI@BCMAPBDO@Server?5command?5overflow?$AA@ 00631e14     sv_main.obj
 0003:00008e30       ??_C@_0N@HPDJBMCC@cmd?5?$CF5d?3?5?$CFs?6?$AA@ 00631e30     sv_main.obj
 0003:00008e40       ??_C@_0CF@DKJKGIEJ@?$DN?$DN?$DN?$DN?$DN?5pending?5server?5commands?5?$DN?$DN@ 00631e40     sv_main.obj
 0003:00008e6c       ??_C@_0P@KHEIJHKL@broadcast?3?5?$CFs?6?$AA@ 00631e6c     sv_main.obj
 0003:00008e80       ??_C@_0O@MFJONBCN@heartbeat?5?$CFs?6?$AA@ 00631e80     sv_main.obj
 0003:00008e90       ??_C@_0N@KDHOMFCK@QuakeArena?91?$AA@ 00631e90     sv_main.obj
 0003:00008ea0       ??_C@_0BJ@FPIJBFOP@Sending?5heartbeat?5to?5?$CFs?6?$AA@ 00631ea0     sv_main.obj
 0003:00008ec0       ??_C@_0BO@EBNPOCKC@Couldn?8t?5resolve?5address?3?5?$CFs?6?$AA@ 00631ec0     sv_main.obj
 0003:00008ee4       ??_C@_0BF@DMGFDDCI@statusResponse?6?$CFs?6?$CFs?$AA@ 00631ee4     sv_main.obj
 0003:00008f00       ??_C@_0M@FDOKAKMK@?$CFi?5?$CFi?5?$CC?$CFs?$CC?6?$AA@ 00631f00     sv_main.obj
 0003:00008f10       ??_C@_07CCFMBAIN@demo?5?$CFs?$AA@ 00631f10     sv_main.obj
 0003:00008f1c       ??_C@_0BA@ECLOOOJB@infoResponse?6?$CFs?$AA@ 00631f1c     sv_main.obj
 0003:00008f30       ??_C@_07NELDBAJ@maxPing?$AA@ 00631f30     sv_main.obj
 0003:00008f3c       ??_C@_07OLCLJOOI@minPing?$AA@ 00631f3c     sv_main.obj
 0003:00008f48       ??_C@_04NDBBJLFP@pure?$AA@ 00631f48     sv_main.obj
 0003:00008f50       ??_C@_08HCILNBCA@print?6?$CFs?$AA@ 00631f50     sv_main.obj
 0003:00008f5c       ??_C@_0BD@LBHHIPJJ@Bad?5rconpassword?4?6?$AA@ 00631f5c     sv_main.obj
 0003:00008f74       ??_C@_0CE@LDGIIONG@No?5rconpassword?5set?5on?5the?5serve@ 00631f74     sv_main.obj
 0003:00008fa0       ??_C@_0BC@EHLDDKCE@Rcon?5from?5?$CFs?3?6?$CFs?6?$AA@ 00631fa0     sv_main.obj
 0003:00008fb8       ??_C@_0BG@IKEHJABJ@Bad?5rcon?5from?5?$CFs?3?6?$CFs?6?$AA@ 00631fb8     sv_main.obj
 0003:00008fd4       ??_C@_0CH@NHBAICIE@bad?5connectionless?5packet?5from?5?$CF@ 00631fd4     sv_main.obj
 0003:00009004       ??_C@_0M@OJIOIONL@ipAuthorize?$AA@ 00632004     sv_main.obj
 0003:00009014       ??_C@_07OICKPAFH@getinfo?$AA@ 00632014     sv_main.obj
 0003:00009020       ??_C@_0BD@JKPIBMPL@SV?5packet?5?$CFs?5?3?5?$CFs?6?$AA@ 00632020     sv_main.obj
 0003:00009038       ??_C@_0CN@BLLAHKEO@SV_PacketEvent?3?5fixing?5up?5a?5tran@ 00632038     sv_main.obj
 0003:00009070       ??_C@_09KJPPMAOI@timed?5out?$AA@ 00632070     sv_main.obj
 0003:0000907c       ??_C@_0CP@OAICOBIP@Going?5from?5CS_ZOMBIE?5to?5CS_FREE?5@ 0063207c     sv_main.obj
 0003:000090b4       ??_C@_0P@BKKOFHJN@map_restart?50?6?$AA@ 006320b4     sv_main.obj
 0003:000090c8       ??_C@_0DG@CKJAOBCN@Restarting?5server?5due?5to?5numSnap@ 006320c8     sv_main.obj
 0003:00009108       ??_C@_0O@PKDALKNK@vstr?5nextmap?6?$AA@ 00632108     sv_main.obj
 0003:00009118       ??_C@_0CH@OOPAJFOA@Restarting?5server?5due?5to?5time?5wr@ 00632118     sv_main.obj
 0003:00009148       ??_C@_0BE@KDNEMLAA@Server?5was?5killed?4?6?$AA@ 00632148     sv_main.obj
 0003:00009160       ??_C@_0DN@JABDKDJO@?$CD462?5Netchan_TransmitNextFragmen@ 00632160     sv_net_chan.obj
 0003:000091ac       ??_C@_0DC@LPKBFGIK@?$CD462?5Netchan_TransmitNextFragmen@ 006321ac     sv_net_chan.obj
 0003:000091e8       ??_C@_0EK@ODEKMBHH@?$CD462?5Netchan_TransmitNextFragmen@ 006321e8     sv_net_chan.obj
 0003:00009240       ??_C@_0EO@MKKMHFAL@netchan?5queue?5is?5not?5properly?5in@ 00632240     sv_net_chan.obj
 0003:000092a0       ??_C@_0BJ@BLLNBGAB@sizeof?$CInetchan_buffer_t?$CJ?$AA@ 006322a0     sv_net_chan.obj
 0003:000092c0       ??_C@_0CP@PLGIJNOB@c?3?2quake3?2luamod_src?2code?2server@ 006322c0     sv_net_chan.obj
 0003:000092f8       ??_C@_0DF@MDAEODOK@?$CD462?5SV_Netchan_Transmit?3?5unsent@ 006322f8     sv_net_chan.obj
 0003:00009338       ??_C@_0CA@BILMKJDC@WARNING?3?5msg?5overflowed?5for?5?$CFs?6?$AA@ 00632338     sv_snapshot.obj
 0003:00009360       ??_C@_0CO@GHMJABCI@?$CFs?3?5Delta?5request?5from?5out?5of?5da@ 00632360     sv_snapshot.obj
 0003:00009398       ??_C@_0CM@DLGJFOOO@?$CFs?3?5Delta?5request?5from?5out?5of?5da@ 00632398     sv_snapshot.obj
 0003:000093cc       ??_C@_0CB@DGHKPLAI@svs?4nextSnapshotEntities?5wrapped@ 006323cc     sv_snapshot.obj
 0003:000093f4       ??_C@_0CI@IHBPJMCI@SV_QsortEntityStates?3?5duplicated@ 006323f4     sv_snapshot.obj
 0003:00009424       ??_C@_0BP@KFJNHKJA@SVF_CLIENTMASK?3?5cientNum?5?$DO?532?6?$AA@ 00632424     sv_snapshot.obj
 0003:0000944c       ??_C@_0BJ@OGOHIIMC@FIXING?5ENT?9?$DOS?4NUMBER?$CB?$CB?$CB?6?$AA@ 0063244c     sv_snapshot.obj
 0003:0000946c       ??_C@_0BI@IINMPMIE@sector?5?$CFi?3?5?$CFi?5entities?6?$AA@ 0063246c     sv_world.obj
 0003:00009488       ??_C@_0DE@NOEMPBKJ@WARNING?3?5SV_UnlinkEntity?3?5not?5fo@ 00632488     sv_world.obj
 0003:000094c8       ??_C@_0CI@LMCDEPAK@Object?5?$CFi?5touching?53?5areas?5at?5?$CFf@ 006324c8     sv_world.obj
 0003:000094f8       ??_C@_0BL@IPEAAEPI@SV_AreaEntities?3?5MAXCOUNT?6?$AA@ 006324f8     sv_world.obj
 0003:00009804       ??_C@_09LKAEBKHC@?$CI0x400?$CJ?$CL4?$AA@ 00632804     unzip.obj
 0003:00009810       ??_C@_0CK@OCJNCAFL@c?3?2quake3?2luamod_src?2code?2qcommo@ 00632810     unzip.obj
 0003:00009844       ??_C@_0O@EFIHHCBB@sizeof?$CIunz_s?$CJ?$AA@ 00632844     unzip.obj
 0003:00009854       ??_C@_05HBMFIKCP@1?41?43?$AA@ 00632854     unzip.obj
 0003:0000985c       ??_C@_07MALFDJHD@?$CI65536?$CJ?$AA@ 0063285c     unzip.obj
 0003:00009868       ??_C@_0CA@DMEDNNCO@sizeof?$CIfile_in_zip_read_info_s?$CJ?$AA@ 00632868     unzip.obj
 0003:00009890       ??_C@_0BF@MEIGEHBE@incorrect?5data?5check?$AA@ 00632890     unzip.obj
 0003:000098ac       ??_C@_0BA@MOKMMFOD@need?5dictionary?$AA@ 006328ac     unzip.obj
 0003:000098c0       ??_C@_0BH@LIBMMIGA@incorrect?5header?5check?$AA@ 006328c0     unzip.obj
 0003:000098dc       ??_C@_0BE@EMOGCLGO@invalid?5window?5size?$AA@ 006328dc     unzip.obj
 0003:000098f4       ??_C@_0BL@IHKGDAEE@unknown?5compression?5method?$AA@ 006328f4     unzip.obj
 0003:00009914       ??_C@_0BK@BMMPFBBH@invalid?5bit?5length?5repeat?$AA@ 00632914     unzip.obj
 0003:00009934       ??_C@_0CE@GMIGFPBB@too?5many?5length?5or?5distance?5symb@ 00632934     unzip.obj
 0003:00009960       ??_C@_0BN@LGAADGOK@invalid?5stored?5block?5lengths?$AA@ 00632960     unzip.obj
 0003:00009984       ??_C@_0BD@PJCBIDD@invalid?5block?5type?$AA@ 00632984     unzip.obj
 0003:0000999c       ??_C@_0CE@LOHAHEGK@incomplete?5dynamic?5bit?5lengths?5t@ 0063299c     unzip.obj
 0003:000099c8       ??_C@_0CI@CGMOPDPD@oversubscribed?5dynamic?5bit?5lengt@ 006329c8     unzip.obj
 0003:000099f8       ??_C@_0CB@KPKKKLFO@empty?5distance?5tree?5with?5lengths@ 006329f8     unzip.obj
 0003:00009a20       ??_C@_0BJ@CBCPDPJF@incomplete?5distance?5tree?$AA@ 00632a20     unzip.obj
 0003:00009a40       ??_C@_0BN@KBLCDIAI@oversubscribed?5distance?5tree?$AA@ 00632a40     unzip.obj
 0003:00009a64       ??_C@_0BP@NEEEJJNA@incomplete?5literal?1length?5tree?$AA@ 00632a64     unzip.obj
 0003:00009a8c       ??_C@_0CD@GJIDGCKE@oversubscribed?5literal?1length?5tr@ 00632a8c     unzip.obj
 0003:00009ab8       ??_C@_0BG@LBKINIKP@invalid?5distance?5code?$AA@ 00632ab8     unzip.obj
 0003:00009ad4       ??_C@_0BM@FFFLPBBC@invalid?5literal?1length?5code?$AA@ 00632ad4     unzip.obj
 0003:00009af8       ??_C@_0L@NPFOAONJ@items?$CKsize?$AA@ 00632af8     unzip.obj
 0003:00009b08       ??_C@_06LIKFIMOC@vminfo?$AA@ 00632b08     vm.obj
 0003:00009b10       ??_C@_09GNBAHOHK@vmprofile?$AA@ 00632b10     vm.obj
 0003:00009b1c       ??_C@_05FKKECMBM@?$CFs?$CL?$CFi?$AA@ 00632b1c     vm.obj
 0003:00009b24       ??_C@_0L@CKHGNKPG@NO?5SYMBOLS?$AA@ 00632b24     vm.obj
 0003:00009b34       ??_C@_0BB@MJCHPEFI@After?5code?5block?$AA@ 00632b34     vm.obj
 0003:00009b48       ??_C@_0BC@NFLMMLOB@Before?5code?5block?$AA@ 00632b48     vm.obj
 0003:00009b60       ??_C@_0BL@FKOJLOGO@?$CFi?5symbols?5parsed?5from?5?$CFs?6?$AA@ 00632b60     vm.obj
 0003:00009b80       ??_C@_0BH@DLADEFCP@sizeof?$CI?5?$CKsym?5?$CJ?5?$CL?5chars?$AA@ 00632b80     vm.obj
 0003:00009b9c       ??_C@_0CH@LMILOBOC@c?3?2quake3?2luamod_src?2code?2qcommo@ 00632b9c     vm.obj
 0003:00009bcc       ??_C@_0CJ@KBFNJAIO@WARNING?3?5incomplete?5line?5at?5end?5@ 00632bcc     vm.obj
 0003:00009c00       ??_C@_0BP@EJCGAFI@Couldn?8t?5load?5symbol?5file?3?5?$CFs?6?$AA@ 00632c00     vm.obj
 0003:00009c28       ??_C@_09KLPMHLFB@vm?1?$CFs?4map?$AA@ 00632c28     vm.obj
 0003:00009c34       ??_C@_0BC@OPCEGJFC@?$CFs?5has?5bad?5header?$AA@ 00632c34     vm.obj
 0003:00009c4c       ??_C@_0BE@OFKMANMD@VM_Restart?5failed?4?6?$AA@ 00632c4c     vm.obj
 0003:00009c64       ??_C@_0BF@IGPEJINO@Loading?5vm?5file?5?$CFs?4?6?$AA@ 00632c64     vm.obj
 0003:00009c80       ??_C@_0O@HMGHEGLA@VM_Restart?$CI?$CJ?6?$AA@ 00632c80     vm.obj
 0003:00009c90       ??_C@_0CD@GEPNAEEP@?$CFs?5loaded?5in?5?$CFd?5bytes?5on?5the?5hun@ 00632c90     vm.obj
 0003:00009cbc       ??_C@_0BO@NHCCFDFI@vm?9?$DOinstructionPointersLength?$AA@ 00632cbc     vm.obj
 0003:00009ce0       ??_C@_0L@FOODFAEK@dataLength?$AA@ 00632ce0     vm.obj
 0003:00009cf0       ??_C@_08OEINOMOH@Failed?4?6?$AA@ 00632cf0     vm.obj
 0003:00009cfc       ??_C@_0CG@KNDPANGF@Failed?5to?5load?5dll?0?5looking?5for?5@ 00632cfc     vm.obj
 0003:00009d2c       ??_C@_0BG@JJIBCGPE@Loading?5dll?5file?5?$CFs?4?6?$AA@ 00632d2c     vm.obj
 0003:00009d48       ??_C@_0BI@IOGIAGHC@VM_Create?3?5no?5free?5vm_t?$AA@ 00632d48     vm.obj
 0003:00009d64       ??_C@_0BF@IGDBCBGP@VM_Create?3?5bad?5parms?$AA@ 00632d64     vm.obj
 0003:00009d80       ??_C@_0P@LAPBOIJN@VM_Call?$CI?5?$CFi?5?$CJ?6?$AA@ 00632d80     vm.obj
 0003:00009d94       ??_C@_0BF@GNADHAJC@VM_Call?5with?5NULL?5vm?$AA@ 00632d94     vm.obj
 0003:00009db0       ??_C@_0BB@NCIFAMHB@?5?5?5?5?$CF9?40f?5total?6?$AA@ 00632db0     vm.obj
 0003:00009dc4       ??_C@_0O@DAPAGLHI@?$CF2i?$CF?$CF?5?$CF9i?5?$CFs?6?$AA@ 00632dc4     vm.obj
 0003:00009dd4       ??_C@_0CD@HGNPMPMC@vm?9?$DOnumSymbols?5?$CK?5sizeof?$CI?5?$CKsorted@ 00632dd4     vm.obj
 0003:00009e00       ??_C@_0BH@DGKALKOH@?5?5?5?5data?5length?5?3?5?$CF7i?6?$AA@ 00632e00     vm.obj
 0003:00009e1c       ??_C@_0BH@PPKCIMFO@?5?5?5?5table?5length?3?5?$CF7i?6?$AA@ 00632e1c     vm.obj
 0003:00009e38       ??_C@_0BH@KGNDPGNP@?5?5?5?5code?5length?5?3?5?$CF7i?6?$AA@ 00632e38     vm.obj
 0003:00009e54       ??_C@_0N@CFOLNHPI@interpreted?6?$AA@ 00632e54     vm.obj
 0003:00009e64       ??_C@_0BC@GEADELFK@compiled?5on?5load?6?$AA@ 00632e64     vm.obj
 0003:00009e7c       ??_C@_07IMELJBKE@native?6?$AA@ 00632e7c     vm.obj
 0003:00009e88       ??_C@_05LLGELLBM@?$CFs?5?3?5?$AA@ 00632e88     vm.obj
 0003:00009e90       ??_C@_0BO@GJPNKMOM@Registered?5virtual?5machines?3?6?$AA@ 00632e90     vm.obj
 0003:00009eb4       ??_C@_0BL@KGOIDDFO@?$CFi?3?5?$CFi?5?$CI?$CFi?$CJ?5?$DN?5?$CFi?5?$CFi?5?$CFi?5?$CFi?6?$AA@ 00632eb4     vm.obj
 0003:00009ed4       ??_C@_0N@HIIMEIJN@syscalls?4log?$AA@ 00632ed4     vm.obj
 0003:00009ee4       ??_C@_01NOFIACDB@w?$AA@    00632ee4     vm.obj
 0003:00009ee8       ??_C@_0CJ@PMEMCJLI@?5?5?5?5?5?5?5?5?5?5?5?5?5?5?5?5?5?5?5?5?5?5?5?5?5?5?5?5?5?5?5?5@ 00632ee8     vm_interpreted.obj
 0003:00009f1c       ??_C@_0CP@GJNCCGPN@VM_PrepareInterpreter?3?5pc?5?$DO?5head@ 00632f1c     vm_interpreted.obj
 0003:00009f54       ??_C@_0BB@PNMEHFJC@vm?9?$DOcodeLength?$CK4?$AA@ 00632f54     vm_interpreted.obj
 0003:00009f68       ??_C@_0DD@FBCIEKEA@c?3?2quake3?2luamod_src?2code?2qcommo@ 00632f68     vm_interpreted.obj
 0003:00009fa8       ??_C@_0CA@CCJDPMLL@Interpreter?5error?3?5opStack?5?$DN?5?$CFi?$AA@ 00632fa8     vm_interpreted.obj
 0003:00009fd0       ??_C@_0CA@KLAFBCCD@OP_BLOCK_COPY?5not?5dword?5aligned?$AA@ 00632fd0     vm_interpreted.obj
 0003:00009ff8       ??_C@_05KHJPBIKP@8B?51F?$AA@ 00632ff8     vm_x86.obj
 0003:0000a000       ??_C@_02LBOPFCME@BB?$AA@   00633000     vm_x86.obj
 0003:0000a004       ??_C@_05EEBJOGGM@8B?5D8?$AA@ 00633004     vm_x86.obj
 0003:0000a00c       ??_C@_0BD@LHJDCNBD@Hex?3?5bad?5char?5?8?$CFc?8?$AA@ 0063300c     vm_x86.obj
 0003:0000a024       ??_C@_0CJ@IMEHDLPA@VM?5file?5?$CFs?5compiled?5to?5?$CFi?5bytes?5@ 00633024     vm_x86.obj
 0003:0000a058       ??_C@_0M@PAHGKOCK@compiledOfs?$AA@ 00633058     vm_x86.obj
 0003:0000a068       ??_C@_0CK@EFPLJADG@VM_CompileX86?3?5bad?5opcode?5?$CFi?5at?5@ 00633068     vm_x86.obj
 0003:0000a09c       ??_C@_08KBFJACGK@FF?524?585?$AA@ 0063309c     vm_x86.obj
 0003:0000a0a8       ??_C@_02KPBALKNG@5E?$AA@   006330a8     vm_x86.obj
 0003:0000a0ac       ??_C@_02IEDNOJBF@5F?$AA@   006330ac     vm_x86.obj
 0003:0000a0b0       ??_C@_05COGPPAE@F3?5A5?$AA@ 006330b0     vm_x86.obj
 0003:0000a0b8       ??_C@_05LKKMOIGM@03?5FB?$AA@ 006330b8     vm_x86.obj
 0003:0000a0c0       ??_C@_05CCLENIBL@23?5F8?$AA@ 006330c0     vm_x86.obj
 0003:0000a0c8       ??_C@_05IMIIKANL@03?5F3?$AA@ 006330c8     vm_x86.obj
 0003:0000a0d0       ??_C@_05OKGNFCBD@23?5F0?$AA@ 006330d0     vm_x86.obj
 0003:0000a0d8       ??_C@_02HNCEPCPJ@B9?$AA@   006330d8     vm_x86.obj
 0003:0000a0dc       ??_C@_08OJKHKNOB@8B?57F?5FC?$AA@ 006330dc     vm_x86.obj
 0003:0000a0e8       ??_C@_05JCDPIEHG@8B?537?$AA@ 006330e8     vm_x86.obj
 0003:0000a0f0       ??_C@_02LCBJKBKC@57?$AA@   006330f0     vm_x86.obj
 0003:0000a0f4       ??_C@_08JGPFDFGB@0F?5BF?507?$AA@ 006330f4     vm_x86.obj
 0003:0000a100       ??_C@_08NBFFEPLB@0F?5BE?507?$AA@ 00633100     vm_x86.obj
 0003:0000a10c       ??_C@_05OMJJPHJF@DB?507?$AA@ 0063310c     vm_x86.obj
 0003:0000a114       ??_C@_08LFPHLGAB@D8?54f?504?$AA@ 00633114     vm_x86.obj
 0003:0000a120       ??_C@_08DGBACCNE@D8?577?504?$AA@ 00633120     vm_x86.obj
 0003:0000a12c       ??_C@_08PNEMPBHB@D8?567?504?$AA@ 0063312c     vm_x86.obj
 0003:0000a138       ??_C@_08EDMCLBON@D9?55F?5FC?$AA@ 00633138     vm_x86.obj
 0003:0000a144       ??_C@_05FPPLAPPL@D8?507?$AA@ 00633144     vm_x86.obj
 0003:0000a14c       ??_C@_08EMCMKLDH@D9?547?5FC?$AA@ 0063314c     vm_x86.obj
 0003:0000a158       ??_C@_05FFHNAEML@D9?51F?$AA@ 00633158     vm_x86.obj
 0003:0000a160       ??_C@_05HPOABKDH@D9?5E0?$AA@ 00633160     vm_x86.obj
 0003:0000a168       ??_C@_05GCJLCGEL@D9?507?$AA@ 00633168     vm_x86.obj
 0003:0000a170       ??_C@_08FEJGNPIL@D3?56F?5FC?$AA@ 00633170     vm_x86.obj
 0003:0000a17c       ??_C@_08JPMKAMCO@D3?57F?5FC?$AA@ 0063317c     vm_x86.obj
 0003:0000a188       ??_C@_08JACEBGPE@D3?567?5FC?$AA@ 00633188     vm_x86.obj
 0003:0000a194       ??_C@_05KGFNHCJI@8B?50F?$AA@ 00633194     vm_x86.obj
 0003:0000a19c       ??_C@_05JBKBFDBG@F7?517?$AA@ 0063319c     vm_x86.obj
 0003:0000a1a4       ??_C@_08LALBOJO@31?547?5FC?$AA@ 006331a4     vm_x86.obj
 0003:0000a1b0       ??_C@_08OBGDDJOO@09?547?5FC?$AA@ 006331b0     vm_x86.obj
 0003:0000a1bc       ??_C@_08BMHAAKNN@21?547?5FC?$AA@ 006331bc     vm_x86.obj
 0003:0000a1c8       ??_C@_05JDOHONEP@F7?527?$AA@ 006331c8     vm_x86.obj
 0003:0000a1d0       ??_C@_05KFMDKFPI@F7?52F?$AA@ 006331d0     vm_x86.obj
 0003:0000a1d8       ??_C@_08JBOHEIFD@89?557?5FC?$AA@ 006331d8     vm_x86.obj
 0003:0000a1e4       ??_C@_05JCCFIHHI@F7?537?$AA@ 006331e4     vm_x86.obj
 0003:0000a1ec       ??_C@_05BAIDDHFK@33?5D2?$AA@ 006331ec     vm_x86.obj
 0003:0000a1f4       ??_C@_08FKLLJLPG@89?547?5FC?$AA@ 006331f4     vm_x86.obj
 0003:0000a200       ??_C@_05KEABMPMP@F7?53F?$AA@ 00633200     vm_x86.obj
 0003:0000a208       ??_C@_02CFIAHFEI@99?$AA@   00633208     vm_x86.obj
 0003:0000a20c       ??_C@_08KLIBBGDA@8B?547?5FC?$AA@ 0063320c     vm_x86.obj
 0003:0000a218       ??_C@_08MPJFBBGI@29?547?5FC?$AA@ 00633218     vm_x86.obj
 0003:0000a224       ??_C@_08DCIGCCFL@01?547?5FC?$AA@ 00633224     vm_x86.obj
 0003:0000a230       ??_C@_05KHIFBLKB@F7?51F?$AA@ 00633230     vm_x86.obj
 0003:0000a238       ??_C@_08KAABHBPO@F6?5C4?541?$AA@ 00633238     vm_x86.obj
 0003:0000a244       ??_C@_08KHAINJCC@F6?5C4?501?$AA@ 00633244     vm_x86.obj
 0003:0000a250       ??_C@_08LJBKEALP@F6?5C4?540?$AA@ 00633250     vm_x86.obj
 0003:0000a25c       ??_C@_05EGCGNCJ@DF?5E0?$AA@ 0063325c     vm_x86.obj
 0003:0000a264       ??_C@_08BDNPAFKM@D8?55F?508?$AA@ 00633264     vm_x86.obj
 0003:0000a270       ??_C@_08HMCOFAOE@D9?547?504?$AA@ 00633270     vm_x86.obj
 0003:0000a27c       ??_C@_05IBOGFJHE@72?506?$AA@ 0063327c     vm_x86.obj
 0003:0000a284       ??_C@_05HEGGPPLE@76?506?$AA@ 00633284     vm_x86.obj
 0003:0000a28c       ??_C@_05EJAGNGAE@77?506?$AA@ 0063328c     vm_x86.obj
 0003:0000a294       ??_C@_05LMIGHAME@73?506?$AA@ 00633294     vm_x86.obj
 0003:0000a29c       ??_C@_05EFFEJAAL@7C?506?$AA@ 0063329c     vm_x86.obj
 0003:0000a2a4       ??_C@_05MKBEGFKL@7E?506?$AA@ 006332a4     vm_x86.obj
 0003:0000a2ac       ??_C@_05INLEBPHL@7F?506?$AA@ 006332ac     vm_x86.obj
 0003:0000a2b4       ??_C@_05PHHEEMBL@7D?506?$AA@ 006332b4     vm_x86.obj
 0003:0000a2bc       ??_C@_05OKGKMNE@74?506?$AA@ 006332bc     vm_x86.obj
 0003:0000a2c4       ??_C@_05GFGDEGLC@FF?525?$AA@ 006332c4     vm_x86.obj
 0003:0000a2cc       ??_C@_05DDMGIFGE@75?506?$AA@ 006332cc     vm_x86.obj
 0003:0000a2d4       ??_C@_08LFGDDMDC@3B?547?508?$AA@ 006332d4     vm_x86.obj
 0003:0000a2e0       ??_C@_08JLIDONOD@8B?547?504?$AA@ 006332e0     vm_x86.obj
 0003:0000a2ec       ??_C@_08KEGPAMOK@8B?55F?5FC?$AA@ 006332ec     vm_x86.obj
 0003:0000a2f8       ??_C@_08FFIEBBC@0F?5B6?583?$AA@ 006332f8     vm_x86.obj
 0003:0000a304       ??_C@_08DIDIGIKC@0F?5B7?583?$AA@ 00633304     vm_x86.obj
 0003:0000a310       ??_C@_05NBCLPNFA@8B?580?$AA@ 00633310     vm_x86.obj
 0003:0000a318       ??_C@_02LDEEJNBC@2D?$AA@   00633318     vm_x86.obj
 0003:0000a31c       ??_C@_05IIKCMFF@FF?58B?$AA@ 0063331c     vm_x86.obj
 0003:0000a324       ??_C@_02IGOEABML@05?$AA@   00633324     vm_x86.obj
 0003:0000a328       ??_C@_05PKAGKOJD@8B?583?$AA@ 00633328     vm_x86.obj
 0003:0000a330       ??_C@_05DOKOGEOC@FF?583?$AA@ 00633330     vm_x86.obj
 0003:0000a338       ??_C@_02IGAJHAEE@C3?$AA@   00633338     vm_x86.obj
 0003:0000a33c       ??_C@_05GBKHEHHI@81?5C6?$AA@ 0063333c     vm_x86.obj
 0003:0000a344       ??_C@_05GHCFPIOL@FF?515?$AA@ 00633344     vm_x86.obj
 0003:0000a34c       ??_C@_05NHKGMIGL@C7?586?$AA@ 0063334c     vm_x86.obj
 0003:0000a354       ??_C@_05JHDILAI@89?586?$AA@ 00633354     vm_x86.obj
 0003:0000a35c       ??_C@_05IDBKPHG@8D?586?$AA@ 0063335c     vm_x86.obj
 0003:0000a364       ??_C@_05MAKOKIJC@C7?507?$AA@ 00633364     vm_x86.obj
 0003:0000a36c       ??_C@_05BLKLDMOJ@81?52F?$AA@ 0063336c     vm_x86.obj
 0003:0000a374       ??_C@_05COALKADA@81?507?$AA@ 00633374     vm_x86.obj
 0003:0000a37c       ??_C@_05EJGEFGPN@88?583?$AA@ 0063337c     vm_x86.obj
 0003:0000a384       ??_C@_08PCPLBAHO@66?589?583?$AA@ 00633384     vm_x86.obj
 0003:0000a390       ??_C@_05HEAEHPEN@89?583?$AA@ 00633390     vm_x86.obj
 0003:0000a398       ??_C@_02GEDPMDLI@B8?$AA@   00633398     vm_x86.obj
 0003:0000a39c       ??_C@_08LELBAKK@0F?5B6?503?$AA@ 0063339c     vm_x86.obj
 0003:0000a3a8       ??_C@_08DGCLDJBK@0F?5B7?503?$AA@ 006333a8     vm_x86.obj
 0003:0000a3b4       ??_C@_05PEBFPPCL@8B?503?$AA@ 006333b4     vm_x86.obj
 0003:0000a3bc       ??_C@_05GBDIBBPP@81?5EE?$AA@ 006333bc     vm_x86.obj
 0003:0000a3c4       ??_C@_02KJDGAJLC@CC?$AA@   006333c4     vm_x86.obj
 0003:0000a3c8       ??_C@_0CH@KBPAIEIJ@VM_CompileX86?3?5pc?5?$DO?5header?9?$DOcode@ 006333c8     vm_x86.obj
 0003:0000a3f8       ??_C@_0CC@BBOPGMCE@VM_CompileX86?3?5maxLength?5exceede@ 006333f8     vm_x86.obj
 0003:0000a420       ??_C@_0BN@EHJNAPAJ@header?9?$DOinstructionCount?5?$CL?52?$AA@ 00633420     vm_x86.obj
 0003:0000a444       ??_C@_09KJHMKBNK@maxLength?$AA@ 00633444     vm_x86.obj
 0003:0000a450       ??_C@_0CL@NFOKKDHA@c?3?2quake3?2luamod_src?2code?2qcommo@ 00633450     vm_x86.obj
 0003:0000a484       ??_C@_08FDAACEPK@83?5EF?508?$AA@ 00633484     vm_x86.obj
 0003:0000a490       ??_C@_08PPLFGLPG@83?5EF?504?$AA@ 00633490     vm_x86.obj
 0003:0000a49c       ??_C@_05BOHLOLPB@89?507?$AA@ 0063349c     vm_x86.obj
 0003:0000a4a4       ??_C@_08ONFOEBJE@83?5C7?504?$AA@ 006334a4     vm_x86.obj
 0003:0000a4b0       ??_C@_05JAHJDKCP@8B?507?$AA@ 006334b0     vm_x86.obj
 0003:0000a4b8       ??_C@_0CI@DJIHNOJD@programStack?5corrupted?5in?5compil@ 006334b8     vm_x86.obj
 0003:0000a4e8       ??_C@_0CD@CEBALJKM@opStack?5corrupted?5in?5compiled?5co@ 006334e8     vm_x86.obj
 0003:0000a514       _GUID_SysMouse             00633514     win_input.obj
 0003:0000a524       _GUID_XAxis                00633524     win_input.obj
 0003:0000a534       _GUID_YAxis                00633534     win_input.obj
 0003:0000a544       _GUID_ZAxis                00633544     win_input.obj
 0003:0000a560       ??_C@_0BK@CCEBLJCF@DirectInput?5initialized?4?6?$AA@ 00633560     win_input.obj
 0003:0000a580       ??_C@_0BM@EODFEMCB@Couldn?8t?5set?5DI?5buffersize?6?$AA@ 00633580     win_input.obj
 0003:0000a5a4       ??_C@_0BM@NMAODKLJ@Couldn?8t?5set?5DI?5coop?5level?6?$AA@ 006335a4     win_input.obj
 0003:0000a5c8       ??_C@_0BO@BNCCIHMP@Couldn?8t?5set?5DI?5mouse?5format?6?$AA@ 006335c8     win_input.obj
 0003:0000a5ec       ??_C@_0BP@DAFJNOPB@Couldn?8t?5open?5DI?5mouse?5device?6?$AA@ 006335ec     win_input.obj
 0003:0000a614       ??_C@_0BL@ICIGFMME@iDirectInputCreate?5failed?6?$AA@ 00633614     win_input.obj
 0003:0000a634       ??_C@_0BL@FLLJFGNK@Couldn?8t?5get?5DI?5proc?5addr?6?$AA@ 00633634     win_input.obj
 0003:0000a654       ??_C@_0BD@BGJEDEPJ@DirectInputCreateA?$AA@ 00633654     win_input.obj
 0003:0000a66c       ??_C@_0BK@IKANOGNK@Couldn?8t?5load?5dinput?4dll?6?$AA@ 0063366c     win_input.obj
 0003:0000a68c       ??_C@_0L@NKFBIDA@dinput?4dll?$AA@ 0063368c     win_input.obj
 0003:0000a69c       ??_C@_0BN@PJMDGECC@Initializing?5DirectInput?4?4?4?6?$AA@ 0063369c     win_input.obj
 0003:0000a6c0       ??_C@_08EEBOBCCE@in_mouse?$AA@ 006336c0     win_input.obj
 0003:0000a6cc       ??_C@_02PGHGPEOM@?91?$AA@  006336cc     win_input.obj
 0003:0000a6d0       ??_C@_0CI@FHJNIMCC@Falling?5back?5to?5Win32?5mouse?5supp@ 006336d0     win_input.obj
 0003:0000a700       ??_C@_0DA@FHIPFOFL@No?5window?5for?5DirectInput?5mouse?5@ 00633700     win_input.obj
 0003:0000a73c       ??_C@_0CA@JLJBCBHD@Skipping?5check?5for?5DirectInput?6?$AA@ 0063373c     win_input.obj
 0003:0000a764       ??_C@_0CD@NBEAJIAO@Disallowing?5DirectInput?5on?5NT?54?4@ 00633764     win_input.obj
 0003:0000a790       ??_C@_0BL@CONMJMEO@Mouse?5control?5not?5active?4?6?$AA@ 00633790     win_input.obj
 0003:0000a7b0       ??_C@_0CH@JLLNFJIJ@?6?9?9?9?9?9?9?9?5Input?5Initialization?5?9?9@ 006337b0     win_input.obj
 0003:0000a7e0       ??_C@_08MKJIFFKA@midiinfo?$AA@ 006337e0     win_input.obj
 0003:0000a7ec       ??_C@_0O@CDIHIFMG@joy_threshold?$AA@ 006337ec     win_input.obj
 0003:0000a7fc       ??_C@_04FPIJCFHI@0?415?$AA@ 006337fc     win_input.obj
 0003:0000a804       ??_C@_0BB@KLDPJBGL@in_debugjoystick?$AA@ 00633804     win_input.obj
 0003:0000a818       ??_C@_0BA@FGPJKNGC@in_joyBallScale?$AA@ 00633818     win_input.obj
 0003:0000a82c       ??_C@_04BBAKNJII@0?402?$AA@ 0063382c     win_input.obj
 0003:0000a834       ??_C@_0M@MJEIGFNL@in_joystick?$AA@ 00633834     win_input.obj
 0003:0000a844       ??_C@_0P@GHEMCIPL@in_logitechbug?$AA@ 00633844     win_input.obj
 0003:0000a858       ??_C@_0O@ILMLMLBN@in_mididevice?$AA@ 00633858     win_input.obj
 0003:0000a868       ??_C@_0P@JPEONNIO@in_midichannel?$AA@ 00633868     win_input.obj
 0003:0000a87c       ??_C@_0M@MPFHODKD@in_midiport?$AA@ 0063387c     win_input.obj
 0003:0000a88c       ??_C@_07KPEFKOPL@in_midi?$AA@ 0063388c     win_input.obj
 0003:0000a898       ??_C@_0L@LKKCCEBO@r_glDriver?$AA@ 00633898     win_input.obj
 0003:0000a8a8       ??_C@_07DDONFNPJ@3dfxvgl?$AA@ 006338a8     win_input.obj
 0003:0000a8b4       ??_C@_0N@JILGCMBC@r_fullscreen?$AA@ 006338b4     win_input.obj
 0003:0000a8c4       ??_C@_0CE@IAFBHFFK@Proceeding?5with?5delayed?5mouse?5in@ 006338c4     win_input.obj
 0003:0000a8f0       ??_C@_07EMFEJGAN@no?5POV?6?$AA@ 006338f0     win_input.obj
 0003:0000a8fc       ??_C@_07GBHJMAHC@HASPOV?6?$AA@ 006338fc     win_input.obj
 0003:0000a908       ??_C@_0M@EMGDDLAE@Caps?3?50x?$CFx?6?$AA@ 00633908     win_input.obj
 0003:0000a918       ??_C@_0P@IHBPICK@Axis?3?5?$CFi?5?1?5?$CFi?6?$AA@ 00633918     win_input.obj
 0003:0000a92c       ??_C@_0BF@PJBJAPDP@Numbuttons?3?5?$CFi?5?1?5?$CFi?6?$AA@ 0063392c     win_input.obj
 0003:0000a948       ??_C@_0M@KEHKBEMN@RegKey?3?5?$CFs?6?$AA@ 00633948     win_input.obj
 0003:0000a958       ??_C@_0M@FCGKCNFI@OemVxD?3?5?$CFs?6?$AA@ 00633958     win_input.obj
 0003:0000a968       ??_C@_0L@KFAEIOHL@Pname?3?5?$CFs?6?$AA@ 00633968     win_input.obj
 0003:0000a978       ??_C@_0BB@MPGIOLMD@Joystick?5found?4?6?$AA@ 00633978     win_input.obj
 0003:0000a98c       ??_C@_0DK@KEFPCM@joystick?5not?5found?5?9?9?5invalid?5jo@ 0063398c     win_input.obj
 0003:0000a9d4       ??_C@_0CP@LGEKEFDA@joystick?5not?5found?5?9?9?5no?5valid?5j@ 006339d4     win_input.obj
 0003:0000aa0c       ??_C@_0CK@HJHGOPLD@joystick?5not?5found?5?9?9?5driver?5not@ 00633a0c     win_input.obj
 0003:0000aa40       ??_C@_0BJ@HFLDAPPJ@Joystick?5is?5not?5active?4?6?$AA@ 00633a40     win_input.obj
 0003:0000aa60       __real@40e0000000000000    00633a60     win_input.obj
 0003:0000aa6c       ??_C@_0CJ@POKLHOLL@?$CF8x?5?$CF5i?5?$CF5?42f?5?$CF5?42f?5?$CF5?42f?5?$CF5?42f?5@ 00633a6c     win_input.obj
 0003:0000aaa0       ??_C@_0BL@JNGNJJBL@?4?4?4product?5ID?3?5?5?5?5?5?50x?$CFhx?6?$AA@ 00633aa0     win_input.obj
 0003:0000aac0       ??_C@_0BL@MLLFNMAG@?4?4?4manufacturer?5ID?3?50x?$CFhx?6?$AA@ 00633ac0     win_input.obj
 0003:0000aae0       ??_C@_0BG@IFDHOHKE@device?5?$CF2d?3?5?5?5?5?5?5?5?$CFs?6?$AA@ 00633ae0     win_input.obj
 0003:0000aafc       ??_C@_03KHICJKCI@?4?4?4?$AA@ 00633afc     win_input.obj
 0003:0000ab00       ??_C@_03ELIFGAKH@?$CK?$CK?$CK?$AA@ 00633b00     win_input.obj
 0003:0000ab04       ??_C@_0BI@MOFLADHH@number?5of?5devices?3?5?5?$CFd?6?$AA@ 00633b04     win_input.obj
 0003:0000ab20       ??_C@_0BI@JCNHHIF@current?5device?3?5?5?5?5?5?$CFd?6?$AA@ 00633b20     win_input.obj
 0003:0000ab3c       ??_C@_0BI@MNCPBAID@channel?3?5?5?5?5?5?5?5?5?5?5?5?5?$CFd?6?$AA@ 00633b3c     win_input.obj
 0003:0000ab58       ??_C@_0BI@ONOGGNGI@port?3?5?5?5?5?5?5?5?5?5?5?5?5?5?5?5?$CFd?6?$AA@ 00633b58     win_input.obj
 0003:0000ab74       ??_C@_0BJ@JEGLDNKE@?6MIDI?5control?3?5?5?5?5?5?5?5?$CFs?6?$AA@ 00633b74     win_input.obj
 0003:0000ab94       ??_C@_07MHHIKOPA@enabled?$AA@ 00633b94     win_input.obj
 0003:0000aba0       ??_C@_08BEHKFNNO@disabled?$AA@ 00633ba0     win_input.obj
 0003:0000abac       ??_C@_0CO@BDCKEEAF@WARNING?3?5could?5not?5open?5MIDI?5dev@ 00633bac     win_input.obj
 0003:0000abe4       ??_C@_05BMGBEOOC@?$CFs?2?$CFs?$AA@ 00633be4     win_main.obj
 0003:0000abec       ??_C@_04EDLLLMBI@?$CFs?2?$CK?$AA@ 00633bec     win_main.obj
 0003:0000abf4       ??_C@_07PHOBPKGE@?$CFs?2?$CFs?2?$CK?$AA@ 00633bf4     win_main.obj
 0003:0000ac00       ??_C@_06HKFIIKHL@?$CFs?2?$CK?$CFs?$AA@ 00633c00     win_main.obj
 0003:0000ac08       ??_C@_0CL@FDFMMFE@c?3?2quake3?2luamod_src?2code?2win32?2@ 00633c08     win_main.obj
 0003:0000ac3c       ??_C@_0BC@PEIHHIKI@bin?2x86?2glibc?92?41?$AA@ 00633c3c     win_main.obj
 0003:0000ac54       ??_C@_01KDCPPGHE@r?$AA@    00633c54     win_main.obj
 0003:0000ac58       ??_C@_0L@BGCMICOJ@quake3?4exe?$AA@ 00633c58     win_main.obj
 0003:0000ac68       ??_C@_06IBGBCFGI@quake3?$AA@ 00633c68     win_main.obj
 0003:0000ac70       ??_C@_03HBAHNJNM@?6?$AN?$AI?$AA@ 00633c70     win_main.obj
 0003:0000ac74       ??_C@_0CB@IFJEAAIC@GlobalSize?$CI?5hClipboardData?5?$CJ?5?$CL?51@ 00633c74     win_main.obj
 0003:0000ac9c       ??_C@_0CB@NFLEJIB@Sys_UnloadDll?5FreeLibrary?5failed@ 00633c9c     win_main.obj
 0003:0000acc4       ??_C@_06MGMAGDAM@vmMain?$AA@ 00633cc4     win_main.obj
 0003:0000accc       ??_C@_08OHGJLDCF@dllEntry?$AA@ 00633ccc     win_main.obj
 0003:0000acd8       ??_C@_0BJ@OCBLAJAN@LoadLibrary?5?8?$CFs?8?5failed?6?$AA@ 00633cd8     win_main.obj
 0003:0000acf8       ??_C@_0BF@OOLKPJEM@LoadLibrary?5?8?$CFs?8?5ok?6?$AA@ 00633cf8     win_main.obj
 0003:0000ad14       ??_C@_09IAFMCHD@?$CFsx86?4dll?$AA@ 00633d14     win_main.obj
 0003:0000ad20       ??_C@_0BI@PJPKIIL@Sys_QueEvent?3?5overflow?6?$AA@ 00633d20     win_main.obj
 0003:0000ad3c       ??_C@_08ODGEKKOL@username?$AA@ 00633d3c     win_main.obj
 0003:0000ad48       ??_C@_09MHINEACI@sys_cpuid?$AA@ 00633d48     win_main.obj
 0003:0000ad54       ??_C@_0CF@BFIMMDPC@WARNING?3?5unknown?5sys_cpustring?5?8@ 00633d54     win_main.obj
 0003:0000ad80       ??_C@_03CIPMPAJL@axp?$AA@  00633d80     win_main.obj
 0003:0000ad84       ??_C@_0L@PLDMOKFD@PentiumIII?$AA@ 00633d84     win_main.obj
 0003:0000ad94       ??_C@_05FIGNBJMO@3dnow?$AA@ 00633d94     win_main.obj
 0003:0000ad9c       ??_C@_03LABOKELA@mmx?$AA@  00633d9c     win_main.obj
 0003:0000ada0       ??_C@_03MKEPLMIM@x87?$AA@  00633da0     win_main.obj
 0003:0000ada4       ??_C@_0BI@JHAKIADL@?4?4?4forcing?5CPU?5type?5to?5?$AA@ 00633da4     win_main.obj
 0003:0000adc0       ??_C@_0BF@GOCLOPNN@Unknown?5cpu?5type?5?$CFd?6?$AA@ 00633dc0     win_main.obj
 0003:0000addc       ??_C@_09DKIGPEEK@Alpha?5AXP?$AA@ 00633ddc     win_main.obj
 0003:0000ade8       ??_C@_0O@FJOEEOAJ@AMD?5w?1?53DNow?$CB?$AA@ 00633de8     win_main.obj
 0003:0000adf8       ??_C@_0BC@EEDJECOE@Intel?5Pentium?5III?$AA@ 00633df8     win_main.obj
 0003:0000ae10       ??_C@_0BH@CIDJJMAD@x86?5?$CIP5?1Pentium2?0?5MMX?$CJ?$AA@ 00633e10     win_main.obj
 0003:0000ae2c       ??_C@_0BH@DEPNLFPE@x86?5?$CIP5?1PPro?0?5non?9MMX?$CJ?$AA@ 00633e2c     win_main.obj
 0003:0000ae48       ??_C@_0BC@MJACFOKB@x86?5?$CIpre?9Pentium?$CJ?$AA@ 00633e48     win_main.obj
 0003:0000ae60       ??_C@_07DCLBNMLN@generic?$AA@ 00633e60     win_main.obj
 0003:0000ae6c       ??_C@_0BJ@GBJNEBBH@?4?4?4detecting?5CPU?0?5found?5?$AA@ 00633e6c     win_main.obj
 0003:0000ae8c       ??_C@_0O@PDIAGKHD@sys_cpustring?$AA@ 00633e8c     win_main.obj
 0003:0000ae9c       ??_C@_06EEDLFOCL@detect?$AA@ 00633e9c     win_main.obj
 0003:0000aea4       ??_C@_0M@EGGCJNOO@win_wndproc?$AA@ 00633ea4     win_main.obj
 0003:0000aeb4       ??_C@_0O@JFLHKJDK@win_hinstance?$AA@ 00633eb4     win_main.obj
 0003:0000aec4       ??_C@_0BI@LPAECBNN@unknown?5Windows?5variant?$AA@ 00633ec4     win_main.obj
 0003:0000aee0       ??_C@_05JOEKOKIA@win95?$AA@ 00633ee0     win_main.obj
 0003:0000aee8       ??_C@_0N@HFCODOMN@win95?5osr2?4x?$AA@ 00633ee8     win_main.obj
 0003:0000aef8       ??_C@_05CLOEJEMN@win98?$AA@ 00633ef8     win_main.obj
 0003:0000af00       ??_C@_04LLAMKKNO@arch?$AA@ 00633f00     win_main.obj
 0003:0000af08       ??_C@_05BONLKMPB@winnt?$AA@ 00633f08     win_main.obj
 0003:0000af10       ??_C@_0BN@CHAFMCKP@Quake3?5doesn?8t?5run?5on?5Win32s?$AA@ 00633f10     win_main.obj
 0003:0000af34       ??_C@_0CN@HNJMBKHO@Quake3?5requires?5Windows?5version?5@ 00633f34     win_main.obj
 0003:0000af6c       ??_C@_0BF@JBGMMOFJ@Couldn?8t?5get?5OS?5info?$AA@ 00633f6c     win_main.obj
 0003:0000af88       ??_C@_0M@BPCAELNM@net_restart?$AA@ 00633f88     win_main.obj
 0003:0000af98       ??_C@_0L@PEIHAAKP@in_restart?$AA@ 00633f98     win_main.obj
 0003:0000afa8       ??_C@_0BH@ECMEJIDF@Working?5directory?3?5?$CFs?6?$AA@ 00633fa8     win_main.obj
 0003:0000afc4       ??_C@_08LPKPOPGP@NO?5ERROR?$AA@ 00633fc4     win_net.obj
 0003:0000afd0       ??_C@_0L@CBLHPKCP@WSANO_DATA?$AA@ 00633fd0     win_net.obj
 0003:0000afe0       ??_C@_0P@HLNEBJNJ@WSANO_RECOVERY?$AA@ 00633fe0     win_net.obj
 0003:0000aff4       ??_C@_0N@LHDAEOPK@WSATRY_AGAIN?$AA@ 00633ff4     win_net.obj
 0003:0000b004       ??_C@_0BC@JCJCFNAO@WSAHOST_NOT_FOUND?$AA@ 00634004     win_net.obj
 0003:0000b01c       ??_C@_0BC@CLCHBKPK@WSANOTINITIALISED?$AA@ 0063401c     win_net.obj
 0003:0000b034       ??_C@_0BD@PKACBPOA@WSAVERNOTSUPPORTED?$AA@ 00634034     win_net.obj
 0003:0000b04c       ??_C@_0P@MDJAKAKC@WSASYSNOTREADY?$AA@ 0063404c     win_net.obj
 0003:0000b060       ??_C@_0N@NJBKCOKK@WSAEHOSTDOWN?$AA@ 00634060     win_net.obj
 0003:0000b070       ??_C@_0BA@PCKIJCGI@WSAENAMETOOLONG?$AA@ 00634070     win_net.obj
 0003:0000b084       ??_C@_08PGIMLMFD@WSAELOOP?$AA@ 00634084     win_net.obj
 0003:0000b090       ??_C@_0BA@ECEEDLKJ@WSAECONNREFUSED?$AA@ 00634090     win_net.obj
 0003:0000b0a4       ??_C@_0N@BJEDIOFA@WSAETIMEDOUT?$AA@ 006340a4     win_net.obj
 0003:0000b0b4       ??_C@_0BA@COKPFEMB@WSAETOOMANYREFS?$AA@ 006340b4     win_net.obj
 0003:0000b0c8       ??_C@_0N@JOJKMOCF@WSAESHUTDOWN?$AA@ 006340c8     win_net.obj
 0003:0000b0d8       ??_C@_0M@BJHJCMPN@WSAENOTCONN?$AA@ 006340d8     win_net.obj
 0003:0000b0e8       ??_C@_0L@KMBJICHC@WSAEISCONN?$AA@ 006340e8     win_net.obj
 0003:0000b0f8       ??_C@_0L@OOBBNNPD@WSAENOBUFS?$AA@ 006340f8     win_net.obj
 0003:0000b108       ??_C@_0O@CIPFFFJE@WSAECONNRESET?$AA@ 00634108     win_net.obj
 0003:0000b118       ??_C@_0BI@NPIHFCBB@WSWSAECONNABORTEDAEINTR?$AA@ 00634118     win_net.obj
 0003:0000b134       ??_C@_0N@KABONKCJ@WSAENETRESET?$AA@ 00634134     win_net.obj
 0003:0000b144       ??_C@_0P@MMGFNLEA@WSAENETUNREACH?$AA@ 00634144     win_net.obj
 0003:0000b158       ??_C@_0M@BMNODHFM@WSAENETDOWN?$AA@ 00634158     win_net.obj
 0003:0000b168       ??_C@_0BB@MBBPJMGK@WSAEADDRNOTAVAIL?$AA@ 00634168     win_net.obj
 0003:0000b17c       ??_C@_0O@OPDDJBEB@WSAEADDRINUSE?$AA@ 0063417c     win_net.obj
 0003:0000b18c       ??_C@_0BA@DNDGDCNF@WSAEAFNOSUPPORT?$AA@ 0063418c     win_net.obj
 0003:0000b1a0       ??_C@_0BA@KKILJDEG@WSAEPFNOSUPPORT?$AA@ 006341a0     win_net.obj
 0003:0000b1b4       ??_C@_0O@IFNEEJHC@WSAEOPNOTSUPP?$AA@ 006341b4     win_net.obj
 0003:0000b1c4       ??_C@_0BD@KNONLHOA@WSAESOCKTNOSUPPORT?$AA@ 006341c4     win_net.obj
 0003:0000b1dc       ??_C@_0BD@EDJBJFH@WSAEPROTONOSUPPORT?$AA@ 006341dc     win_net.obj
 0003:0000b1f4       ??_C@_0P@KODINEND@WSAENOPROTOOPT?$AA@ 006341f4     win_net.obj
 0003:0000b208       ??_C@_0O@HCKGAENP@WSAEPROTOTYPE?$AA@ 00634208     win_net.obj
 0003:0000b218       ??_C@_0M@PJKLHKI@WSAEMSGSIZE?$AA@ 00634218     win_net.obj
 0003:0000b228       ??_C@_0BA@BLGPIJAD@WSAEDESTADDRREQ?$AA@ 00634228     win_net.obj
 0003:0000b23c       ??_C@_0M@MDGNMGJ@WSAENOTSOCK?$AA@ 0063423c     win_net.obj
 0003:0000b24c       ??_C@_0M@EAGDEEAC@WSAEALREADY?$AA@ 0063424c     win_net.obj
 0003:0000b25c       ??_C@_0P@FHEJEBJC@WSAEINPROGRESS?$AA@ 0063425c     win_net.obj
 0003:0000b270       ??_C@_0P@BLDHJENA@WSAEWOULDBLOCK?$AA@ 00634270     win_net.obj
 0003:0000b284       ??_C@_09IJIBIDKO@WSAEMFILE?$AA@ 00634284     win_net.obj
 0003:0000b290       ??_C@_09PDAAOFKK@WSAEINVAL?$AA@ 00634290     win_net.obj
 0003:0000b29c       ??_C@_09BIHAGEEK@WSAEFAULT?$AA@ 0063429c     win_net.obj
 0003:0000b2a8       ??_C@_0L@EEHHIAEC@WSAEDISCON?$AA@ 006342a8     win_net.obj
 0003:0000b2b8       ??_C@_09EKFHKCJJ@WSAEACCES?$AA@ 006342b8     win_net.obj
 0003:0000b2c4       ??_C@_08LJKOCPDH@WSAEBADF?$AA@ 006342c4     win_net.obj
 0003:0000b2d0       ??_C@_08KEJFHKFF@WSAEINTR?$AA@ 006342d0     win_net.obj
 0003:0000b2dc       ??_C@_02NJNOFBBI@?$CFx?$AA@ 006342dc     win_net.obj
 0003:0000b2e0       ??_C@_0BJ@NDNBFPLK@Oversize?5packet?5from?5?$CFs?6?$AA@ 006342e0     win_net.obj
 0003:0000b300       ??_C@_0BD@GIOPKJNJ@NET_GetPacket?3?5?$CFs?6?$AA@ 00634300     win_net.obj
 0003:0000b318       ??_C@_0BE@DDOALEHF@NET_SendPacket?3?5?$CFs?6?$AA@ 00634318     win_net.obj
 0003:0000b330       ??_C@_0CB@JKHJHNNL@Sys_SendPacket?3?5bad?5address?5type@ 00634330     win_net.obj
 0003:0000b358       ??_C@_0BB@DIPHJIFE@IP?3?5?$CFi?4?$CFi?4?$CFi?4?$CFi?6?$AA@ 00634358     win_net.obj
 0003:0000b36c       ??_C@_0CD@BCJMGHPJ@WARNING?3?5UDP_OpenSocket?3?5bind?3?5?$CF@ 0063436c     win_net.obj
 0003:0000b398       ??_C@_0DG@CIGPJCJC@WARNING?3?5UDP_OpenSocket?3?5setsock@ 00634398     win_net.obj
 0003:0000b3d8       ??_C@_0CM@DLFGJOIC@WARNING?3?5UDP_OpenSocket?3?5ioctl?5F@ 006343d8     win_net.obj
 0003:0000b40c       ??_C@_0CF@MBEBDLFC@WARNING?3?5UDP_OpenSocket?3?5socket?3@ 0063440c     win_net.obj
 0003:0000b438       ??_C@_0CB@EGLAFCKD@Opening?5IP?5socket?3?5localhost?3?$CFi?6@ 00634438     win_net.obj
 0003:0000b460       ??_C@_0BK@FBACENIG@Opening?5IP?5socket?3?5?$CFs?3?$CFi?6?$AA@ 00634460     win_net.obj
 0003:0000b480       ??_C@_0CO@JGEDJDD@NET_OpenSocks?3?5relay?5address?5is?5@ 00634480     win_net.obj
 0003:0000b4b8       ??_C@_0CD@BALIMEMG@NET_OpenSocks?3?5request?5denied?3?5?$CF@ 006344b8     win_net.obj
 0003:0000b4e4       ??_C@_0CG@OEEMKDKJ@NET_OpenSocks?3?5authentication?5fa@ 006344e4     win_net.obj
 0003:0000b514       ??_C@_0BP@MFAELAIP@NET_OpenSocks?3?5request?5denied?6?$AA@ 00634514     win_net.obj
 0003:0000b53c       ??_C@_0BN@JGAEDBBB@NET_OpenSocks?3?5bad?5response?6?$AA@ 0063453c     win_net.obj
 0003:0000b560       ??_C@_0BJ@GIBPKBJF@NET_OpenSocks?3?5recv?3?5?$CFs?6?$AA@ 00634560     win_net.obj
 0003:0000b580       ??_C@_0BJ@OMJJFCJN@NET_OpenSocks?3?5send?3?5?$CFs?6?$AA@ 00634580     win_net.obj
 0003:0000b5a0       ??_C@_0BM@KKEOEFCP@NET_OpenSocks?3?5connect?3?5?$CFs?6?$AA@ 006345a0     win_net.obj
 0003:0000b5c8       ??_C@_0EF@JDPHELLH@WARNING?3?5NET_OpenSocks?3?5gethostb@ 006345c8     win_net.obj
 0003:0000b61c       ??_C@_0CL@NFJLJMMA@WARNING?3?5NET_OpenSocks?3?5gethostb@ 0063461c     win_net.obj
 0003:0000b650       ??_C@_0CE@LFANBIPO@WARNING?3?5NET_OpenSocks?3?5socket?3?5@ 00634650     win_net.obj
 0003:0000b67c       ??_C@_0CF@BHILGHLE@Opening?5connection?5to?5SOCKS?5serv@ 0063467c     win_net.obj
 0003:0000b6a8       ??_C@_0L@CGPAFLOO@Alias?3?5?$CFs?6?$AA@ 006346a8     win_net.obj
 0003:0000b6b8       ??_C@_0O@CBMKAPKN@Hostname?3?5?$CFs?6?$AA@ 006346b8     win_net.obj
 0003:0000b6c8       ??_C@_0CE@KJBINNKI@WARNING?3?5Couldn?8t?5allocate?5IP?5po@ 006346c8     win_net.obj
 0003:0000b6f4       ??_C@_08HGBCFGPE@net_port?$AA@ 006346f4     win_net.obj
 0003:0000b700       ??_C@_06BGCGFJHC@net_ip?$AA@ 00634700     win_net.obj
 0003:0000b708       ??_C@_0BP@HGPMDKOP@WARNING?3?5IPX_Socket?3?5bind?3?5?$CFs?6?$AA@ 00634708     win_net.obj
 0003:0000b730       ??_C@_0DC@FPOBNHBG@WARNING?3?5IPX_Socket?3?5setsockopt?5@ 00634730     win_net.obj
 0003:0000b76c       ??_C@_0CI@DCHMECMH@WARNING?3?5IPX_Socket?3?5ioctl?5FIONB@ 0063476c     win_net.obj
 0003:0000b79c       ??_C@_0CB@MIADMHKM@WARNING?3?5IPX_Socket?3?5socket?3?5?$CFs?6@ 0063479c     win_net.obj
 0003:0000b7c4       ??_C@_0BC@POLDBMKP@net_socksPassword?$AA@ 006347c4     win_net.obj
 0003:0000b7dc       ??_C@_0BC@MGKGECCL@net_socksUsername?$AA@ 006347dc     win_net.obj
 0003:0000b7f4       ??_C@_0O@DFGDDOCB@net_socksPort?$AA@ 006347f4     win_net.obj
 0003:0000b804       ??_C@_04KAIJODKO@1080?$AA@ 00634804     win_net.obj
 0003:0000b80c       ??_C@_0BA@CEJBNOOE@net_socksServer?$AA@ 0063480c     win_net.obj
 0003:0000b820       ??_C@_0BB@GKECMOEC@net_socksEnabled?$AA@ 00634820     win_net.obj
 0003:0000b834       ??_C@_09OEINMMAE@net_noipx?$AA@ 00634834     win_net.obj
 0003:0000b840       ??_C@_09CNLEKFIH@net_noudp?$AA@ 00634840     win_net.obj
 0003:0000b84c       ??_C@_0BF@DNHJMPMJ@Winsock?5Initialized?6?$AA@ 0063484c     win_net.obj
 0003:0000b868       ??_C@_0DF@DFODMHFF@WARNING?3?5Winsock?5initialization?5@ 00634868     win_net.obj
 0003:0000b8a8       ??_C@_06BALNJMNP@player?$AA@ 006348a8     win_shared.obj
 0003:0000b8b0       _CLSID_DirectSound         006348b0     win_snd.obj
 0003:0000b8c0       _CLSID_DirectSound8        006348c0     win_snd.obj
 0003:0000b8d0       _IID_IDirectSound8         006348d0     win_snd.obj
 0003:0000b8e0       _IID_IDirectSound          006348e0     win_snd.obj
 0003:0000b8fc       ??_C@_0BH@JMLLEGNC@?4?4?4freeing?5DSOUND?4DLL?6?$AA@ 006348fc     win_snd.obj
 0003:0000b918       ??_C@_0BI@ONFOIEFD@?4?4?4releasing?5DS?5object?6?$AA@ 00634918     win_snd.obj
 0003:0000b934       ??_C@_0BN@HLLBEHBP@?4?4?4releasing?5primary?5buffer?6?$AA@ 00634934     win_snd.obj
 0003:0000b958       ??_C@_0CI@NDEOJEHM@?4?4?4stopping?5and?5releasing?5sound?5@ 00634958     win_snd.obj
 0003:0000b988       ??_C@_0BO@IJKEIGDF@?4?4?4setting?5NORMAL?5coop?5level?6?$AA@ 00634988     win_snd.obj
 0003:0000b9ac       ??_C@_0BH@FLIOGFIE@Destroying?5DS?5buffers?6?$AA@ 006349ac     win_snd.obj
 0003:0000b9c8       ??_C@_0BM@OJIPGJEH@Shutting?5down?5sound?5system?6?$AA@ 006349c8     win_snd.obj
 0003:0000b9ec       ??_C@_0BI@GGLFCNB@Completed?5successfully?6?$AA@ 006349ec     win_snd.obj
 0003:0000ba08       ??_C@_0BI@JNPGMFHC@?$CK?$CK?$CK?5GetCaps?5failed?5?$CK?$CK?$CK?6?$AA@ 00634a08     win_snd.obj
 0003:0000ba24       ??_C@_0CC@IFPHFPKL@?$CK?$CK?$CK?5Looped?5sound?5play?5failed?5?$CK?$CK?$CK@ 00634a24     win_snd.obj
 0003:0000ba4c       ??_C@_0BJ@HLPNNPFF@forced?5to?5software?4?5?5ok?6?$AA@ 00634a4c     win_snd.obj
 0003:0000ba6c       ??_C@_0BG@MMNAOEAM@locked?5hardware?4?5?5ok?6?$AA@ 00634a6c     win_snd.obj
 0003:0000ba88       ??_C@_0BP@HGFEGEHO@?4?4?4creating?5secondary?5buffer?3?5?$AA@ 00634a88     win_snd.obj
 0003:0000bab0       ??_C@_0CH@HGNPMEEH@?4?4?4setting?5DSSCL_PRIORITY?5coop?5l@ 00634ab0     win_snd.obj
 0003:0000bae0       ??_C@_03DJDALPN@ok?6?$AA@  00634ae0     win_snd.obj
 0003:0000bae4       ??_C@_07GLGIIGGC@failed?6?$AA@ 00634ae4     win_snd.obj
 0003:0000baf0       ??_C@_0BK@NKEBHAFI@Initializing?5DirectSound?6?$AA@ 00634af0     win_snd.obj
 0003:0000bb10       ??_C@_0DD@BGCOLCPM@SNDDMA_BeginPainting?3?5Lock?5faile@ 00634b10     win_snd.obj
 0003:0000bb50       ??_C@_0CC@OAOFCFJN@Couldn?8t?5get?5sound?5buffer?5status@ 00634b50     win_snd.obj
 0003:0000bb78       ??_C@_0BG@FGFOLLAI@DSERR_PRIOLEVELNEEDED?$AA@ 00634b78     win_snd.obj
 0003:0000bb94       ??_C@_0BD@MODBPMIE@DSERR_INVALIDPARAM?$AA@ 00634b94     win_snd.obj
 0003:0000bbac       ??_C@_0BD@CHCMAAJB@DSERR_INVALIDCALLS?$AA@ 00634bac     win_snd.obj
 0003:0000bbc4       ??_C@_0BB@MLKAOHBD@DSERR_BUFFERLOST?$AA@ 00634bc4     win_snd.obj
 0003:0000bbd8       ??_C@_0CC@PKGMOMAO@sound?5SetCooperativeLevel?5failed@ 00634bd8     win_snd.obj
 0003:0000bc00       ??_C@_04COAGEIMF@copy?$AA@ 00634c00     win_syscon.obj
 0003:0000bc08       ??_C@_06HFKPFKMP@button?$AA@ 00634c08     win_syscon.obj
 0003:0000bc10       ??_C@_04NABONMNG@edit?$AA@ 00634c10     win_syscon.obj
 0003:0000bc18       ??_C@_0M@KGGAJAJ@Courier?5New?$AA@ 00634c18     win_syscon.obj
 0003:0000bc28       ??_C@_0BA@ODHMOKEJ@Quake?53?5Console?$AA@ 00634c28     win_syscon.obj
 0003:0000bc3c       ??_C@_0O@LCHGAMCF@Q3?5WinConsole?$AA@ 00634c3c     win_syscon.obj
 0003:0000bc4c       ??_C@_0CN@FPBLKFON@Invalid?5visLevel?5?$CFd?5sent?5to?5Sys_@ 00634c4c     win_syscon.obj
 0003:0000bc84       ??_C@_06GGHJAEBN@static?$AA@ 00634c84     win_syscon.obj
 0003:0000bc8c       ??_C@_0N@DAGNKKMD@vid_restart?6?$AA@ 00634c8c     win_wndproc.obj
 0003:0000bc9c       ??_C@_0BA@NAALPGKC@MSWHEEL_ROLLMSG?$AA@ 00634c9c     win_wndproc.obj
 0003:0000bcb0       ??_C@_08PKOLMEA@vid_ypos?$AA@ 00634cb0     win_wndproc.obj
 0003:0000bcbc       ??_C@_08DCMOJFPA@vid_xpos?$AA@ 00634cbc     win_wndproc.obj
 0003:0000bcc8       ??_C@_0BF@JDMIOBEC@VID_AppActivate?3?5?$CFi?6?$AA@ 00634cc8     win_wndproc.obj
 0003:0000bce4       ??_C@_0BI@OEAPLIMI@Mode?511?3?5856x480?5?$CIwide?$CJ?$AA@ 00634ce4     renderer:tr_init.obj
 0003:0000bd00       ??_C@_0BD@HLKNJPO@Mode?510?3?52048x1536?$AA@ 00634d00     renderer:tr_init.obj
 0003:0000bd18       ??_C@_0BD@JNNBKNHO@Mode?5?59?3?51600x1200?$AA@ 00634d18     renderer:tr_init.obj
 0003:0000bd30       ??_C@_0BD@DKPOHKD@Mode?5?58?3?51280x1024?$AA@ 00634d30     renderer:tr_init.obj
 0003:0000bd48       ??_C@_0BC@MHGKJHNA@Mode?5?57?3?51152x864?$AA@ 00634d48     renderer:tr_init.obj
 0003:0000bd60       ??_C@_0BC@HHENFJOI@Mode?5?56?3?51024x768?$AA@ 00634d60     renderer:tr_init.obj
 0003:0000bd78       ??_C@_0BB@IJBLHFE@Mode?5?55?3?5960x720?$AA@ 00634d78     renderer:tr_init.obj
 0003:0000bd8c       ??_C@_0BB@NNFNOODL@Mode?5?54?3?5800x600?$AA@ 00634d8c     renderer:tr_init.obj
 0003:0000bda0       ??_C@_0BB@LBLJFEKK@Mode?5?53?3?5640x480?$AA@ 00634da0     renderer:tr_init.obj
 0003:0000bdb4       ??_C@_0BB@BIPDPPJI@Mode?5?52?3?5512x384?$AA@ 00634db4     renderer:tr_init.obj
 0003:0000bdc8       ??_C@_0BB@MMHLKHAE@Mode?5?51?3?5400x300?$AA@ 00634dc8     renderer:tr_init.obj
 0003:0000bddc       ??_C@_0BB@CPBKKPEN@Mode?5?50?3?5320x240?$AA@ 00634ddc     renderer:tr_init.obj
 0003:0000bdf0       ??_C@_0BD@GFONGFHN@GL_CheckErrors?3?5?$CFs?$AA@ 00634df0     renderer:tr_init.obj
 0003:0000be08       ??_C@_0BB@JMBJBKGI@GL_OUT_OF_MEMORY?$AA@ 00634e08     renderer:tr_init.obj
 0003:0000be1c       ??_C@_0BD@KAJAFKFC@GL_STACK_UNDERFLOW?$AA@ 00634e1c     renderer:tr_init.obj
 0003:0000be34       ??_C@_0BC@DLCDMCHH@GL_STACK_OVERFLOW?$AA@ 00634e34     renderer:tr_init.obj
 0003:0000be4c       ??_C@_0BF@NFNGKHIL@GL_INVALID_OPERATION?$AA@ 00634e4c     renderer:tr_init.obj
 0003:0000be68       ??_C@_0BB@HDIPJELP@GL_INVALID_VALUE?$AA@ 00634e68     renderer:tr_init.obj
 0003:0000be7c       ??_C@_0BA@LLPLHEDK@GL_INVALID_ENUM?$AA@ 00634e7c     renderer:tr_init.obj
 0003:0000be90       ??_C@_0BN@MIOHCEKC@screenshots?1shot?$CFi?$CFi?$CFi?$CFi?4tga?$AA@ 00634e90     renderer:tr_init.obj
 0003:0000beb4       ??_C@_0BJ@GLPJAIDL@screenshots?1shot9999?4tga?$AA@ 00634eb4     renderer:tr_init.obj
 0003:0000bed4       ??_C@_0BN@DHBCBGHN@screenshots?1shot?$CFi?$CFi?$CFi?$CFi?4jpg?$AA@ 00634ed4     renderer:tr_init.obj
 0003:0000bef8       ??_C@_0BJ@JEAMDKOE@screenshots?1shot9999?4jpg?$AA@ 00634ef8     renderer:tr_init.obj
 0003:0000bf18       ??_C@_09CKEIHHKG@Wrote?5?$CFs?6?$AA@ 00634f18     renderer:tr_init.obj
 0003:0000bf24       __real@43c00000            00634f24     renderer:tr_init.obj
 0003:0000bf28       __real@44000000            00634f28     renderer:tr_init.obj
 0003:0000bf2c       ??_C@_0BC@PIIMIPAI@levelshots?1?$CFs?4tga?$AA@ 00634f2c     renderer:tr_init.obj
 0003:0000bf44       ??_C@_0CE@KCEHNJII@ScreenShot?3?5Couldn?8t?5create?5a?5fi@ 00634f44     renderer:tr_init.obj
 0003:0000bf70       ??_C@_0BD@HBDKKBCK@screenshots?1?$CFs?4tga?$AA@ 00634f70     renderer:tr_init.obj
 0003:0000bf88       ??_C@_06MJMIHDAA@silent?$AA@ 00634f88     renderer:tr_init.obj
 0003:0000bf90       ??_C@_09EFOFPGPE@levelshot?$AA@ 00634f90     renderer:tr_init.obj
 0003:0000bf9c       ??_C@_0BD@IOMPJDPF@screenshots?1?$CFs?4jpg?$AA@ 00634f9c     renderer:tr_init.obj
 0003:0000bfb4       ??_C@_07KOAACKLB@gfxinfo?$AA@ 00634fb4     renderer:tr_init.obj
 0003:0000bfc0       ??_C@_0P@HMAPNEDH@screenshotJPEG?$AA@ 00634fc0     renderer:tr_init.obj
 0003:0000bfd4       ??_C@_0L@CMHOPIGK@screenshot?$AA@ 00634fd4     renderer:tr_init.obj
 0003:0000bfe4       ??_C@_08JNNJIBJE@modelist?$AA@ 00634fe4     renderer:tr_init.obj
 0003:0000bff0       ??_C@_09EOKHBMCA@modellist?$AA@ 00634ff0     renderer:tr_init.obj
 0003:0000bffc       ??_C@_08HGIBIHIO@skinlist?$AA@ 00634ffc     renderer:tr_init.obj
 0003:0000c008       ??_C@_0L@LGFNICHF@shaderlist?$AA@ 00635008     renderer:tr_init.obj
 0003:0000c018       ??_C@_09JBMKNKFJ@imagelist?$AA@ 00635018     renderer:tr_init.obj
 0003:0000c024       ??_C@_0P@NIPCLOBB@r_maxpolyverts?$AA@ 00635024     renderer:tr_init.obj
 0003:0000c038       ??_C@_0L@CKEBPMHC@r_maxpolys?$AA@ 00635038     renderer:tr_init.obj
 0003:0000c048       ??_C@_0L@MAOLAFLC@cg_shadows?$AA@ 00635048     renderer:tr_init.obj
 0003:0000c058       ??_C@_0M@LGLKLKOB@r_noportals?$AA@ 00635058     renderer:tr_init.obj
 0003:0000c068       ??_C@_09OGELGAJA@r_lockpvs?$AA@ 00635068     renderer:tr_init.obj
 0003:0000c074       ??_C@_0N@EIKBMIBB@r_drawBuffer?$AA@ 00635074     renderer:tr_init.obj
 0003:0000c084       ??_C@_07KHDMNPGL@GL_BACK?$AA@ 00635084     renderer:tr_init.obj
 0003:0000c090       ??_C@_0O@BAMKGKDI@r_offsetunits?$AA@ 00635090     renderer:tr_init.obj
 0003:0000c0a0       ??_C@_02NNFLKHCP@?92?$AA@  006350a0     renderer:tr_init.obj
 0003:0000c0a4       ??_C@_0P@MNPHBPLD@r_offsetfactor?$AA@ 006350a4     renderer:tr_init.obj
 0003:0000c0b8       ??_C@_07CLHDHFMP@r_clear?$AA@ 006350b8     renderer:tr_init.obj
 0003:0000c0c4       ??_C@_0O@FPMANPKI@r_shownormals?$AA@ 006350c4     renderer:tr_init.obj
 0003:0000c0d4       ??_C@_09KIABLACG@r_showsky?$AA@ 006350d4     renderer:tr_init.obj
 0003:0000c0e0       ??_C@_0L@FFKAMJAN@r_showtris?$AA@ 006350e0     renderer:tr_init.obj
 0003:0000c0f0       ??_C@_08IPIKLPHC@r_nobind?$AA@ 006350f0     renderer:tr_init.obj
 0003:0000c0fc       ??_C@_09GELDECFH@r_logFile?$AA@ 006350fc     renderer:tr_init.obj
 0003:0000c108       ??_C@_09HIPDJBIH@r_verbose?$AA@ 00635108     renderer:tr_init.obj
 0003:0000c114       ??_C@_08ILOBJANK@r_speeds?$AA@ 00635114     renderer:tr_init.obj
 0003:0000c120       ??_C@_0O@EGPFGENM@r_showcluster?$AA@ 00635120     renderer:tr_init.obj
 0003:0000c130       ??_C@_07IFOJIEEJ@r_novis?$AA@ 00635130     renderer:tr_init.obj
 0003:0000c13c       ??_C@_08GDHICAID@r_nocull?$AA@ 0063513c     renderer:tr_init.obj
 0003:0000c148       ??_C@_08EKMCNKBJ@r_ignore?$AA@ 00635148     renderer:tr_init.obj
 0003:0000c154       ??_C@_0P@JAKGJBEE@r_drawentities?$AA@ 00635154     renderer:tr_init.obj
 0003:0000c168       ??_C@_0M@HGMGOPHP@r_norefresh?$AA@ 00635168     renderer:tr_init.obj
 0003:0000c178       ??_C@_0L@DPLFJPIH@r_lodscale?$AA@ 00635178     renderer:tr_init.obj
 0003:0000c188       ??_C@_0BC@NCGFPEJB@r_measureOverdraw?$AA@ 00635188     renderer:tr_init.obj
 0003:0000c1a0       ??_C@_0O@DPCGOEGM@r_skipBackEnd?$AA@ 006351a0     renderer:tr_init.obj
 0003:0000c1b0       ??_C@_09NNHMNIOD@r_showSmp?$AA@ 006351b0     renderer:tr_init.obj
 0003:0000c1bc       ??_C@_0M@PNEBDHMB@r_flareFade?$AA@ 006351bc     renderer:tr_init.obj
 0003:0000c1cc       ??_C@_01COCBENDE@7?$AA@    006351cc     renderer:tr_init.obj
 0003:0000c1d0       ??_C@_0M@IGENIJKG@r_flareSize?$AA@ 006351d0     renderer:tr_init.obj
 0003:0000c1e0       ??_C@_02PMJKFNFC@40?$AA@   006351e0     renderer:tr_init.obj
 0003:0000c1e4       ??_C@_0N@KANAPLNL@r_portalOnly?$AA@ 006351e4     renderer:tr_init.obj
 0003:0000c1f4       ??_C@_0L@GFIPPKI@r_lightmap?$AA@ 006351f4     renderer:tr_init.obj
 0003:0000c204       ??_C@_0M@BIOFCHNF@r_drawworld?$AA@ 00635204     renderer:tr_init.obj
 0003:0000c214       ??_C@_0L@IBLKDFNO@r_nocurves?$AA@ 00635214     renderer:tr_init.obj
 0003:0000c224       ??_C@_0P@IMHHMLJH@r_saveFontData?$AA@ 00635224     renderer:tr_init.obj
 0003:0000c238       ??_C@_0P@FPGBOPOJ@r_printShaders?$AA@ 00635238     renderer:tr_init.obj
 0003:0000c24c       ??_C@_0M@FAFKFKNC@r_debugSort?$AA@ 0063524c     renderer:tr_init.obj
 0003:0000c25c       ??_C@_0N@CLEJOIDB@r_debuglight?$AA@ 0063525c     renderer:tr_init.obj
 0003:0000c26c       ??_C@_0N@MJCHINNC@r_showImages?$AA@ 0063526c     renderer:tr_init.obj
 0003:0000c27c       ??_C@_0BA@JKEOFBGN@r_directedScale?$AA@ 0063527c     renderer:tr_init.obj
 0003:0000c290       ??_C@_0P@PCFMEOGO@r_ambientScale?$AA@ 00635290     renderer:tr_init.obj
 0003:0000c2a4       ??_C@_03JFFPCCNN@0?46?$AA@ 006352a4     renderer:tr_init.obj
 0003:0000c2a8       ??_C@_0N@MNJJLPGP@r_primitives?$AA@ 006352a8     renderer:tr_init.obj
 0003:0000c2b8       ??_C@_0BE@JCAJHBHI@r_railSegmentLength?$AA@ 006352b8     renderer:tr_init.obj
 0003:0000c2d0       ??_C@_0BA@KIFPEIFH@r_railCoreWidth?$AA@ 006352d0     renderer:tr_init.obj
 0003:0000c2e4       ??_C@_01DHDKHMHF@6?$AA@    006352e4     renderer:tr_init.obj
 0003:0000c2e8       ??_C@_0M@FCDKDOFO@r_railWidth?$AA@ 006352e8     renderer:tr_init.obj
 0003:0000c2f8       ??_C@_0BA@BPCDNPON@r_facePlaneCull?$AA@ 006352f8     renderer:tr_init.obj
 0003:0000c30c       ??_C@_07OFDDGDHB@r_gamma?$AA@ 0063530c     renderer:tr_init.obj
 0003:0000c318       ??_C@_0P@HNMDPIEI@r_swapInterval?$AA@ 00635318     renderer:tr_init.obj
 0003:0000c32c       ??_C@_0O@BGKNIDHM@r_textureMode?$AA@ 0063532c     renderer:tr_init.obj
 0003:0000c33c       ??_C@_0BJ@PCPDHFJH@GL_LINEAR_MIPMAP_NEAREST?$AA@ 0063533c     renderer:tr_init.obj
 0003:0000c35c       ??_C@_08BHIHIACG@r_finish?$AA@ 0063535c     renderer:tr_init.obj
 0003:0000c368       ??_C@_0O@PLDNGPHO@r_dlightBacks?$AA@ 00635368     renderer:tr_init.obj
 0003:0000c378       ??_C@_0P@CEODIJEF@r_dynamiclight?$AA@ 00635378     renderer:tr_init.obj
 0003:0000c38c       ??_C@_09JENCIPDG@r_drawSun?$AA@ 0063538c     renderer:tr_init.obj
 0003:0000c398       ??_C@_09DKHGHCIK@r_fastsky?$AA@ 00635398     renderer:tr_init.obj
 0003:0000c3a4       ??_C@_0BB@FAMAENF@r_ignoreGLErrors?$AA@ 006353a4     renderer:tr_init.obj
 0003:0000c3b8       ??_C@_07HFGKHFPM@r_znear?$AA@ 006353b8     renderer:tr_init.obj
 0003:0000c3c4       ??_C@_08PDJPECIC@r_flares?$AA@ 006353c4     renderer:tr_init.obj
 0003:0000c3d0       ??_C@_09MCCGJPLJ@r_lodbias?$AA@ 006353d0     renderer:tr_init.obj
 0003:0000c3dc       ??_C@_0BA@EEHBLFFN@r_lodCurveError?$AA@ 006353dc     renderer:tr_init.obj
 0003:0000c3f0       ??_C@_03HJHPABEB@250?$AA@  006353f0     renderer:tr_init.obj
 0003:0000c3f4       ??_C@_0P@ODPAICMO@r_singleShader?$AA@ 006353f4     renderer:tr_init.obj
 0003:0000c408       ??_C@_0M@IIHNMIDC@r_intensity?$AA@ 00635408     renderer:tr_init.obj
 0003:0000c418       ??_C@_0BE@MNKOGJGK@r_mapOverBrightBits?$AA@ 00635418     renderer:tr_init.obj
 0003:0000c430       ??_C@_0N@JEFJGNMG@r_fullbright?$AA@ 00635430     renderer:tr_init.obj
 0003:0000c440       ??_C@_0BB@FFCENIEG@r_displayRefresh?$AA@ 00635440     renderer:tr_init.obj
 0003:0000c454       ??_C@_0BB@JLILKIBL@r_ignoreFastPath?$AA@ 00635454     renderer:tr_init.obj
 0003:0000c468       ??_C@_05KECOIEHL@r_smp?$AA@ 00635468     renderer:tr_init.obj
 0003:0000c470       ??_C@_0P@CEFBGCNE@r_subdivisions?$AA@ 00635470     renderer:tr_init.obj
 0003:0000c484       ??_C@_0P@BJDDOIJN@r_uifullscreen?$AA@ 00635484     renderer:tr_init.obj
 0003:0000c498       ??_C@_0O@LOOKMMOO@r_vertexLight?$AA@ 00635498     renderer:tr_init.obj
 0003:0000c4a8       ??_C@_0BA@MPIFMBGH@r_simpleMipMaps?$AA@ 006354a8     renderer:tr_init.obj
 0003:0000c4bc       ??_C@_0P@PMHAFEHO@r_customaspect?$AA@ 006354bc     renderer:tr_init.obj
 0003:0000c4d0       ??_C@_0P@HHMLCCLC@r_customheight?$AA@ 006354d0     renderer:tr_init.obj
 0003:0000c4e4       ??_C@_04MJHCKDHM@1024?$AA@ 006354e4     renderer:tr_init.obj
 0003:0000c4ec       ??_C@_0O@EAAAAJJP@r_customwidth?$AA@ 006354ec     renderer:tr_init.obj
 0003:0000c4fc       ??_C@_04ILPBONMK@1600?$AA@ 006354fc     renderer:tr_init.obj
 0003:0000c504       ??_C@_06LBAPPDBG@r_mode?$AA@ 00635504     renderer:tr_init.obj
 0003:0000c50c       ??_C@_0BA@EIFIPMEJ@r_ignorehwgamma?$AA@ 0063550c     renderer:tr_init.obj
 0003:0000c520       ??_C@_0BB@FCPGIIJJ@r_overBrightBits?$AA@ 00635520     renderer:tr_init.obj
 0003:0000c534       ??_C@_0M@MLADPBHK@r_depthbits?$AA@ 00635534     renderer:tr_init.obj
 0003:0000c544       ??_C@_0O@HILFODLB@r_stencilbits?$AA@ 00635544     renderer:tr_init.obj
 0003:0000c554       ??_C@_08DKALIKIA@r_stereo?$AA@ 00635554     renderer:tr_init.obj
 0003:0000c560       ??_C@_0M@FAHBKNDA@r_colorbits?$AA@ 00635560     renderer:tr_init.obj
 0003:0000c570       ??_C@_0O@HAOJHCNC@r_texturebits?$AA@ 00635570     renderer:tr_init.obj
 0003:0000c580       ??_C@_0BB@OJJFINJB@r_detailtextures?$AA@ 00635580     renderer:tr_init.obj
 0003:0000c594       ??_C@_0BB@PCBDDBLH@r_colorMipLevels?$AA@ 00635594     renderer:tr_init.obj
 0003:0000c5a8       ??_C@_0BC@PNEOFHC@r_roundImagesDown?$AA@ 006355a8     renderer:tr_init.obj
 0003:0000c5c0       ??_C@_08PHNBMEML@r_picmip?$AA@ 006355c0     renderer:tr_init.obj
 0003:0000c5cc       ??_C@_0BG@OKHMCNAA@r_ext_texture_env_add?$AA@ 006355cc     renderer:tr_init.obj
 0003:0000c5e8       ??_C@_0BM@FKPHHJJN@r_ext_compiled_vertex_array?$AA@ 006355e8     renderer:tr_init.obj
 0003:0000c60c       ??_C@_0BD@DEGOFCOI@r_ext_multitexture?$AA@ 0063560c     renderer:tr_init.obj
 0003:0000c624       ??_C@_0BE@GKOFPKJD@r_ext_gamma_control?$AA@ 00635624     renderer:tr_init.obj
 0003:0000c63c       ??_C@_0BK@GPIDLLEE@r_ext_compressed_textures?$AA@ 0063563c     renderer:tr_init.obj
 0003:0000c65c       ??_C@_0BC@HJALDEG@r_allowExtensions?$AA@ 0063565c     renderer:tr_init.obj
 0003:0000c674       ??_C@_08EMLDNFIC@opengl32?$AA@ 00635674     renderer:tr_init.obj
 0003:0000c680       ??_C@_0CL@BOALOAHK@WARNING?3?5cvar?5?8?$CFs?8?5out?5of?5range?5@ 00635680     renderer:tr_init.obj
 0003:0000c6b4       ??_C@_0CL@IJJEPBFD@WARNING?3?5cvar?5?8?$CFs?8?5out?5of?5range?5@ 006356b4     renderer:tr_init.obj
 0003:0000c6e8       ??_C@_0CK@MCFFPBMM@WARNING?3?5cvar?5?8?$CFs?8?5must?5be?5integ@ 006356e8     renderer:tr_init.obj
 0003:0000c71c       ??_C@_0BC@IFPCCECI@Forcing?5glFinish?6?$AA@ 0063571c     renderer:tr_init.obj
 0003:0000c734       ??_C@_0CD@ECDDMNLK@Using?5dual?5processor?5acceleratio@ 00635734     renderer:tr_init.obj
 0003:0000c760       ??_C@_0BO@MIJCEOJG@HACK?3?5riva128?5approximations?6?$AA@ 00635760     renderer:tr_init.obj
 0003:0000c784       ??_C@_0BO@BGGGCGOF@HACK?3?5ragePro?5approximations?6?$AA@ 00635784     renderer:tr_init.obj
 0003:0000c7a8       ??_C@_0CL@DPDADBAH@HACK?3?5using?5vertex?5lightmap?5appr@ 006357a8     renderer:tr_init.obj
 0003:0000c7dc       ??_C@_0BJ@OONJCCFB@compressed?5textures?3?5?$CFs?6?$AA@ 006357dc     renderer:tr_init.obj
 0003:0000c7fc       ??_C@_0BA@EDNGJAE@texenv?5add?3?5?$CFs?6?$AA@ 006357fc     renderer:tr_init.obj
 0003:0000c810       ??_C@_0BM@JNLAHAFE@compiled?5vertex?5arrays?3?5?$CFs?6?$AA@ 00635810     renderer:tr_init.obj
 0003:0000c834       ??_C@_0BC@IPPCAGDE@multitexture?3?5?$CFs?6?$AA@ 00635834     renderer:tr_init.obj
 0003:0000c84c       ??_C@_0BC@OJIGLCBE@texture?5bits?3?5?$CFd?6?$AA@ 0063584c     renderer:tr_init.obj
 0003:0000c864       ??_C@_0M@HJDEHNFH@picmip?3?5?$CFd?6?$AA@ 00635864     renderer:tr_init.obj
 0003:0000c874       ??_C@_0BB@GDPDBBGK@texturemode?3?5?$CFs?6?$AA@ 00635874     renderer:tr_init.obj
 0003:0000c888       ??_C@_0DE@COMDCGLO@multiple?5glColor4ubv?5?$CL?5glTexCoor@ 00635888     renderer:tr_init.obj
 0003:0000c8c8       ??_C@_0BJ@OLJGLICH@multiple?5glArrayElement?6?$AA@ 006358c8     renderer:tr_init.obj
 0003:0000c8e8       ??_C@_0BH@GKJMINED@single?5glDrawElements?6?$AA@ 006358e8     renderer:tr_init.obj
 0003:0000c904       ??_C@_05IKLLBJL@none?6?$AA@ 00635904     renderer:tr_init.obj
 0003:0000c90c       ??_C@_0BH@MKBIGIHK@rendering?5primitives?3?5?$AA@ 0063590c     renderer:tr_init.obj
 0003:0000c928       ??_C@_08IFLGILAF@CPU?3?5?$CFs?6?$AA@ 00635928     renderer:tr_init.obj
 0003:0000c934       ??_C@_0CH@DOFMLBBC@GAMMA?3?5software?5w?1?5?$CFd?5overbright@ 00635934     renderer:tr_init.obj
 0003:0000c964       ??_C@_0CH@FPMGOKFJ@GAMMA?3?5hardware?5w?1?5?$CFd?5overbright@ 00635964     renderer:tr_init.obj
 0003:0000c994       ??_C@_04KNPIFONP@N?1A?6?$AA@ 00635994     renderer:tr_init.obj
 0003:0000c99c       ??_C@_03PMGGPEJJ@?$CFd?6?$AA@ 0063599c     renderer:tr_init.obj
 0003:0000c9a0       ??_C@_0BJ@PKACHHCP@MODE?3?5?$CFd?0?5?$CFd?5x?5?$CFd?5?$CFs?5hz?3?$AA@ 006359a0     renderer:tr_init.obj
 0003:0000c9c0       ??_C@_0DJ@HCPGCGMA@?6PIXELFORMAT?3?5color?$CI?$CFd?9bits?$CJ?5Z?$CI?$CF@ 006359c0     renderer:tr_init.obj
 0003:0000ca04       ??_C@_0CA@JDLIPENJ@GL_MAX_ACTIVE_TEXTURES_ARB?3?5?$CFd?6?$AA@ 00635a04     renderer:tr_init.obj
 0003:0000ca2c       ??_C@_0BJ@DOKOKCEC@GL_MAX_TEXTURE_SIZE?3?5?$CFd?6?$AA@ 00635a2c     renderer:tr_init.obj
 0003:0000ca4c       ??_C@_0BD@KJCGIEGA@GL_EXTENSIONS?3?5?$CFs?6?$AA@ 00635a4c     renderer:tr_init.obj
 0003:0000ca64       ??_C@_0BA@IECAGHEM@GL_VERSION?3?5?$CFs?6?$AA@ 00635a64     renderer:tr_init.obj
 0003:0000ca78       ??_C@_0BB@GPBJMNCI@GL_RENDERER?3?5?$CFs?6?$AA@ 00635a78     renderer:tr_init.obj
 0003:0000ca8c       ??_C@_0BA@JPIMJDLP@?6GL_VENDOR?3?5?$CFs?6?$AA@ 00635a8c     renderer:tr_init.obj
 0003:0000caa0       ??_C@_0L@GIACNHMO@fullscreen?$AA@ 00635aa0     renderer:tr_init.obj
 0003:0000cab0       ??_C@_08KIHLFLPI@windowed?$AA@ 00635ab0     renderer:tr_init.obj
 0003:0000cabc       ??_C@_0BN@PMHALLBM@?9?9?9?9?9?5finished?5R_Init?5?9?9?9?9?9?6?$AA@ 00635abc     renderer:tr_init.obj
 0003:0000cae0       ??_C@_0BF@GNBIIAHE@glGetError?$CI?$CJ?5?$DN?50x?$CFx?6?$AA@ 00635ae0     renderer:tr_init.obj
 0003:0000cb00       ??_C@_0FP@BGOINDMH@sizeof?$CI?5?$CKbackEndData?$FL1?$FN?5?$CJ?5?$CL?5size@ 00635b00     renderer:tr_init.obj
 0003:0000cb78       ??_C@_0FP@PBKHDCJM@sizeof?$CI?5?$CKbackEndData?$FL0?$FN?5?$CJ?5?$CL?5size@ 00635b78     renderer:tr_init.obj
 0003:0000cbec       ??_C@_0CN@JOPLDFKI@c?3?2quake3?2luamod_src?2code?2render@ 00635bec     renderer:tr_init.obj
 0003:0000cc24       __real@447fc000            00635c24     renderer:tr_init.obj
 0003:0000cc28       ??_C@_0CH@LEDEAOCO@WARNING?3?5tess?4xyz?5not?516?5byte?5al@ 00635c28     renderer:tr_init.obj
 0003:0000cc58       ??_C@_0BE@MDHPNILD@?9?9?9?9?9?5R_Init?5?9?9?9?9?9?6?$AA@ 00635c58     renderer:tr_init.obj
 0003:0000cc70       ??_C@_0M@KILDDLLK@shaderstate?$AA@ 00635c70     renderer:tr_init.obj
 0003:0000cc80       ??_C@_0BD@IGCMANBD@RE_Shutdown?$CI?5?$CFi?5?$CJ?6?$AA@ 00635c80     renderer:tr_init.obj
 0003:0000cc98       ??_C@_0DB@JNEJBLCB@Mismatched?5REF_API_VERSION?3?5expe@ 00635c98     renderer:tr_init.obj
 0003:0000ccd4       __real@3b449ba6            00635cd4     renderer:tr_main.obj
 0003:0000ccd8       __real@c2800000            00635cd8     renderer:tr_main.obj
 0003:0000ccdc       __real@42800000            00635cdc     renderer:tr_main.obj
 0003:0000cce0       ??_C@_0CI@MGFPEFGD@WARNING?3?5recursive?5mirror?1portal@ 00635ce0     renderer:tr_main.obj
 0003:0000cd10       ??_C@_0BH@PBFMNKGH@tess?4numVertexes?5?$DM?5128?$AA@ 00635d10     renderer:tr_main.obj
 0003:0000cd2c       ??_C@_0CN@KEEGBEJF@c?3?2quake3?2luamod_src?2code?2render@ 00635d2c     renderer:tr_main.obj
 0003:0000cd64       ??_C@_0BM@OBOEKKKL@change?5SWAP_DRAW_SURF?5macro?$AA@ 00635d64     renderer:tr_main.obj
 0003:0000cd88       ??_C@_0BP@DEDPBGDJ@Shader?5?8?$CFs?8with?5sort?5?$DN?$DN?5SS_BAD?$AA@ 00635d88     renderer:tr_main.obj
 0003:0000cdb0       ??_C@_0CA@HFCHICEL@R_AddEntitySurfaces?3?5Bad?5reType?$AA@ 00635db0     renderer:tr_main.obj
 0003:0000cdd8       ??_C@_0CD@MFJALMLM@R_AddEntitySurfaces?3?5Bad?5modelty@ 00635dd8     renderer:tr_main.obj
 0003:0000ce04       ??_C@_0BJ@IIAEBML@?4?4?4unloading?5OpenGL?5DLL?6?$AA@ 00635e04     renderer:win_qgl.obj
 0003:0000ce24       ??_C@_0BG@MCOGEHEL@?4?4?4shutting?5down?5QGL?6?$AA@ 00635e24     renderer:win_qgl.obj
 0003:0000ce40       ??_C@_0P@NIPKMJHJ@wglSwapBuffers?$AA@ 00635e40     renderer:win_qgl.obj
 0003:0000ce54       ??_C@_0BC@GFMMJIBD@wglSetPixelFormat?$AA@ 00635e54     renderer:win_qgl.obj
 0003:0000ce6c       ??_C@_0BC@KLNCGCDP@wglGetPixelFormat?$AA@ 00635e6c     renderer:win_qgl.obj
 0003:0000ce84       ??_C@_0BH@EEFLPPJN@wglDescribePixelFormat?$AA@ 00635e84     renderer:win_qgl.obj
 0003:0000cea0       ??_C@_0BF@KOEIAGCE@wglChoosePixelFormat?$AA@ 00635ea0     renderer:win_qgl.obj
 0003:0000cebc       ??_C@_0BE@CJLPKDLH@wglUseFontOutlinesA?$AA@ 00635ebc     renderer:win_qgl.obj
 0003:0000ced4       ??_C@_0BD@DNLKODH@wglUseFontBitmapsA?$AA@ 00635ed4     renderer:win_qgl.obj
 0003:0000ceec       ??_C@_0BE@JEAIHNHB@wglSwapLayerBuffers?$AA@ 00635eec     renderer:win_qgl.obj
 0003:0000cf04       ??_C@_0O@GCGJMHDL@wglShareLists?$AA@ 00635f04     renderer:win_qgl.obj
 0003:0000cf14       ??_C@_0BK@IDIDCPAL@wglSetLayerPaletteEntries?$AA@ 00635f14     renderer:win_qgl.obj
 0003:0000cf34       ??_C@_0BH@KGAMHPCJ@wglRealizeLayerPalette?$AA@ 00635f34     renderer:win_qgl.obj
 0003:0000cf50       ??_C@_0P@BBBFNDGG@wglMakeCurrent?$AA@ 00635f50     renderer:win_qgl.obj
 0003:0000cf64       ??_C@_0BC@FFKMKEGM@wglGetProcAddress?$AA@ 00635f64     renderer:win_qgl.obj
 0003:0000cf7c       ??_C@_0BK@ICKNAINE@wglGetLayerPaletteEntries?$AA@ 00635f7c     renderer:win_qgl.obj
 0003:0000cf9c       ??_C@_0BA@BMKCDCKD@wglGetCurrentDC?$AA@ 00635f9c     renderer:win_qgl.obj
 0003:0000cfb0       ??_C@_0BF@HABDPBMA@wglGetCurrentContext?$AA@ 00635fb0     renderer:win_qgl.obj
 0003:0000cfcc       ??_C@_0BG@CJLCKGBL@wglDescribeLayerPlane?$AA@ 00635fcc     renderer:win_qgl.obj
 0003:0000cfe8       ??_C@_0BB@OGAIJNNO@wglDeleteContext?$AA@ 00635fe8     renderer:win_qgl.obj
 0003:0000cffc       ??_C@_0BG@JIDGNHOC@wglCreateLayerContext?$AA@ 00635ffc     renderer:win_qgl.obj
 0003:0000d018       ??_C@_0BB@GHMBNOIP@wglCreateContext?$AA@ 00636018     renderer:win_qgl.obj
 0003:0000d02c       ??_C@_0P@BPLJMLAG@wglCopyContext?$AA@ 0063602c     renderer:win_qgl.obj
 0003:0000d040       ??_C@_0L@KBLIPDFH@glViewport?$AA@ 00636040     renderer:win_qgl.obj
 0003:0000d050       ??_C@_0BA@HAHECJNK@glVertexPointer?$AA@ 00636050     renderer:win_qgl.obj
 0003:0000d064       ??_C@_0M@BHICLKLB@glVertex4sv?$AA@ 00636064     renderer:win_qgl.obj
 0003:0000d074       ??_C@_0L@IMGCCGJH@glVertex4s?$AA@ 00636074     renderer:win_qgl.obj
 0003:0000d084       ??_C@_0M@GDDJMBH@glVertex4iv?$AA@ 00636084     renderer:win_qgl.obj
 0003:0000d094       ??_C@_0L@DMEPNMEM@glVertex4i?$AA@ 00636094     renderer:win_qgl.obj
 0003:0000d0a4       ??_C@_0M@NGPNLCK@glVertex4fv?$AA@ 006360a4     renderer:win_qgl.obj
 0003:0000d0b4       ??_C@_0L@LLNHMAID@glVertex4f?$AA@ 006360b4     renderer:win_qgl.obj
 0003:0000d0c4       ??_C@_0M@OOLAPEE@glVertex4dv?$AA@ 006360c4     renderer:win_qgl.obj
 0003:0000d0d4       ??_C@_0L@IJOBKCAB@glVertex4d?$AA@ 006360d4     renderer:win_qgl.obj
 0003:0000d0e4       ??_C@_0M@IKFFICAI@glVertex3sv?$AA@ 006360e4     renderer:win_qgl.obj
 0003:0000d0f4       ??_C@_0L@IJCNDABC@glVertex3s?$AA@ 006360f4     renderer:win_qgl.obj
 0003:0000d104       ??_C@_0M@JLOEKEKO@glVertex3iv?$AA@ 00636104     renderer:win_qgl.obj
 0003:0000d114       ??_C@_0L@DJAAMKMJ@glVertex3i?$AA@ 00636114     renderer:win_qgl.obj
 0003:0000d124       ??_C@_0M@JALIODJD@glVertex3fv?$AA@ 00636124     renderer:win_qgl.obj
 0003:0000d134       ??_C@_0L@LOJINGAG@glVertex3f?$AA@ 00636134     renderer:win_qgl.obj
 0003:0000d144       ??_C@_0M@JDDMDHPN@glVertex3dv?$AA@ 00636144     renderer:win_qgl.obj
 0003:0000d154       ??_C@_0L@IMKOLEIE@glVertex3d?$AA@ 00636154     renderer:win_qgl.obj
 0003:0000d164       ??_C@_0M@DCOJOFGN@glVertex2sv?$AA@ 00636164     renderer:win_qgl.obj
 0003:0000d174       ??_C@_0L@IIOPFKCF@glVertex2s?$AA@ 00636174     renderer:win_qgl.obj
 0003:0000d184       ??_C@_0M@CDFIMDML@glVertex2iv?$AA@ 00636184     renderer:win_qgl.obj
 0003:0000d194       ??_C@_0L@DIMCKAPO@glVertex2i?$AA@ 00636194     renderer:win_qgl.obj
 0003:0000d1a4       ??_C@_0M@CIAEIEPG@glVertex2fv?$AA@ 006361a4     renderer:win_qgl.obj
 0003:0000d1b4       ??_C@_0L@LPFKLMDB@glVertex2f?$AA@ 006361b4     renderer:win_qgl.obj
 0003:0000d1c4       ??_C@_0M@CLIAFAJI@glVertex2dv?$AA@ 006361c4     renderer:win_qgl.obj
 0003:0000d1d4       ??_C@_0L@INGMNOLD@glVertex2d?$AA@ 006361d4     renderer:win_qgl.obj
 0003:0000d1e4       ??_C@_0N@IFPDDBNE@glTranslatef?$AA@ 006361e4     renderer:win_qgl.obj
 0003:0000d1f4       ??_C@_0N@LHMFFDFG@glTranslated?$AA@ 006361f4     renderer:win_qgl.obj
 0003:0000d204       ??_C@_0BA@NHKIJEMK@glTexSubImage2D?$AA@ 00636204     renderer:win_qgl.obj
 0003:0000d218       ??_C@_0BA@NFOOCKJD@glTexSubImage1D?$AA@ 00636218     renderer:win_qgl.obj
 0003:0000d22c       ??_C@_0BB@KPLJEAAI@glTexParameteriv?$AA@ 0063622c     renderer:win_qgl.obj
 0003:0000d240       ??_C@_0BA@KDNJAKA@glTexParameteri?$AA@ 00636240     renderer:win_qgl.obj
 0003:0000d254       ??_C@_0BB@KEOFAHDF@glTexParameterfv?$AA@ 00636254     renderer:win_qgl.obj
 0003:0000d268       ??_C@_0BA@INKFIMGP@glTexParameterf?$AA@ 00636268     renderer:win_qgl.obj
 0003:0000d27c       ??_C@_0N@JBIKHLCC@glTexImage2D?$AA@ 0063627c     renderer:win_qgl.obj
 0003:0000d28c       ??_C@_0N@JDMMMFHL@glTexImage1D?$AA@ 0063628c     renderer:win_qgl.obj
 0003:0000d29c       ??_C@_0L@OIGLGFLJ@glTexGeniv?$AA@ 0063629c     renderer:win_qgl.obj
 0003:0000d2ac       ??_C@_09GKNHFOEO@glTexGeni?$AA@ 006362ac     renderer:win_qgl.obj
 0003:0000d2b8       ??_C@_0L@ODDHCCIE@glTexGenfv?$AA@ 006362b8     renderer:win_qgl.obj
 0003:0000d2c8       ??_C@_09ONEPECIB@glTexGenf?$AA@ 006362c8     renderer:win_qgl.obj
 0003:0000d2d4       ??_C@_0L@OALDPGOK@glTexGendv?$AA@ 006362d4     renderer:win_qgl.obj
 0003:0000d2e4       ??_C@_09NPHJCAAD@glTexGend?$AA@ 006362e4     renderer:win_qgl.obj
 0003:0000d2f0       ??_C@_0L@EHNOIKND@glTexEnviv?$AA@ 006362f0     renderer:win_qgl.obj
 0003:0000d300       ??_C@_09NFCDHIOH@glTexEnvi?$AA@ 00636300     renderer:win_qgl.obj
 0003:0000d30c       ??_C@_0L@EMICMNOO@glTexEnvfv?$AA@ 0063630c     renderer:win_qgl.obj
 0003:0000d31c       ??_C@_09FCLLGECI@glTexEnvf?$AA@ 0063631c     renderer:win_qgl.obj
 0003:0000d328       ??_C@_0BC@DAOMILMO@glTexCoordPointer?$AA@ 00636328     renderer:win_qgl.obj
 0003:0000d340       ??_C@_0O@EBJEPFAA@glTexCoord4sv?$AA@ 00636340     renderer:win_qgl.obj
 0003:0000d350       ??_C@_0N@CJOJLEKC@glTexCoord4s?$AA@ 00636350     renderer:win_qgl.obj
 0003:0000d360       ??_C@_0O@FACFNDKG@glTexCoord4iv?$AA@ 00636360     renderer:win_qgl.obj
 0003:0000d370       ??_C@_0N@JJMEEOHJ@glTexCoord4i?$AA@ 00636370     renderer:win_qgl.obj
 0003:0000d380       ??_C@_0O@FLHJJEJL@glTexCoord4fv?$AA@ 00636380     renderer:win_qgl.obj
 0003:0000d390       ??_C@_0N@BOFMFCLG@glTexCoord4f?$AA@ 00636390     renderer:win_qgl.obj
 0003:0000d3a0       ??_C@_0O@FIPNEAPF@glTexCoord4dv?$AA@ 006363a0     renderer:win_qgl.obj
 0003:0000d3b0       ??_C@_0N@CMGKDADE@glTexCoord4d?$AA@ 006363b0     renderer:win_qgl.obj
 0003:0000d3c0       ??_C@_0O@NMEDMNLJ@glTexCoord3sv?$AA@ 006363c0     renderer:win_qgl.obj
 0003:0000d3d0       ??_C@_0N@CMKGKCCH@glTexCoord3s?$AA@ 006363d0     renderer:win_qgl.obj
 0003:0000d3e0       ??_C@_0O@MNPCOLBP@glTexCoord3iv?$AA@ 006363e0     renderer:win_qgl.obj
 0003:0000d3f0       ??_C@_0N@JMILFIPM@glTexCoord3i?$AA@ 006363f0     renderer:win_qgl.obj
 0003:0000d400       ??_C@_0O@MGKOKMCC@glTexCoord3fv?$AA@ 00636400     renderer:win_qgl.obj
 0003:0000d410       ??_C@_0N@BLBDEEDD@glTexCoord3f?$AA@ 00636410     renderer:win_qgl.obj
 0003:0000d420       ??_C@_0O@MFCKHIEM@glTexCoord3dv?$AA@ 00636420     renderer:win_qgl.obj
 0003:0000d430       ??_C@_0N@CJCFCGLB@glTexCoord3d?$AA@ 00636430     renderer:win_qgl.obj
 0003:0000d440       ??_C@_0O@GEPPKKNM@glTexCoord2sv?$AA@ 00636440     renderer:win_qgl.obj
 0003:0000d450       ??_C@_0N@CNGEMIBA@glTexCoord2s?$AA@ 00636450     renderer:win_qgl.obj
 0003:0000d460       ??_C@_0O@HFEOIMHK@glTexCoord2iv?$AA@ 00636460     renderer:win_qgl.obj
 0003:0000d470       ??_C@_0N@JNEJDCML@glTexCoord2i?$AA@ 00636470     renderer:win_qgl.obj
 0003:0000d480       ??_C@_0O@HOBCMLEH@glTexCoord2fv?$AA@ 00636480     renderer:win_qgl.obj
 0003:0000d490       ??_C@_0N@BKNBCOAE@glTexCoord2f?$AA@ 00636490     renderer:win_qgl.obj
 0003:0000d4a0       ??_C@_0O@HNJGBPCJ@glTexCoord2dv?$AA@ 006364a0     renderer:win_qgl.obj
 0003:0000d4b0       ??_C@_0N@CIOHEMIG@glTexCoord2d?$AA@ 006364b0     renderer:win_qgl.obj
 0003:0000d4c0       ??_C@_0O@HGEKAFDC@glTexCoord1sv?$AA@ 006364c0     renderer:win_qgl.obj
 0003:0000d4d0       ??_C@_0N@CPCCHGEJ@glTexCoord1s?$AA@ 006364d0     renderer:win_qgl.obj
 0003:0000d4e0       ??_C@_0O@GHPLCDJE@glTexCoord1iv?$AA@ 006364e0     renderer:win_qgl.obj
 0003:0000d4f0       ??_C@_0N@JPAPIMJC@glTexCoord1i?$AA@ 006364f0     renderer:win_qgl.obj
 0003:0000d500       ??_C@_0O@GMKHGEKJ@glTexCoord1fv?$AA@ 00636500     renderer:win_qgl.obj
 0003:0000d510       ??_C@_0N@BIJHJAFN@glTexCoord1f?$AA@ 00636510     renderer:win_qgl.obj
 0003:0000d520       ??_C@_0O@GPCDLAMH@glTexCoord1dv?$AA@ 00636520     renderer:win_qgl.obj
 0003:0000d530       ??_C@_0N@CKKBPCNP@glTexCoord1d?$AA@ 00636530     renderer:win_qgl.obj
 0003:0000d540       ??_C@_0M@BILBNGF@glStencilOp?$AA@ 00636540     renderer:win_qgl.obj
 0003:0000d550       ??_C@_0O@DJFHPFEP@glStencilMask?$AA@ 00636550     renderer:win_qgl.obj
 0003:0000d560       ??_C@_0O@ENNLLOLN@glStencilFunc?$AA@ 00636560     renderer:win_qgl.obj
 0003:0000d570       ??_C@_0N@NALMFHKN@glShadeModel?$AA@ 00636570     renderer:win_qgl.obj
 0003:0000d580       ??_C@_0P@KACPMBCN@glSelectBuffer?$AA@ 00636580     renderer:win_qgl.obj
 0003:0000d594       ??_C@_09ECGPAEPL@glScissor?$AA@ 00636594     renderer:win_qgl.obj
 0003:0000d5a0       ??_C@_08JCPEOPLK@glScalef?$AA@ 006365a0     renderer:win_qgl.obj
 0003:0000d5ac       ??_C@_08KAMCINDI@glScaled?$AA@ 006365ac     renderer:win_qgl.obj
 0003:0000d5b8       ??_C@_09FCODNBIM@glRotatef?$AA@ 006365b8     renderer:win_qgl.obj
 0003:0000d5c4       ??_C@_09GANFLDAO@glRotated?$AA@ 006365c4     renderer:win_qgl.obj
 0003:0000d5d0       ??_C@_0N@HCFJFDGP@glRenderMode?$AA@ 006365d0     renderer:win_qgl.obj
 0003:0000d5e0       ??_C@_08FPNOOGJA@glRectsv?$AA@ 006365e0     renderer:win_qgl.obj
 0003:0000d5ec       ??_C@_07GCAIEMDA@glRects?$AA@ 006365ec     renderer:win_qgl.obj
 0003:0000d5f8       ??_C@_08EOGPMADG@glRectiv?$AA@ 006365f8     renderer:win_qgl.obj
 0003:0000d604       ??_C@_07NCCFLGOL@glRecti?$AA@ 00636604     renderer:win_qgl.obj
 0003:0000d610       ??_C@_08EFDDIHAL@glRectfv?$AA@ 00636610     renderer:win_qgl.obj
 0003:0000d61c       ??_C@_07FFLNKKCE@glRectf?$AA@ 0063661c     renderer:win_qgl.obj
 0003:0000d628       ??_C@_08EGLHFDGF@glRectdv?$AA@ 00636628     renderer:win_qgl.obj
 0003:0000d634       ??_C@_07GHILMIKG@glRectd?$AA@ 00636634     renderer:win_qgl.obj
 0003:0000d640       ??_C@_0N@CKFNNHOO@glReadPixels?$AA@ 00636640     renderer:win_qgl.obj
 0003:0000d650       ??_C@_0N@HFKHBECK@glReadBuffer?$AA@ 00636650     renderer:win_qgl.obj
 0003:0000d660       ??_C@_0P@NJGHOAAG@glRasterPos4sv?$AA@ 00636660     renderer:win_qgl.obj
 0003:0000d674       ??_C@_0O@INMAOOA@glRasterPos4s?$AA@ 00636674     renderer:win_qgl.obj
 0003:0000d684       ??_C@_0P@MINGMGKA@glRasterPos4iv?$AA@ 00636684     renderer:win_qgl.obj
 0003:0000d698       ??_C@_0O@LIPBPEDL@glRasterPos4i?$AA@ 00636698     renderer:win_qgl.obj
 0003:0000d6a8       ??_C@_0P@MDIKIBJN@glRasterPos4fv?$AA@ 006366a8     renderer:win_qgl.obj
 0003:0000d6bc       ??_C@_0O@DPGJOIPE@glRasterPos4f?$AA@ 006366bc     renderer:win_qgl.obj
 0003:0000d6cc       ??_C@_0P@MAAOFFPD@glRasterPos4dv?$AA@ 006366cc     renderer:win_qgl.obj
 0003:0000d6e0       ??_C@_0O@NFPIKHG@glRasterPos4d?$AA@ 006366e0     renderer:win_qgl.obj
 0003:0000d6f0       ??_C@_0P@EELANILP@glRasterPos3sv?$AA@ 006366f0     renderer:win_qgl.obj
 0003:0000d704       ??_C@_0O@NJDBIGF@glRasterPos3s?$AA@ 00636704     renderer:win_qgl.obj
 0003:0000d714       ??_C@_0P@FFABPOBJ@glRasterPos3iv?$AA@ 00636714     renderer:win_qgl.obj
 0003:0000d728       ??_C@_0O@LNLOOCLO@glRasterPos3i?$AA@ 00636728     renderer:win_qgl.obj
 0003:0000d738       ??_C@_0P@FOFNLJCE@glRasterPos3fv?$AA@ 00636738     renderer:win_qgl.obj
 0003:0000d74c       ??_C@_0O@DKCGPOHB@glRasterPos3f?$AA@ 0063674c     renderer:win_qgl.obj
 0003:0000d75c       ??_C@_0P@FNNJGNEK@glRasterPos3dv?$AA@ 0063675c     renderer:win_qgl.obj
 0003:0000d770       ??_C@_0O@IBAJMPD@glRasterPos3d?$AA@ 00636770     renderer:win_qgl.obj
 0003:0000d780       ??_C@_0P@PMAMLPNK@glRasterPos2sv?$AA@ 00636780     renderer:win_qgl.obj
 0003:0000d794       ??_C@_0O@MFBHCFC@glRasterPos2s?$AA@ 00636794     renderer:win_qgl.obj
 0003:0000d7a4       ??_C@_0P@ONLNJJHM@glRasterPos2iv?$AA@ 006367a4     renderer:win_qgl.obj
 0003:0000d7b8       ??_C@_0O@LMHMIIIJ@glRasterPos2i?$AA@ 006367b8     renderer:win_qgl.obj
 0003:0000d7c8       ??_C@_0P@OGOBNOEB@glRasterPos2fv?$AA@ 006367c8     renderer:win_qgl.obj
 0003:0000d7dc       ??_C@_0O@DLOEJEEG@glRasterPos2f?$AA@ 006367dc     renderer:win_qgl.obj
 0003:0000d7ec       ??_C@_0P@OFGFAKCP@glRasterPos2dv?$AA@ 006367ec     renderer:win_qgl.obj
 0003:0000d800       ??_C@_0O@JNCPGME@glRasterPos2d?$AA@ 00636800     renderer:win_qgl.obj
 0003:0000d810       ??_C@_0L@LFFFABIK@glPushName?$AA@ 00636810     renderer:win_qgl.obj
 0003:0000d820       ??_C@_0N@IHFNHGBL@glPushMatrix?$AA@ 00636820     renderer:win_qgl.obj
 0003:0000d830       ??_C@_0BD@JKGPLNEA@glPushClientAttrib?$AA@ 00636830     renderer:win_qgl.obj
 0003:0000d848       ??_C@_0N@KDMLHFJM@glPushAttrib?$AA@ 00636848     renderer:win_qgl.obj
 0003:0000d858       ??_C@_0BF@FFCGNNIA@glPrioritizeTextures?$AA@ 00636858     renderer:win_qgl.obj
 0003:0000d874       ??_C@_09IKDPIJOE@glPopName?$AA@ 00636874     renderer:win_qgl.obj
 0003:0000d880       ??_C@_0M@JPEAAEEK@glPopMatrix?$AA@ 00636880     renderer:win_qgl.obj
 0003:0000d890       ??_C@_0BC@GOOJKIDH@glPopClientAttrib?$AA@ 00636890     renderer:win_qgl.obj
 0003:0000d8a8       ??_C@_0M@LLNGAHMN@glPopAttrib?$AA@ 006368a8     renderer:win_qgl.obj
 0003:0000d8b8       ??_C@_0BB@GIADEJGP@glPolygonStipple?$AA@ 006368b8     renderer:win_qgl.obj
 0003:0000d8cc       ??_C@_0BA@FFBJGNC@glPolygonOffset?$AA@ 006368cc     renderer:win_qgl.obj
 0003:0000d8e0       ??_C@_0O@DKMNBFMB@glPolygonMode?$AA@ 006368e0     renderer:win_qgl.obj
 0003:0000d8f0       ??_C@_0M@EEAPMMNM@glPointSize?$AA@ 006368f0     renderer:win_qgl.obj
 0003:0000d900       ??_C@_0M@JAMJIGNB@glPixelZoom?$AA@ 00636900     renderer:win_qgl.obj
 0003:0000d910       ??_C@_0BB@IAMKJDIC@glPixelTransferi?$AA@ 00636910     renderer:win_qgl.obj
 0003:0000d924       ??_C@_0BB@HFCIPEN@glPixelTransferf?$AA@ 00636924     renderer:win_qgl.obj
 0003:0000d938       ??_C@_0O@JCCIGLOF@glPixelStorei?$AA@ 00636938     renderer:win_qgl.obj
 0003:0000d948       ??_C@_0O@BFLAHHCK@glPixelStoref?$AA@ 00636948     renderer:win_qgl.obj
 0003:0000d958       ??_C@_0O@FMEEPGOI@glPixelMapusv?$AA@ 00636958     renderer:win_qgl.obj
 0003:0000d968       ??_C@_0O@ENPFNAEO@glPixelMapuiv?$AA@ 00636968     renderer:win_qgl.obj
 0003:0000d978       ??_C@_0N@CNONNBNO@glPixelMapfv?$AA@ 00636978     renderer:win_qgl.obj
 0003:0000d988       ??_C@_0O@KCIMMNEH@glPassThrough?$AA@ 00636988     renderer:win_qgl.obj
 0003:0000d998       ??_C@_07DBAFHOII@glOrtho?$AA@ 00636998     renderer:win_qgl.obj
 0003:0000d9a4       ??_C@_0BA@DCLMCEOP@glNormalPointer?$AA@ 006369a4     renderer:win_qgl.obj
 0003:0000d9b8       ??_C@_0M@NHLFGDMD@glNormal3sv?$AA@ 006369b8     renderer:win_qgl.obj
 0003:0000d9c8       ??_C@_0L@BNHPJOI@glNormal3s?$AA@ 006369c8     renderer:win_qgl.obj
 0003:0000d9d8       ??_C@_0M@MGAEEFGF@glNormal3iv?$AA@ 006369d8     renderer:win_qgl.obj
 0003:0000d9e8       ??_C@_0L@LBPKADDD@glNormal3i?$AA@ 006369e8     renderer:win_qgl.obj
 0003:0000d9f8       ??_C@_0M@MNFIACFI@glNormal3fv?$AA@ 006369f8     renderer:win_qgl.obj
 0003:0000da08       ??_C@_0L@DGGCBPPM@glNormal3f?$AA@ 00636a08     renderer:win_qgl.obj
 0003:0000da18       ??_C@_0M@MONMNGDG@glNormal3dv?$AA@ 00636a18     renderer:win_qgl.obj
 0003:0000da28       ??_C@_0L@EFEHNHO@glNormal3d?$AA@ 00636a28     renderer:win_qgl.obj
 0003:0000da38       ??_C@_0M@MKFBKKIE@glNormal3bv?$AA@ 00636a38     renderer:win_qgl.obj
 0003:0000da48       ??_C@_0L@FCAONKPI@glNormal3b?$AA@ 00636a48     renderer:win_qgl.obj
 0003:0000da58       ??_C@_09KAGOBDOO@glNewList?$AA@ 00636a58     renderer:win_qgl.obj
 0003:0000da64       ??_C@_0O@LHKDNPKJ@glMultMatrixf?$AA@ 00636a64     renderer:win_qgl.obj
 0003:0000da74       ??_C@_0O@IFJFLNCL@glMultMatrixd?$AA@ 00636a74     renderer:win_qgl.obj
 0003:0000da84       ??_C@_0N@KDLNHKEJ@glMatrixMode?$AA@ 00636a84     renderer:win_qgl.obj
 0003:0000da94       ??_C@_0N@HCDOEFL@glMaterialiv?$AA@ 00636a94     renderer:win_qgl.obj
 0003:0000daa4       ??_C@_0M@PHEGJGAN@glMateriali?$AA@ 00636aa4     renderer:win_qgl.obj
 0003:0000dab4       ??_C@_0N@MHPKDGG@glMaterialfv?$AA@ 00636ab4     renderer:win_qgl.obj
 0003:0000dac4       ??_C@_0M@HANOIKMC@glMaterialf?$AA@ 00636ac4     renderer:win_qgl.obj
 0003:0000dad4       ??_C@_0M@PNEKFPAF@glMapGrid2f?$AA@ 00636ad4     renderer:win_qgl.obj
 0003:0000dae4       ??_C@_0M@MPHMDNIH@glMapGrid2d?$AA@ 00636ae4     renderer:win_qgl.obj
 0003:0000daf4       ??_C@_0M@PPAMOBFM@glMapGrid1f?$AA@ 00636af4     renderer:win_qgl.obj
 0003:0000db04       ??_C@_0M@MNDKIDNO@glMapGrid1d?$AA@ 00636b04     renderer:win_qgl.obj
 0003:0000db14       ??_C@_07GEAGLFKJ@glMap2f?$AA@ 00636b14     renderer:win_qgl.obj
 0003:0000db20       ??_C@_07FGDANHCL@glMap2d?$AA@ 00636b20     renderer:win_qgl.obj
 0003:0000db2c       ??_C@_07GGEAALPA@glMap1f?$AA@ 00636b2c     renderer:win_qgl.obj
 0003:0000db38       ??_C@_07FEHGGJHC@glMap1d?$AA@ 00636b38     renderer:win_qgl.obj
 0003:0000db44       ??_C@_09GKGMNAKG@glLogicOp?$AA@ 00636b44     renderer:win_qgl.obj
 0003:0000db50       ??_C@_0L@JFFJNAJA@glLoadName?$AA@ 00636b50     renderer:win_qgl.obj
 0003:0000db60       ??_C@_0O@DJGBMGEI@glLoadMatrixf?$AA@ 00636b60     renderer:win_qgl.obj
 0003:0000db70       ??_C@_0O@LFHKEMK@glLoadMatrixd?$AA@ 00636b70     renderer:win_qgl.obj
 0003:0000db80       ??_C@_0P@EJAFHEPO@glLoadIdentity?$AA@ 00636b80     renderer:win_qgl.obj
 0003:0000db94       ??_C@_0L@HDOJDFBA@glListBase?$AA@ 00636b94     renderer:win_qgl.obj
 0003:0000dba4       ??_C@_0M@CFLGNFPG@glLineWidth?$AA@ 00636ba4     renderer:win_qgl.obj
 0003:0000dbb4       ??_C@_0O@LDOINBOK@glLineStipple?$AA@ 00636bb4     renderer:win_qgl.obj
 0003:0000dbc4       ??_C@_09JDIIDONO@glLightiv?$AA@ 00636bc4     renderer:win_qgl.obj
 0003:0000dbd0       ??_C@_08DIKHJHIE@glLighti?$AA@ 00636bd0     renderer:win_qgl.obj
 0003:0000dbdc       ??_C@_09JINEHJOD@glLightfv?$AA@ 00636bdc     renderer:win_qgl.obj
 0003:0000dbe8       ??_C@_08LPDPILEL@glLightf?$AA@ 00636be8     renderer:win_qgl.obj
 0003:0000dbf4       ??_C@_0P@JBCFLLOP@glLightModeliv?$AA@ 00636bf4     renderer:win_qgl.obj
 0003:0000dc08       ??_C@_0O@PILBKMEH@glLightModeli?$AA@ 00636c08     renderer:win_qgl.obj
 0003:0000dc18       ??_C@_0P@JKHJPMNC@glLightModelfv?$AA@ 00636c18     renderer:win_qgl.obj
 0003:0000dc2c       ??_C@_0O@HPCJLAII@glLightModelf?$AA@ 00636c2c     renderer:win_qgl.obj
 0003:0000dc3c       ??_C@_0M@NJHAEPDN@glIsTexture?$AA@ 00636c3c     renderer:win_qgl.obj
 0003:0000dc4c       ??_C@_08DMFMJKDH@glIsList?$AA@ 00636c4c     renderer:win_qgl.obj
 0003:0000dc58       ??_C@_0M@INHMIHKC@glIsEnabled?$AA@ 00636c58     renderer:win_qgl.obj
 0003:0000dc68       ??_C@_0BE@EDEDCKLI@glInterleavedArrays?$AA@ 00636c68     renderer:win_qgl.obj
 0003:0000dc80       ??_C@_0M@LBOBLINN@glInitNames?$AA@ 00636c80     renderer:win_qgl.obj
 0003:0000dc90       ??_C@_0L@BBKJOCAC@glIndexubv?$AA@ 00636c90     renderer:win_qgl.obj
 0003:0000dca0       ??_C@_09BBIPIKNC@glIndexub?$AA@ 00636ca0     renderer:win_qgl.obj
 0003:0000dcac       ??_C@_09DLKMCBDF@glIndexsv?$AA@ 00636cac     renderer:win_qgl.obj
 0003:0000dcb8       ??_C@_08HLGHCJCJ@glIndexs?$AA@ 00636cb8     renderer:win_qgl.obj
 0003:0000dcc4       ??_C@_09CKBNAHJD@glIndexiv?$AA@ 00636cc4     renderer:win_qgl.obj
 0003:0000dcd0       ??_C@_08MLEKNDPC@glIndexi?$AA@ 00636cd0     renderer:win_qgl.obj
 0003:0000dcdc       ??_C@_09CBEBEAKO@glIndexfv?$AA@ 00636cdc     renderer:win_qgl.obj
 0003:0000dce8       ??_C@_08EMNCMPDN@glIndexf?$AA@ 00636ce8     renderer:win_qgl.obj
 0003:0000dcf4       ??_C@_09CCMFJEMA@glIndexdv?$AA@ 00636cf4     renderer:win_qgl.obj
 0003:0000dd00       ??_C@_08HOOEKNLP@glIndexd?$AA@ 00636d00     renderer:win_qgl.obj
 0003:0000dd0c       ??_C@_0P@KGJBLKPD@glIndexPointer?$AA@ 00636d0c     renderer:win_qgl.obj
 0003:0000dd20       ??_C@_0M@ONDJOEOA@glIndexMask?$AA@ 00636d20     renderer:win_qgl.obj
 0003:0000dd30       ??_C@_06HEADGMBC@glHint?$AA@ 00636d30     renderer:win_qgl.obj
 0003:0000dd38       ??_C@_0BE@DGCNLNPP@glGetTexParameteriv?$AA@ 00636d38     renderer:win_qgl.obj
 0003:0000dd50       ??_C@_0BE@DNHBPKMC@glGetTexParameterfv?$AA@ 00636d50     renderer:win_qgl.obj
 0003:0000dd68       ??_C@_0O@DOIIJLAD@glGetTexImage?$AA@ 00636d68     renderer:win_qgl.obj
 0003:0000dd78       ??_C@_0O@HOAMNHM@glGetTexGeniv?$AA@ 00636d78     renderer:win_qgl.obj
 0003:0000dd88       ??_C@_0O@MLMIKEB@glGetTexGenfv?$AA@ 00636d88     renderer:win_qgl.obj
 0003:0000dd98       ??_C@_0O@PDIFOCP@glGetTexGendv?$AA@ 00636d98     renderer:win_qgl.obj
 0003:0000dda8       ??_C@_0O@KIFFCCBG@glGetTexEnviv?$AA@ 00636da8     renderer:win_qgl.obj
 0003:0000ddb8       ??_C@_0O@KDAJGFCL@glGetTexEnvfv?$AA@ 00636db8     renderer:win_qgl.obj
 0003:0000ddc8       ??_C@_0M@OPOBFDCB@glGetString?$AA@ 00636dc8     renderer:win_qgl.obj
 0003:0000ddd8       ??_C@_0BE@PBJHLEJI@glGetPolygonStipple?$AA@ 00636dd8     renderer:win_qgl.obj
 0003:0000ddf0       ??_C@_0O@LADEDGJO@glGetPointerv?$AA@ 00636df0     renderer:win_qgl.obj
 0003:0000de00       ??_C@_0BB@NHJEMOOF@glGetPixelMapusv?$AA@ 00636e00     renderer:win_qgl.obj
 0003:0000de14       ??_C@_0BB@MGCFOIED@glGetPixelMapuiv?$AA@ 00636e14     renderer:win_qgl.obj
 0003:0000de28       ??_C@_0BA@EDGNDGIE@glGetPixelMapfv?$AA@ 00636e28     renderer:win_qgl.obj
 0003:0000de3c       ??_C@_0BA@GJKDADAB@glGetMaterialiv?$AA@ 00636e3c     renderer:win_qgl.obj
 0003:0000de50       ??_C@_0BA@GCPPEEDM@glGetMaterialfv?$AA@ 00636e50     renderer:win_qgl.obj
 0003:0000de64       ??_C@_0L@FOFLNEHD@glGetMapiv?$AA@ 00636e64     renderer:win_qgl.obj
 0003:0000de74       ??_C@_0L@FFAHJDEO@glGetMapfv?$AA@ 00636e74     renderer:win_qgl.obj
 0003:0000de84       ??_C@_0L@FGIDEHCA@glGetMapdv?$AA@ 00636e84     renderer:win_qgl.obj
 0003:0000de94       ??_C@_0N@MNDANBJN@glGetLightiv?$AA@ 00636e94     renderer:win_qgl.obj
 0003:0000dea4       ??_C@_0N@MGGMJGKA@glGetLightfv?$AA@ 00636ea4     renderer:win_qgl.obj
 0003:0000deb4       ??_C@_0O@DHHDCCLF@glGetIntegerv?$AA@ 00636eb4     renderer:win_qgl.obj
 0003:0000dec4       ??_C@_0M@CKCOBONE@glGetFloatv?$AA@ 00636ec4     renderer:win_qgl.obj
 0003:0000ded4       ??_C@_0L@FPKAMKHB@glGetError?$AA@ 00636ed4     renderer:win_qgl.obj
 0003:0000dee4       ??_C@_0N@OFBMMCDH@glGetDoublev?$AA@ 00636ee4     renderer:win_qgl.obj
 0003:0000def4       ??_C@_0P@MMMNLMC@glGetClipPlane?$AA@ 00636ef4     renderer:win_qgl.obj
 0003:0000df08       ??_C@_0O@NLMELLCJ@glGetBooleanv?$AA@ 00636f08     renderer:win_qgl.obj
 0003:0000df18       ??_C@_0O@LLMANLNK@glGenTextures?$AA@ 00636f18     renderer:win_qgl.obj
 0003:0000df28       ??_C@_0L@BNOFOEBP@glGenLists?$AA@ 00636f28     renderer:win_qgl.obj
 0003:0000df38       ??_C@_09ICLFHOKP@glFrustum?$AA@ 00636f38     renderer:win_qgl.obj
 0003:0000df44       ??_C@_0M@ILBMDJDA@glFrontFace?$AA@ 00636f44     renderer:win_qgl.obj
 0003:0000df54       ??_C@_07FGBEEHCN@glFogiv?$AA@ 00636f54     renderer:win_qgl.obj
 0003:0000df60       ??_C@_06BOOFNKDM@glFogi?$AA@ 00636f60     renderer:win_qgl.obj
 0003:0000df68       ??_C@_07FNEIAABA@glFogfv?$AA@ 00636f68     renderer:win_qgl.obj
 0003:0000df74       ??_C@_06JJHNMGPD@glFogf?$AA@ 00636f74     renderer:win_qgl.obj
 0003:0000df7c       ??_C@_07COFELLJA@glFlush?$AA@ 00636f7c     renderer:win_qgl.obj
 0003:0000df88       ??_C@_08DFCPOKBK@glFinish?$AA@ 00636f88     renderer:win_qgl.obj
 0003:0000df94       ??_C@_0BB@COFAIKCN@glFeedbackBuffer?$AA@ 00636f94     renderer:win_qgl.obj
 0003:0000dfa8       ??_C@_0N@BFGDHBFK@glEvalPoint2?$AA@ 00636fa8     renderer:win_qgl.obj
 0003:0000dfb8       ??_C@_0N@DOEOCCJJ@glEvalPoint1?$AA@ 00636fb8     renderer:win_qgl.obj
 0003:0000dfc8       ??_C@_0M@BJHJGIPD@glEvalMesh2?$AA@ 00636fc8     renderer:win_qgl.obj
 0003:0000dfd8       ??_C@_0M@DCFEDLDA@glEvalMesh1?$AA@ 00636fd8     renderer:win_qgl.obj
 0003:0000dfe8       ??_C@_0P@LAAAJGBJ@glEvalCoord2fv?$AA@ 00636fe8     renderer:win_qgl.obj
 0003:0000dffc       ??_C@_0O@GJGIOPHD@glEvalCoord2f?$AA@ 00636ffc     renderer:win_qgl.obj
 0003:0000e00c       ??_C@_0P@LDIEECHH@glEvalCoord2dv?$AA@ 0063700c     renderer:win_qgl.obj
 0003:0000e020       ??_C@_0O@FLFOINPB@glEvalCoord2d?$AA@ 00637020     renderer:win_qgl.obj
 0003:0000e030       ??_C@_0P@KCLFDJPH@glEvalCoord1fv?$AA@ 00637030     renderer:win_qgl.obj
 0003:0000e044       ??_C@_0O@GLCOFBCK@glEvalCoord1f?$AA@ 00637044     renderer:win_qgl.obj
 0003:0000e054       ??_C@_0P@KBDBONJJ@glEvalCoord1dv?$AA@ 00637054     renderer:win_qgl.obj
 0003:0000e068       ??_C@_0O@FJBIDDKI@glEvalCoord1d?$AA@ 00637068     renderer:win_qgl.obj
 0003:0000e078       ??_C@_09HKEBCLHH@glEndList?$AA@ 00637078     renderer:win_qgl.obj
 0003:0000e084       ??_C@_05OIBMBLHE@glEnd?$AA@ 00637084     renderer:win_qgl.obj
 0003:0000e08c       ??_C@_0BE@KECPKGNE@glEnableClientState?$AA@ 0063708c     renderer:win_qgl.obj
 0003:0000e0a4       ??_C@_08OOEHEKOP@glEnable?$AA@ 006370a4     renderer:win_qgl.obj
 0003:0000e0b0       ??_C@_0M@MKDGIOMK@glEdgeFlagv?$AA@ 006370b0     renderer:win_qgl.obj
 0003:0000e0c0       ??_C@_0BC@LILGCNN@glEdgeFlagPointer?$AA@ 006370c0     renderer:win_qgl.obj
 0003:0000e0d8       ??_C@_0L@DFCKJEPI@glEdgeFlag?$AA@ 006370d8     renderer:win_qgl.obj
 0003:0000e0e8       ??_C@_0N@FLFIHFDP@glDrawPixels?$AA@ 006370e8     renderer:win_qgl.obj
 0003:0000e0f8       ??_C@_0P@MENFIFGE@glDrawElements?$AA@ 006370f8     renderer:win_qgl.obj
 0003:0000e10c       ??_C@_0N@EKCLGPL@glDrawBuffer?$AA@ 0063710c     renderer:win_qgl.obj
 0003:0000e11c       ??_C@_0N@CMNPPOHA@glDrawArrays?$AA@ 0063711c     renderer:win_qgl.obj
 0003:0000e12c       ??_C@_0BF@LJDHBNBP@glDisableClientState?$AA@ 0063712c     renderer:win_qgl.obj
 0003:0000e148       ??_C@_09MHGMIMKN@glDisable?$AA@ 00637148     renderer:win_qgl.obj
 0003:0000e154       ??_C@_0N@PEBDIKOA@glDepthRange?$AA@ 00637154     renderer:win_qgl.obj
 0003:0000e164       ??_C@_0M@KABMFLLN@glDepthMask?$AA@ 00637164     renderer:win_qgl.obj
 0003:0000e174       ??_C@_0M@NEJABAEP@glDepthFunc?$AA@ 00637174     renderer:win_qgl.obj
 0003:0000e184       ??_C@_0BB@KMPLFJIC@glDeleteTextures?$AA@ 00637184     renderer:win_qgl.obj
 0003:0000e198       ??_C@_0O@KPJIJAFM@glDeleteLists?$AA@ 00637198     renderer:win_qgl.obj
 0003:0000e1a8       ??_C@_0L@BAPBLHME@glCullFace?$AA@ 006371a8     renderer:win_qgl.obj
 0003:0000e1b8       ??_C@_0BE@PIJELGDB@glCopyTexSubImage2D?$AA@ 006371b8     renderer:win_qgl.obj
 0003:0000e1d0       ??_C@_0BE@PKNCAIGI@glCopyTexSubImage1D?$AA@ 006371d0     renderer:win_qgl.obj
 0003:0000e1e8       ??_C@_0BB@MGAFKJKC@glCopyTexImage2D?$AA@ 006371e8     renderer:win_qgl.obj
 0003:0000e1fc       ??_C@_0BB@MEEDBHPL@glCopyTexImage1D?$AA@ 006371fc     renderer:win_qgl.obj
 0003:0000e210       ??_C@_0N@OACCOOE@glCopyPixels?$AA@ 00637210     renderer:win_qgl.obj
 0003:0000e220       ??_C@_0P@DPKEGLKI@glColorPointer?$AA@ 00637220     renderer:win_qgl.obj
 0003:0000e234       ??_C@_0BA@OOEHEGPC@glColorMaterial?$AA@ 00637234     renderer:win_qgl.obj
 0003:0000e248       ??_C@_0M@DLGOAHPH@glColorMask?$AA@ 00637248     renderer:win_qgl.obj
 0003:0000e258       ??_C@_0M@OPLLCJJN@glColor4usv?$AA@ 00637258     renderer:win_qgl.obj
 0003:0000e268       ??_C@_0L@NHFPGDEK@glColor4us?$AA@ 00637268     renderer:win_qgl.obj
 0003:0000e278       ??_C@_0M@POAKAPDL@glColor4uiv?$AA@ 00637278     renderer:win_qgl.obj
 0003:0000e288       ??_C@_0L@GHHCJJJB@glColor4ui?$AA@ 00637288     renderer:win_qgl.obj
 0003:0000e298       ??_C@_0M@PCFPOANK@glColor4ubv?$AA@ 00637298     renderer:win_qgl.obj
 0003:0000e2a8       ??_C@_0L@IEIGEAFK@glColor4ub?$AA@ 006372a8     renderer:win_qgl.obj
 0003:0000e2b8       ??_C@_0L@KOKFOLLN@glColor4sv?$AA@ 006372b8     renderer:win_qgl.obj
 0003:0000e2c8       ??_C@_09MNOHCDOB@glColor4s?$AA@ 006372c8     renderer:win_qgl.obj
 0003:0000e2d4       ??_C@_0L@LPBEMNBL@glColor4iv?$AA@ 006372d4     renderer:win_qgl.obj
 0003:0000e2e4       ??_C@_09HNMKNJDK@glColor4i?$AA@ 006372e4     renderer:win_qgl.obj
 0003:0000e2f0       ??_C@_0L@LEEIIKCG@glColor4fv?$AA@ 006372f0     renderer:win_qgl.obj
 0003:0000e300       ??_C@_09PKFCMFPF@glColor4f?$AA@ 00637300     renderer:win_qgl.obj
 0003:0000e30c       ??_C@_0L@LHMMFOEI@glColor4dv?$AA@ 0063730c     renderer:win_qgl.obj
 0003:0000e31c       ??_C@_09MIGEKHHH@glColor4d?$AA@ 0063731c     renderer:win_qgl.obj
 0003:0000e328       ??_C@_0L@LDEBCCPK@glColor4bv?$AA@ 00637328     renderer:win_qgl.obj
 0003:0000e338       ??_C@_09JODOAAPB@glColor4b?$AA@ 00637338     renderer:win_qgl.obj
 0003:0000e344       ??_C@_0M@FNJLPFIN@glColor3usv?$AA@ 00637344     renderer:win_qgl.obj
 0003:0000e354       ??_C@_0L@EKIIFLPD@glColor3us?$AA@ 00637354     renderer:win_qgl.obj
 0003:0000e364       ??_C@_0M@EMCKNDCL@glColor3uiv?$AA@ 00637364     renderer:win_qgl.obj
 0003:0000e374       ??_C@_0L@PKKFKBCI@glColor3ui?$AA@ 00637374     renderer:win_qgl.obj
 0003:0000e384       ??_C@_0M@EAHPDMMK@glColor3ubv?$AA@ 00637384     renderer:win_qgl.obj
 0003:0000e394       ??_C@_0L@BJFBHIOD@glColor3ub?$AA@ 00637394     renderer:win_qgl.obj
 0003:0000e3a4       ??_C@_0L@DDHCNDAE@glColor3sv?$AA@ 006373a4     renderer:win_qgl.obj
 0003:0000e3b4       ??_C@_09MIKIDFGE@glColor3s?$AA@ 006373b4     renderer:win_qgl.obj
 0003:0000e3c0       ??_C@_0L@CCMDPFKC@glColor3iv?$AA@ 006373c0     renderer:win_qgl.obj
 0003:0000e3d0       ??_C@_09HIIFMPLP@glColor3i?$AA@ 006373d0     renderer:win_qgl.obj
 0003:0000e3dc       ??_C@_0L@CJJPLCJP@glColor3fv?$AA@ 006373dc     renderer:win_qgl.obj
 0003:0000e3ec       ??_C@_09PPBNNDHA@glColor3f?$AA@ 006373ec     renderer:win_qgl.obj
 0003:0000e3f8       ??_C@_0L@CKBLGGPB@glColor3dv?$AA@ 006373f8     renderer:win_qgl.obj
 0003:0000e408       ??_C@_09MNCLLBPC@glColor3d?$AA@ 00637408     renderer:win_qgl.obj
 0003:0000e414       ??_C@_0L@COJGBKED@glColor3bv?$AA@ 00637414     renderer:win_qgl.obj
 0003:0000e424       ??_C@_09JLHBBGHE@glColor3b?$AA@ 00637424     renderer:win_qgl.obj
 0003:0000e430       ??_C@_0M@OHCNGGFF@glClipPlane?$AA@ 00637430     renderer:win_qgl.obj
 0003:0000e440       ??_C@_0P@KBLPBBFP@glClearStencil?$AA@ 00637440     renderer:win_qgl.obj
 0003:0000e454       ??_C@_0N@EIILHCMH@glClearIndex?$AA@ 00637454     renderer:win_qgl.obj
 0003:0000e464       ??_C@_0N@LJIELNG@glClearDepth?$AA@ 00637464     renderer:win_qgl.obj
 0003:0000e474       ??_C@_0N@OGLMDNKC@glClearColor?$AA@ 00637474     renderer:win_qgl.obj
 0003:0000e484       ??_C@_0N@OKAMEJMG@glClearAccum?$AA@ 00637484     renderer:win_qgl.obj
 0003:0000e494       ??_C@_07IBAPPAHJ@glClear?$AA@ 00637494     renderer:win_qgl.obj
 0003:0000e4a0       ??_C@_0M@LFDBDICJ@glCallLists?$AA@ 006374a0     renderer:win_qgl.obj
 0003:0000e4b0       ??_C@_0L@CIPLDIDL@glCallList?$AA@ 006374b0     renderer:win_qgl.obj
 0003:0000e4c0       ??_C@_0M@PFBKOKOH@glBlendFunc?$AA@ 006374c0     renderer:win_qgl.obj
 0003:0000e4d0       ??_C@_08PJOLDJDK@glBitmap?$AA@ 006374d0     renderer:win_qgl.obj
 0003:0000e4dc       ??_C@_0O@JKKCIBGC@glBindTexture?$AA@ 006374dc     renderer:win_qgl.obj
 0003:0000e4ec       ??_C@_07FCOIFMD@glBegin?$AA@ 006374ec     renderer:win_qgl.obj
 0003:0000e4f8       ??_C@_0P@CKCIJELG@glArrayElement?$AA@ 006374f8     renderer:win_qgl.obj
 0003:0000e50c       ??_C@_0BG@DHOKJLEP@glAreTexturesResident?$AA@ 0063750c     renderer:win_qgl.obj
 0003:0000e528       ??_C@_0M@BJGLMKCC@glAlphaFunc?$AA@ 00637528     renderer:win_qgl.obj
 0003:0000e538       ??_C@_07LNIJJMEN@glAccum?$AA@ 00637538     renderer:win_qgl.obj
 0003:0000e544       ??_C@_0L@IMJOIOGF@succeeded?6?$AA@ 00637544     renderer:win_qgl.obj
 0003:0000e554       ??_C@_0CF@ECPGGODN@?4?4?4calling?5LoadLibrary?$CI?5?8?$CFs?4dll?8@ 00637554     renderer:win_qgl.obj
 0003:0000e580       ??_C@_0EE@CEOMEOHB@?4?4?4WARNING?3?5missing?5Glide?5instal@ 00637580     renderer:win_qgl.obj
 0003:0000e5d4       ??_C@_0BF@OEJFCMGM@?4?4?4initializing?5QGL?6?$AA@ 006375d4     renderer:win_qgl.obj
 0003:0000e5f0       ??_C@_0BL@KHBPIKGG@glw_state?4hinstOpenGL?5?$DN?$DN?50?$AA@ 006375f0     renderer:win_qgl.obj
 0003:0000e610       ??_C@_0CK@BIOHAMNP@c?3?2quake3?2luamod_src?2code?2win32?2@ 00637610     renderer:win_qgl.obj
 0003:0000e644       ??_C@_07OOGNMJEI@Glide3X?$AA@ 00637644     renderer:win_qgl.obj
 0003:0000e650       ??_C@_0BF@HHBGLCOH@?$CK?$CK?$CK?5CLOSING?5LOG?5?$CK?$CK?$CK?6?$AA@ 00637650     renderer:win_qgl.obj
 0003:0000e66c       ??_C@_02BKFDOEMK@wt?$AA@   0063766c     renderer:win_qgl.obj
 0003:0000e670       ??_C@_09LGIMFBO@?$CFs?1gl?4log?$AA@ 00637670     renderer:win_qgl.obj
 0003:0000e67c       ??_C@_08PCDPFMDL@glAccum?6?$AA@ 0063767c     renderer:win_qgl.obj
 0003:0000e688       ??_C@_0BJ@HDENBGFH@glAlphaFunc?$CI?50x?$CFx?0?5?$CFf?5?$CJ?6?$AA@ 00637688     renderer:win_qgl.obj
 0003:0000e6a8       ??_C@_0BH@BMLLFOBA@glAreTexturesResident?6?$AA@ 006376a8     renderer:win_qgl.obj
 0003:0000e6c4       ??_C@_0BA@NIMHNGKH@glArrayElement?6?$AA@ 006376c4     renderer:win_qgl.obj
 0003:0000e6d8       ??_C@_0P@JLNLBFBE@glBegin?$CI?5?$CFs?5?$CJ?6?$AA@ 006376d8     renderer:win_qgl.obj
 0003:0000e6ec       ??_C@_04OPBHEPOC@0x?$CFx?$AA@ 006376ec     renderer:win_qgl.obj
 0003:0000e6f4       ??_C@_0N@FABIPFMG@GL_LINE_LOOP?$AA@ 006376f4     renderer:win_qgl.obj
 0003:0000e704       ??_C@_0O@JMNICDEE@GL_LINE_STRIP?$AA@ 00637704     renderer:win_qgl.obj
 0003:0000e714       ??_C@_08LJNPFFPO@GL_LINES?$AA@ 00637714     renderer:win_qgl.obj
 0003:0000e720       ??_C@_09NNGDFGOK@GL_POINTS?$AA@ 00637720     renderer:win_qgl.obj
 0003:0000e72c       ??_C@_0L@PLGFHCPP@GL_POLYGON?$AA@ 0063772c     renderer:win_qgl.obj
 0003:0000e73c       ??_C@_0O@NHDLAEKB@GL_QUAD_STRIP?$AA@ 0063773c     renderer:win_qgl.obj
 0003:0000e74c       ??_C@_08PKCGEEFJ@GL_QUADS?$AA@ 0063774c     renderer:win_qgl.obj
 0003:0000e758       ??_C@_0BA@JPEIIGD@GL_TRIANGLE_FAN?$AA@ 00637758     renderer:win_qgl.obj
 0003:0000e76c       ??_C@_0BC@IJJHLCGE@GL_TRIANGLE_STRIP?$AA@ 0063776c     renderer:win_qgl.obj
 0003:0000e784       ??_C@_0N@DPCLFMKI@GL_TRIANGLES?$AA@ 00637784     renderer:win_qgl.obj
 0003:0000e794       ??_C@_0BL@HPKHNJKH@glBindTexture?$CI?50x?$CFx?0?5?$CFu?5?$CJ?6?$AA@ 00637794     renderer:win_qgl.obj
 0003:0000e7b4       ??_C@_09DMBKNKAB@glBitmap?6?$AA@ 006377b4     renderer:win_qgl.obj
 0003:0000e7c0       ??_C@_0BH@LNGGJGMM@glBlendFunc?$CI?5?$CFs?0?5?$CFs?5?$CJ?6?$AA@ 006377c0     renderer:win_qgl.obj
 0003:0000e7dc       ??_C@_0N@DDMEICAJ@GL_DST_ALPHA?$AA@ 006377dc     renderer:win_qgl.obj
 0003:0000e7ec       ??_C@_0BH@GMGAKMMA@GL_ONE_MINUS_DST_COLOR?$AA@ 006377ec     renderer:win_qgl.obj
 0003:0000e808       ??_C@_0N@EHMDOGOC@GL_DST_COLOR?$AA@ 00637808     renderer:win_qgl.obj
 0003:0000e818       ??_C@_0BH@LMBAHOML@GL_ONE_MINUS_SRC_ALPHA?$AA@ 00637818     renderer:win_qgl.obj
 0003:0000e834       ??_C@_0N@JHLDDEOJ@GL_SRC_ALPHA?$AA@ 00637834     renderer:win_qgl.obj
 0003:0000e844       ??_C@_07BEGJIDM@GL_ZERO?$AA@ 00637844     renderer:win_qgl.obj
 0003:0000e850       ??_C@_06BFJLKKJK@GL_ONE?$AA@ 00637850     renderer:win_qgl.obj
 0003:0000e858       ??_C@_0BC@PGBDBDGL@glCallList?$CI?5?$CFu?5?$CJ?6?$AA@ 00637858     renderer:win_qgl.obj
 0003:0000e870       ??_C@_0N@LIOIEBNO@glCallLists?6?$AA@ 00637870     renderer:win_qgl.obj
 0003:0000e880       ??_C@_02MNMNLDAI@?$CJ?6?$AA@ 00637880     renderer:win_qgl.obj
 0003:0000e884       ??_C@_0BF@BIJIMNGE@GL_ACCUM_BUFFER_BIT?5?$AA@ 00637884     renderer:win_qgl.obj
 0003:0000e8a0       ??_C@_0BH@KKNFMDIJ@GL_STENCIL_BUFFER_BIT?5?$AA@ 006378a0     renderer:win_qgl.obj
 0003:0000e8bc       ??_C@_0BF@KJOBCEGC@GL_DEPTH_BUFFER_BIT?5?$AA@ 006378bc     renderer:win_qgl.obj
 0003:0000e8d8       ??_C@_0BF@BFPFMDEP@GL_COLOR_BUFFER_BIT?5?$AA@ 006378d8     renderer:win_qgl.obj
 0003:0000e8f4       ??_C@_0BB@IDDIBIDC@glClear?$CI?50x?$CFx?5?$DN?5?$AA@ 006378f4     renderer:win_qgl.obj
 0003:0000e908       ??_C@_0O@IIACIDEG@glClearAccum?6?$AA@ 00637908     renderer:win_qgl.obj
 0003:0000e918       ??_C@_0O@MCNBJGHD@glClearColor?6?$AA@ 00637918     renderer:win_qgl.obj
 0003:0000e928       ??_C@_0BE@FCIHELMM@glClearDepth?$CI?5?$CFf?5?$CJ?6?$AA@ 00637928     renderer:win_qgl.obj
 0003:0000e940       ??_C@_0O@PPKHDEOL@glClearIndex?6?$AA@ 00637940     renderer:win_qgl.obj
 0003:0000e950       ??_C@_0BG@MJOLJGGJ@glClearStencil?$CI?5?$CFd?5?$CJ?6?$AA@ 00637950     renderer:win_qgl.obj
 0003:0000e96c       ??_C@_0N@OBAJGAJH@glClipPlane?6?$AA@ 0063796c     renderer:win_qgl.obj
 0003:0000e97c       ??_C@_0L@KNBMCMLJ@glColor3b?6?$AA@ 0063797c     renderer:win_qgl.obj
 0003:0000e98c       ??_C@_0M@BFBEGOLK@glColor3bv?6?$AA@ 0063798c     renderer:win_qgl.obj
 0003:0000e99c       ??_C@_0L@KJJBFAAL@glColor3d?6?$AA@ 0063799c     renderer:win_qgl.obj
 0003:0000e9ac       ??_C@_0M@DAHPDBGG@glColor3dv?6?$AA@ 006379ac     renderer:win_qgl.obj
 0003:0000e9bc       ??_C@_0L@KKBFIEGF@glColor3f?6?$AA@ 006379bc     renderer:win_qgl.obj
 0003:0000e9cc       ??_C@_0M@JKHGPJON@glColor3fv?6?$AA@ 006379cc     renderer:win_qgl.obj
 0003:0000e9dc       ??_C@_0L@KBEJMDFI@glColor3i?6?$AA@ 006379dc     renderer:win_qgl.obj
 0003:0000e9ec       ??_C@_0M@MCBFOJLL@glColor3iv?6?$AA@ 006379ec     renderer:win_qgl.obj
 0003:0000e9fc       ??_C@_0L@LAPIOFPO@glColor3s?6?$AA@ 006379fc     renderer:win_qgl.obj
 0003:0000ea0c       ??_C@_0M@PNLBFOEA@glColor3sv?6?$AA@ 00637a0c     renderer:win_qgl.obj
 0003:0000ea1c       ??_C@_0M@MDPFAKDA@glColor3ub?6?$AA@ 00637a1c     renderer:win_qgl.obj
 0003:0000ea2c       ??_C@_0N@IBBOLMBI@glColor3ubv?6?$AA@ 00637a2c     renderer:win_qgl.obj
 0003:0000ea3c       ??_C@_0M@MPKAOFNB@glColor3ui?6?$AA@ 00637a3c     renderer:win_qgl.obj
 0003:0000ea4c       ??_C@_0N@FGBPDLBJ@glColor3uiv?6?$AA@ 00637a4c     renderer:win_qgl.obj
 0003:0000ea5c       ??_C@_0M@NOBBMDHH@glColor3us?6?$AA@ 00637a5c     renderer:win_qgl.obj
 0003:0000ea6c       ??_C@_0N@GJLLIMOC@glColor3usv?6?$AA@ 00637a6c     renderer:win_qgl.obj
 0003:0000ea7c       ??_C@_0L@DAMLBEAA@glColor4b?6?$AA@ 00637a7c     renderer:win_qgl.obj
 0003:0000ea8c       ??_C@_0M@KHDELCKK@glColor4bv?6?$AA@ 00637a8c     renderer:win_qgl.obj
 0003:0000ea9c       ??_C@_0L@DEEGGILC@glColor4d?6?$AA@ 00637a9c     renderer:win_qgl.obj
 0003:0000eaac       ??_C@_0M@ICFPONHG@glColor4dv?6?$AA@ 00637aac     renderer:win_qgl.obj
 0003:0000eabc       ??_C@_0BK@GLHDEOI@glColor4f?$CI?5?$CFf?0?$CFf?0?$CFf?0?$CFf?5?$CJ?6?$AA@ 00637abc     renderer:win_qgl.obj
 0003:0000eadc       ??_C@_0BL@NGEGGGIG@glColor4fv?$CI?5?$CFf?0?$CFf?0?$CFf?0?$CFf?5?$CJ?6?$AA@ 00637adc     renderer:win_qgl.obj
 0003:0000eafc       ??_C@_0L@DMJOPLOB@glColor4i?6?$AA@ 00637afc     renderer:win_qgl.obj
 0003:0000eb0c       ??_C@_0M@HADFDFKL@glColor4iv?6?$AA@ 00637b0c     renderer:win_qgl.obj
 0003:0000eb1c       ??_C@_0L@CNCPNNEH@glColor4s?6?$AA@ 00637b1c     renderer:win_qgl.obj
 0003:0000eb2c       ??_C@_0M@EPJBICFA@glColor4sv?6?$AA@ 00637b2c     renderer:win_qgl.obj
 0003:0000eb3c       ??_C@_0N@JMBLIMKA@glColor4ubv?6?$AA@ 00637b3c     renderer:win_qgl.obj
 0003:0000eb4c       ??_C@_0M@HNIADJMB@glColor4ui?6?$AA@ 00637b4c     renderer:win_qgl.obj
 0003:0000eb5c       ??_C@_0N@ELBKALKB@glColor4uiv?6?$AA@ 00637b5c     renderer:win_qgl.obj
 0003:0000eb6c       ??_C@_0M@GMDBBPGH@glColor4us?6?$AA@ 00637b6c     renderer:win_qgl.obj
 0003:0000eb7c       ??_C@_0N@HELOLMFK@glColor4usv?6?$AA@ 00637b7c     renderer:win_qgl.obj
 0003:0000eb8c       ??_C@_0N@NJANOBDC@glColorMask?6?$AA@ 00637b8c     renderer:win_qgl.obj
 0003:0000eb9c       ??_C@_0BB@KJLCDMPM@glColorMaterial?6?$AA@ 00637b9c     renderer:win_qgl.obj
 0003:0000ebb0       ??_C@_0CD@MDNBONKN@glColorPointer?$CI?5?$CFd?0?5?$CFs?0?5?$CFd?0?5MEM?5@ 00637bb0     renderer:win_qgl.obj
 0003:0000ebdc       ??_C@_0BA@GHBGOAFD@?$CB?$CB?$CB?5UNKNOWN?5?$CB?$CB?$CB?$AA@ 00637bdc     renderer:win_qgl.obj
 0003:0000ebf0       ??_C@_09KPJJGMBD@GL_DOUBLE?$AA@ 00637bf0     renderer:win_qgl.obj
 0003:0000ebfc       ??_C@_08CAFAKAJG@GL_FLOAT?$AA@ 00637bfc     renderer:win_qgl.obj
 0003:0000ec08       ??_C@_0BA@IMMELLJG@GL_UNSIGNED_INT?$AA@ 00637c08     renderer:win_qgl.obj
 0003:0000ec1c       ??_C@_06GDCJNGFG@GL_INT?$AA@ 00637c1c     renderer:win_qgl.obj
 0003:0000ec24       ??_C@_0BC@GAFCKNBB@GL_UNSIGNED_SHORT?$AA@ 00637c24     renderer:win_qgl.obj
 0003:0000ec3c       ??_C@_08JIKLIIFH@GL_SHORT?$AA@ 00637c3c     renderer:win_qgl.obj
 0003:0000ec48       ??_C@_0BB@COPABHLN@GL_UNSIGNED_BYTE?$AA@ 00637c48     renderer:win_qgl.obj
 0003:0000ec5c       ??_C@_07LFHLDIGA@GL_BYTE?$AA@ 00637c5c     renderer:win_qgl.obj
 0003:0000ec68       ??_C@_0O@FNIGMMMF@glCopyPixels?6?$AA@ 00637c68     renderer:win_qgl.obj
 0003:0000ec78       ??_C@_0BC@NAEEIAAJ@glCopyTexImage1D?6?$AA@ 00637c78     renderer:win_qgl.obj
 0003:0000ec90       ??_C@_0BC@MCPBCPOH@glCopyTexImage2D?6?$AA@ 00637c90     renderer:win_qgl.obj
 0003:0000eca8       ??_C@_0BF@LJHMNDOI@glCopyTexSubImage1D?6?$AA@ 00637ca8     renderer:win_qgl.obj
 0003:0000ecc4       ??_C@_0BF@KLMJHMAG@glCopyTexSubImage2D?6?$AA@ 00637cc4     renderer:win_qgl.obj
 0003:0000ece0       ??_C@_0BC@HLKMMCBJ@glCullFace?$CI?5?$CFs?5?$CJ?6?$AA@ 00637ce0     renderer:win_qgl.obj
 0003:0000ecf8       ??_C@_08PENMMOEI@GL_FRONT?$AA@ 00637cf8     renderer:win_qgl.obj
 0003:0000ed04       ??_C@_0P@JIJNGNMF@glDeleteLists?6?$AA@ 00637d04     renderer:win_qgl.obj
 0003:0000ed18       ??_C@_0BC@PJPFPBNP@glDeleteTextures?6?$AA@ 00637d18     renderer:win_qgl.obj
 0003:0000ed30       ??_C@_0BD@KINJHKOL@glDepthFunc?$CI?5?$CFs?5?$CJ?6?$AA@ 00637d30     renderer:win_qgl.obj
 0003:0000ed48       ??_C@_0M@OOEKJBLI@GL_NOTEQUAL?$AA@ 00637d48     renderer:win_qgl.obj
 0003:0000ed58       ??_C@_09NOLOLEBE@GL_GEQUAL?$AA@ 00637d58     renderer:win_qgl.obj
 0003:0000ed64       ??_C@_0L@FFMBBKLC@GL_GREATER?$AA@ 00637d64     renderer:win_qgl.obj
 0003:0000ed74       ??_C@_08IDALKOKJ@GL_EQUAL?$AA@ 00637d74     renderer:win_qgl.obj
 0003:0000ed80       ??_C@_07JFDMNHE@GL_LESS?$AA@ 00637d80     renderer:win_qgl.obj
 0003:0000ed8c       ??_C@_09NMLJOAOO@GL_LEQUAL?$AA@ 00637d8c     renderer:win_qgl.obj
 0003:0000ed98       ??_C@_08LNFBFHMF@GL_NEVER?$AA@ 00637d98     renderer:win_qgl.obj
 0003:0000eda4       ??_C@_09BFDFBJNI@GL_ALWAYS?$AA@ 00637da4     renderer:win_qgl.obj
 0003:0000edb0       ??_C@_0BD@KOOMMBOM@glDepthMask?$CI?5?$CFs?5?$CJ?6?$AA@ 00637db0     renderer:win_qgl.obj
 0003:0000edc8       ??_C@_0BJ@JDBKNKDM@OUT?5OF?5RANGE?5FOR?5BOOLEAN?$AA@ 00637dc8     renderer:win_qgl.obj
 0003:0000ede8       ??_C@_07IMBILHHE@GL_TRUE?$AA@ 00637de8     renderer:win_qgl.obj
 0003:0000edf4       ??_C@_08IGAOJPMH@GL_FALSE?$AA@ 00637df4     renderer:win_qgl.obj
 0003:0000ee00       ??_C@_0BI@GLOECODG@glDepthRange?$CI?5?$CFf?0?5?$CFf?5?$CJ?6?$AA@ 00637e00     renderer:win_qgl.obj
 0003:0000ee1c       ??_C@_0BB@JJCKFOMA@glDisable?$CI?5?$CFs?5?$CJ?6?$AA@ 00637e1c     renderer:win_qgl.obj
 0003:0000ee30       ??_C@_0BA@OMMJCFDD@GL_STENCIL_TEST?$AA@ 00637e30     renderer:win_qgl.obj
 0003:0000ee44       ??_C@_0O@LGFCICFJ@GL_ALPHA_TEST?$AA@ 00637e44     renderer:win_qgl.obj
 0003:0000ee54       ??_C@_0BA@JFHJMJII@GL_VERTEX_ARRAY?$AA@ 00637e54     renderer:win_qgl.obj
 0003:0000ee68       ??_C@_0BH@LLLOJEAO@GL_TEXTURE_COORD_ARRAY?$AA@ 00637e68     renderer:win_qgl.obj
 0003:0000ee84       ??_C@_0P@IEOMEBHC@GL_COLOR_ARRAY?$AA@ 00637e84     renderer:win_qgl.obj
 0003:0000ee98       ??_C@_0P@NHDEGKDG@GL_CLIP_PLANE0?$AA@ 00637e98     renderer:win_qgl.obj
 0003:0000eeac       ??_C@_0N@KIJKCNGC@GL_CULL_FACE?$AA@ 00637eac     renderer:win_qgl.obj
 0003:0000eebc       ??_C@_0O@IFJMGEGG@GL_DEPTH_TEST?$AA@ 00637ebc     renderer:win_qgl.obj
 0003:0000eecc       ??_C@_08JFOCFHII@GL_BLEND?$AA@ 00637ecc     renderer:win_qgl.obj
 0003:0000eed8       ??_C@_0O@ELNGFGOK@GL_TEXTURE_2D?$AA@ 00637ed8     renderer:win_qgl.obj
 0003:0000eee8       ??_C@_0BM@DMNJOMNK@glDisableClientState?$CI?5?$CFs?5?$CJ?6?$AA@ 00637ee8     renderer:win_qgl.obj
 0003:0000ef0c       ??_C@_0O@KKMGEGEI@glDrawArrays?6?$AA@ 00637f0c     renderer:win_qgl.obj
 0003:0000ef1c       ??_C@_0O@NAIEGBKI@glDrawBuffer?6?$AA@ 00637f1c     renderer:win_qgl.obj
 0003:0000ef2c       ??_C@_0CD@GPAGANOP@glDrawElements?$CI?5?$CFs?0?5?$CFd?0?5?$CFs?0?5MEM?5@ 00637f2c     renderer:win_qgl.obj
 0003:0000ef58       ??_C@_0O@EMNCJNMC@glDrawPixels?6?$AA@ 00637f58     renderer:win_qgl.obj
 0003:0000ef68       ??_C@_0M@EJLMLIDA@glEdgeFlag?6?$AA@ 00637f68     renderer:win_qgl.obj
 0003:0000ef78       ??_C@_0BD@CIGMNIB@glEdgeFlagPointer?6?$AA@ 00637f78     renderer:win_qgl.obj
 0003:0000ef90       ??_C@_0N@IBJEPFKK@glEdgeFlagv?6?$AA@ 00637f90     renderer:win_qgl.obj
 0003:0000efa0       ??_C@_0BA@OGCEDJJI@glEnable?$CI?5?$CFs?5?$CJ?6?$AA@ 00637fa0     renderer:win_qgl.obj
 0003:0000efb4       ??_C@_0BL@HACNJHBM@glEnableClientState?$CI?5?$CFs?5?$CJ?6?$AA@ 00637fb4     renderer:win_qgl.obj
 0003:0000efd4       ??_C@_06KNGPEBLE@glEnd?6?$AA@ 00637fd4     renderer:win_qgl.obj
 0003:0000efdc       ??_C@_0L@DEPEENDO@glEndList?6?$AA@ 00637fdc     renderer:win_qgl.obj
 0003:0000efec       ??_C@_0P@CCLLNLGD@glEvalCoord1d?6?$AA@ 00637fec     renderer:win_qgl.obj
 0003:0000f000       ??_C@_0BA@HDJNPCIH@glEvalCoord1dv?6?$AA@ 00638000     renderer:win_qgl.obj
 0003:0000f014       ??_C@_0P@CBDPAPAN@glEvalCoord1f?6?$AA@ 00638014     renderer:win_qgl.obj
 0003:0000f028       ??_C@_0BA@NJJEDKAM@glEvalCoord1fv?6?$AA@ 00638028     renderer:win_qgl.obj
 0003:0000f03c       ??_C@_0P@DAAOHEIN@glEvalCoord2d?6?$AA@ 0063803c     renderer:win_qgl.obj
 0003:0000f050       ??_C@_0BA@DEDNIIFH@glEvalCoord2dv?6?$AA@ 00638050     renderer:win_qgl.obj
 0003:0000f064       ??_C@_0P@DDIKKAOD@glEvalCoord2f?6?$AA@ 00638064     renderer:win_qgl.obj
 0003:0000f078       ??_C@_0BA@JODEEANM@glEvalCoord2fv?6?$AA@ 00638078     renderer:win_qgl.obj
 0003:0000f08c       ??_C@_0N@NMAEIMBN@glEvalMesh1?6?$AA@ 0063808c     renderer:win_qgl.obj
 0003:0000f09c       ??_C@_0N@NOECDCEE@glEvalMesh2?6?$AA@ 0063809c     renderer:win_qgl.obj
 0003:0000f0ac       ??_C@_0O@HDACINEI@glEvalPoint1?6?$AA@ 006380ac     renderer:win_qgl.obj
 0003:0000f0bc       ??_C@_0O@HBEEDDBB@glEvalPoint2?6?$AA@ 006380bc     renderer:win_qgl.obj
 0003:0000f0cc       ??_C@_0BC@LPBOOEHF@glFeedbackBuffer?6?$AA@ 006380cc     renderer:win_qgl.obj
 0003:0000f0e4       ??_C@_09HLIDOBK@glFinish?6?$AA@ 006380e4     renderer:win_qgl.obj
 0003:0000f0f0       ??_C@_08KMOCPHF@glFlush?6?$AA@ 006380f0     renderer:win_qgl.obj
 0003:0000f0fc       ??_C@_07NOMCDGOK@glFogf?6?$AA@ 006380fc     renderer:win_qgl.obj
 0003:0000f108       ??_C@_08OHAFLAOO@glFogfv?6?$AA@ 00638108     renderer:win_qgl.obj
 0003:0000f114       ??_C@_07NFJOHBNH@glFogi?6?$AA@ 00638114     renderer:win_qgl.obj
 0003:0000f120       ??_C@_08LPGGKALI@glFogiv?6?$AA@ 00638120     renderer:win_qgl.obj
 0003:0000f12c       ??_C@_0N@NMLNMEBP@glFrontFace?6?$AA@ 0063812c     renderer:win_qgl.obj
 0003:0000f13c       ??_C@_0L@LMAEODIN@glFrustum?6?$AA@ 0063813c     renderer:win_qgl.obj
 0003:0000f14c       ??_C@_0M@HHPKAAJL@glGenLists?6?$AA@ 0063814c     renderer:win_qgl.obj
 0003:0000f15c       ??_C@_0P@JMFCBDJL@glGenTextures?6?$AA@ 0063815c     renderer:win_qgl.obj
 0003:0000f170       ??_C@_0P@LIIGLEFN@glGetBooleanv?6?$AA@ 00638170     renderer:win_qgl.obj
 0003:0000f184       ??_C@_0BA@IPIJIHMN@glGetClipPlane?6?$AA@ 00638184     renderer:win_qgl.obj
 0003:0000f198       ??_C@_0O@ECLHFBEH@glGetDoublev?6?$AA@ 00638198     renderer:win_qgl.obj
 0003:0000f1a8       ??_C@_0M@NNLCAJOK@glGetError?6?$AA@ 006381a8     renderer:win_qgl.obj
 0003:0000f1b8       ??_C@_0N@HLHLNAFJ@glGetFloatv?6?$AA@ 006381b8     renderer:win_qgl.obj
 0003:0000f1c8       ??_C@_0P@EBNDNMKL@glGetIntegerv?6?$AA@ 006381c8     renderer:win_qgl.obj
 0003:0000f1dc       ??_C@_0O@CMPPCHPE@glGetLightfv?6?$AA@ 006381dc     renderer:win_qgl.obj
 0003:0000f1ec       ??_C@_0O@HEJMDHKC@glGetLightiv?6?$AA@ 006381ec     renderer:win_qgl.obj
 0003:0000f1fc       ??_C@_0M@MBNHELAF@glGetMapdv?6?$AA@ 006381fc     renderer:win_qgl.obj
 0003:0000f20c       ??_C@_0M@GLNOIDIO@glGetMapfv?6?$AA@ 0063820c     renderer:win_qgl.obj
 0003:0000f21c       ??_C@_0M@DDLNJDNI@glGetMapiv?6?$AA@ 0063821c     renderer:win_qgl.obj
 0003:0000f22c       ??_C@_0BB@NFOCGLEJ@glGetMaterialfv?6?$AA@ 0063822c     renderer:win_qgl.obj
 0003:0000f240       ??_C@_0BB@INIBHLBP@glGetMaterialiv?6?$AA@ 00638240     renderer:win_qgl.obj
 0003:0000f254       ??_C@_0BB@BAHJMCIF@glGetPixelMapfv?6?$AA@ 00638254     renderer:win_qgl.obj
 0003:0000f268       ??_C@_0BC@BFPMNNEI@glGetPixelMapuiv?6?$AA@ 00638268     renderer:win_qgl.obj
 0003:0000f280       ??_C@_0BC@CKFIGKLD@glGetPixelMapusv?6?$AA@ 00638280     renderer:win_qgl.obj
 0003:0000f298       ??_C@_0P@ONOIGCPP@glGetPointerv?6?$AA@ 00638298     renderer:win_qgl.obj
 0003:0000f2ac       ??_C@_0BF@EMKGEEI@glGetPolygonStipple?6?$AA@ 006382ac     renderer:win_qgl.obj
 0003:0000f2c8       ??_C@_0N@LGGJBJIH@glGetString?6?$AA@ 006382c8     renderer:win_qgl.obj
 0003:0000f2d8       ??_C@_0P@FGPABIKP@glGetTexEnvfv?6?$AA@ 006382d8     renderer:win_qgl.obj
 0003:0000f2ec       ??_C@_0P@OJDAIPJ@glGetTexEnviv?6?$AA@ 006382ec     renderer:win_qgl.obj
 0003:0000f300       ??_C@_0P@FBDBONIN@glGetTexGendv?6?$AA@ 00638300     renderer:win_qgl.obj
 0003:0000f314       ??_C@_0P@PLDICFAG@glGetTexGenfv?6?$AA@ 00638314     renderer:win_qgl.obj
 0003:0000f328       ??_C@_0P@KDFLDFFA@glGetTexGeniv?6?$AA@ 00638328     renderer:win_qgl.obj
 0003:0000f33c       ??_C@_0P@GDNIDBKL@glGetTexImage?6?$AA@ 0063833c     renderer:win_qgl.obj
 0003:0000f350       ??_C@_0BK@OBIOIGJJ@glGetTexLevelParameterfv?6?$AA@ 00638350     renderer:win_qgl.obj
 0003:0000f370       ??_C@_0BK@LJONJGMP@glGetTexLevelParameteriv?6?$AA@ 00638370     renderer:win_qgl.obj
 0003:0000f390       ??_C@_0BF@IPLIDKOM@glGetTexParameterfv?6?$AA@ 00638390     renderer:win_qgl.obj
 0003:0000f3ac       ??_C@_0BF@NHNLCKLK@glGetTexParameteriv?6?$AA@ 006383ac     renderer:win_qgl.obj
 0003:0000f3c8       ??_C@_0BG@MNKJGBKM@glHint?$CI?50x?$CFx?0?50x?$CFx?5?$CJ?6?$AA@ 006383c8     renderer:win_qgl.obj
 0003:0000f3e4       ??_C@_0N@FKAIDDBG@glIndexMask?6?$AA@ 006383e4     renderer:win_qgl.obj
 0003:0000f3f4       ??_C@_0BA@NOPNNKJG@glIndexPointer?6?$AA@ 006383f4     renderer:win_qgl.obj
 0003:0000f408       ??_C@_09KBEPKCDK@glIndexd?6?$AA@ 00638408     renderer:win_qgl.obj
 0003:0000f414       ??_C@_0L@GBKJOPKO@glIndexdv?6?$AA@ 00638414     renderer:win_qgl.obj
 0003:0000f424       ??_C@_09KCMLHGFE@glIndexf?6?$AA@ 00638424     renderer:win_qgl.obj
 0003:0000f430       ??_C@_0L@MLKACHCF@glIndexfv?6?$AA@ 00638430     renderer:win_qgl.obj
 0003:0000f440       ??_C@_09KJJHDBGJ@glIndexi?6?$AA@ 00638440     renderer:win_qgl.obj
 0003:0000f44c       ??_C@_0L@JDMDDHHD@glIndexiv?6?$AA@ 0063844c     renderer:win_qgl.obj
 0003:0000f45c       ??_C@_09LICGBHMP@glIndexs?6?$AA@ 0063845c     renderer:win_qgl.obj
 0003:0000f468       ??_C@_0L@KMGHIAII@glIndexsv?6?$AA@ 00638468     renderer:win_qgl.obj
 0003:0000f478       ??_C@_0L@JCCDNEPI@glIndexub?6?$AA@ 00638478     renderer:win_qgl.obj
 0003:0000f488       ??_C@_0M@BEPACAEE@glIndexubv?6?$AA@ 00638488     renderer:win_qgl.obj
 0003:0000f498       ??_C@_0N@CDMKHFL@glInitNames?6?$AA@ 00638498     renderer:win_qgl.obj
 0003:0000f4a8       ??_C@_0BF@DPBGJABO@glInterleavedArrays?6?$AA@ 006384a8     renderer:win_qgl.obj
 0003:0000f4c4       ??_C@_0N@MCLKFGMJ@glIsEnabled?6?$AA@ 006384c4     renderer:win_qgl.obj
 0003:0000f4d4       ??_C@_09ECGOBBBP@glIsList?6?$AA@ 006384d4     renderer:win_qgl.obj
 0003:0000f4e0       ??_C@_0N@KCFONENE@glIsTexture?6?$AA@ 006384e0     renderer:win_qgl.obj
 0003:0000f4f0       ??_C@_0P@BJPDMKCI@glLightModelf?6?$AA@ 006384f0     renderer:win_qgl.obj
 0003:0000f504       ??_C@_0BA@JCKICCIO@glLightModelfv?6?$AA@ 00638504     renderer:win_qgl.obj
 0003:0000f518       ??_C@_0P@BCKPINBF@glLightModeli?6?$AA@ 00638518     renderer:win_qgl.obj
 0003:0000f52c       ??_C@_0BA@MKMLDCNI@glLightModeliv?6?$AA@ 0063852c     renderer:win_qgl.obj
 0003:0000f540       ??_C@_09BLFOEPBJ@glLightf?6?$AA@ 00638540     renderer:win_qgl.obj
 0003:0000f54c       ??_C@_0L@MDHEIPDB@glLightfv?6?$AA@ 0063854c     renderer:win_qgl.obj
 0003:0000f55c       ??_C@_09BAACAICE@glLighti?6?$AA@ 0063855c     renderer:win_qgl.obj
 0003:0000f568       ??_C@_0L@JLBHJPGH@glLightiv?6?$AA@ 00638568     renderer:win_qgl.obj
 0003:0000f578       ??_C@_0P@LKIDALDN@glLineStipple?6?$AA@ 00638578     renderer:win_qgl.obj
 0003:0000f58c       ??_C@_0N@KOBEAJHG@glLineWidth?6?$AA@ 0063858c     renderer:win_qgl.obj
 0003:0000f59c       ??_C@_0M@OHCLBBNL@glListBase?6?$AA@ 0063859c     renderer:win_qgl.obj
 0003:0000f5ac       ??_C@_0BA@KAKDDCOF@glLoadIdentity?6?$AA@ 006385ac     renderer:win_qgl.obj
 0003:0000f5c0       ??_C@_0P@IBFFJEIA@glLoadMatrixd?6?$AA@ 006385c0     renderer:win_qgl.obj
 0003:0000f5d4       ??_C@_0P@ICNBEAOO@glLoadMatrixf?6?$AA@ 006385d4     renderer:win_qgl.obj
 0003:0000f5e8       ??_C@_0M@KHFCCBO@glLoadName?6?$AA@ 006385e8     renderer:win_qgl.obj
 0003:0000f5f8       ??_C@_0L@MFDAICIH@glLogicOp?6?$AA@ 006385f8     renderer:win_qgl.obj
 0003:0000f608       ??_C@_08EELAIOPD@glMap1d?6?$AA@ 00638608     renderer:win_qgl.obj
 0003:0000f614       ??_C@_08EHDEFKJN@glMap1f?6?$AA@ 00638614     renderer:win_qgl.obj
 0003:0000f620       ??_C@_08FGAFCBBN@glMap2d?6?$AA@ 00638620     renderer:win_qgl.obj
 0003:0000f62c       ??_C@_08FFIBPFHD@glMap2f?6?$AA@ 0063862c     renderer:win_qgl.obj
 0003:0000f638       ??_C@_0N@JLEJCNNK@glMapGrid1d?6?$AA@ 00638638     renderer:win_qgl.obj
 0003:0000f648       ??_C@_0N@JIMNPJLE@glMapGrid1f?6?$AA@ 00638648     renderer:win_qgl.obj
 0003:0000f658       ??_C@_0N@IJPMICDE@glMapGrid2d?6?$AA@ 00638658     renderer:win_qgl.obj
 0003:0000f668       ??_C@_0N@IKHIFGFK@glMapGrid2f?6?$AA@ 00638668     renderer:win_qgl.obj
 0003:0000f678       ??_C@_0N@IPPFJFJM@glMaterialf?6?$AA@ 00638678     renderer:win_qgl.obj
 0003:0000f688       ??_C@_0O@FODCFDEE@glMaterialfv?6?$AA@ 00638688     renderer:win_qgl.obj
 0003:0000f698       ??_C@_0N@IEKJNCKB@glMateriali?6?$AA@ 00638698     renderer:win_qgl.obj
 0003:0000f6a8       ??_C@_0O@GFBEDBC@glMaterialiv?6?$AA@ 006386a8     renderer:win_qgl.obj
 0003:0000f6b8       ??_C@_0O@PFEMKMME@glMatrixMode?6?$AA@ 006386b8     renderer:win_qgl.obj
 0003:0000f6c8       ??_C@_0P@FGNGIEHH@glMultMatrixd?6?$AA@ 006386c8     renderer:win_qgl.obj
 0003:0000f6dc       ??_C@_0P@FFFCFABJ@glMultMatrixf?6?$AA@ 006386dc     renderer:win_qgl.obj
 0003:0000f6f0       ??_C@_0L@LNPNEJOG@glNewList?6?$AA@ 006386f0     renderer:win_qgl.obj
 0003:0000f700       ??_C@_0M@EJNLJMHO@glNormal3b?6?$AA@ 00638700     renderer:win_qgl.obj
 0003:0000f710       ??_C@_0N@BAPAPOBJ@glNormal3bv?6?$AA@ 00638710     renderer:win_qgl.obj
 0003:0000f720       ??_C@_0M@ENFGOAMM@glNormal3d?6?$AA@ 00638720     renderer:win_qgl.obj
 0003:0000f730       ??_C@_0N@DFJLKBMF@glNormal3dv?6?$AA@ 00638730     renderer:win_qgl.obj
 0003:0000f740       ??_C@_0M@EONCDEKC@glNormal3f?6?$AA@ 00638740     renderer:win_qgl.obj
 0003:0000f750       ??_C@_0N@JPJCGJEO@glNormal3fv?6?$AA@ 00638750     renderer:win_qgl.obj
 0003:0000f760       ??_C@_0M@EFIOHDJP@glNormal3i?6?$AA@ 00638760     renderer:win_qgl.obj
 0003:0000f770       ??_C@_0N@MHPBHJBI@glNormal3iv?6?$AA@ 00638770     renderer:win_qgl.obj
 0003:0000f780       ??_C@_0M@FEDPFFDJ@glNormal3s?6?$AA@ 00638780     renderer:win_qgl.obj
 0003:0000f790       ??_C@_0N@PIFFMOOD@glNormal3sv?6?$AA@ 00638790     renderer:win_qgl.obj
 0003:0000f7a0       ??_C@_0BB@MKGIKLEH@glNormalPointer?6?$AA@ 006387a0     renderer:win_qgl.obj
 0003:0000f7b4       ??_C@_08BJLNOGOG@glOrtho?6?$AA@ 006387b4     renderer:win_qgl.obj
 0003:0000f7c0       ??_C@_0P@BCPFLAHE@glPassThrough?6?$AA@ 006387c0     renderer:win_qgl.obj
 0003:0000f7d4       ??_C@_0O@JLKJPKII@glPixelMapfv?6?$AA@ 006387d4     renderer:win_qgl.obj
 0003:0000f7e4       ??_C@_0P@GLMGHBMN@glPixelMapuiv?6?$AA@ 006387e4     renderer:win_qgl.obj
 0003:0000f7f8       ??_C@_0P@FEGCMGDG@glPixelMapusv?6?$AA@ 006387f8     renderer:win_qgl.obj
 0003:0000f80c       ??_C@_0P@CBEBJBCL@glPixelStoref?6?$AA@ 0063880c     renderer:win_qgl.obj
 0003:0000f820       ??_C@_0P@CKBNNGBG@glPixelStorei?6?$AA@ 00638820     renderer:win_qgl.obj
 0003:0000f834       ??_C@_0BC@PCIFIHCI@glPixelTransferf?6?$AA@ 00638834     renderer:win_qgl.obj
 0003:0000f84c       ??_C@_0BC@PJNJMABF@glPixelTransferi?6?$AA@ 0063884c     renderer:win_qgl.obj
 0003:0000f864       ??_C@_0N@LKLMDEO@glPixelZoom?6?$AA@ 00638864     renderer:win_qgl.obj
 0003:0000f874       ??_C@_0N@HFMOHJLJ@glPointSize?6?$AA@ 00638874     renderer:win_qgl.obj
 0003:0000f884       ??_C@_0BN@GGKAIPLL@glPolygonMode?$CI?50x?$CFx?0?50x?$CFx?5?$CJ?6?$AA@ 00638884     renderer:win_qgl.obj
 0003:0000f8a8       ??_C@_0BB@JCDHAKOE@glPolygonOffset?6?$AA@ 006388a8     renderer:win_qgl.obj
 0003:0000f8bc       ??_C@_0BC@CHIKJHAK@glPolygonStipple?6?$AA@ 006388bc     renderer:win_qgl.obj
 0003:0000f8d4       ??_C@_0N@BPIBIAIA@glPopAttrib?6?$AA@ 006388d4     renderer:win_qgl.obj
 0003:0000f8e4       ??_C@_0BD@ECDMKECN@glPopClientAttrib?6?$AA@ 006388e4     renderer:win_qgl.obj
 0003:0000f8fc       ??_C@_0N@GMHJAAAA@glPopMatrix?6?$AA@ 006388fc     renderer:win_qgl.obj
 0003:0000f90c       ??_C@_0L@FNACPBGC@glPopName?6?$AA@ 0063890c     renderer:win_qgl.obj
 0003:0000f91c       ??_C@_0BG@BHACENHH@glPrioritizeTextures?6?$AA@ 0063891c     renderer:win_qgl.obj
 0003:0000f938       ??_C@_0O@DPFPMJA@glPushAttrib?6?$AA@ 00638938     renderer:win_qgl.obj
 0003:0000f948       ??_C@_0BE@IMKJMGKH@glPushClientAttrib?6?$AA@ 00638948     renderer:win_qgl.obj
 0003:0000f960       ??_C@_0O@HAANHMBA@glPushMatrix?6?$AA@ 00638960     renderer:win_qgl.obj
 0003:0000f970       ??_C@_0M@PHDHNHLF@glPushName?6?$AA@ 00638970     renderer:win_qgl.obj
 0003:0000f980       ??_C@_0P@NEMPOAMF@glRasterPot2d?6?$AA@ 00638980     renderer:win_qgl.obj
 0003:0000f994       ??_C@_0BA@FBNLLANJ@glRasterPos2dv?6?$AA@ 00638994     renderer:win_qgl.obj
 0003:0000f9a8       ??_C@_0P@GFGLOILL@glRasterPos2f?6?$AA@ 006389a8     renderer:win_qgl.obj
 0003:0000f9bc       ??_C@_0BA@LPJHMLHE@glRasterPos2if?6?$AA@ 006389bc     renderer:win_qgl.obj
 0003:0000f9d0       ??_C@_0BA@KDLBGIAE@glRasterPos2iv?6?$AA@ 006389d0     renderer:win_qgl.obj
 0003:0000f9e4       ??_C@_0P@HPIGIJCA@glRasterPos2s?6?$AA@ 006389e4     renderer:win_qgl.obj
 0003:0000f9f8       ??_C@_0BA@JMBFNPPP@glRasterPos2sv?6?$AA@ 006389f8     renderer:win_qgl.obj
 0003:0000fa0c       ??_C@_0P@NOFDFLLA@glRasterPos3d?6?$AA@ 00638a0c     renderer:win_qgl.obj
 0003:0000fa20       ??_C@_0BA@GMLLJJGJ@glRasterPos3dv?6?$AA@ 00638a20     renderer:win_qgl.obj
 0003:0000fa34       ??_C@_0P@NNNHIPNO@glRasterPos3f?6?$AA@ 00638a34     renderer:win_qgl.obj
 0003:0000fa48       ??_C@_0BA@MGLCFBOC@glRasterPos3fv?6?$AA@ 00638a48     renderer:win_qgl.obj
 0003:0000fa5c       ??_C@_0P@NGILMIOD@glRasterPos3i?6?$AA@ 00638a5c     renderer:win_qgl.obj
 0003:0000fa70       ??_C@_0BA@JONBEBLE@glRasterPos3iv?6?$AA@ 00638a70     renderer:win_qgl.obj
 0003:0000fa84       ??_C@_0P@MHDKOOEF@glRasterPos3s?6?$AA@ 00638a84     renderer:win_qgl.obj
 0003:0000fa98       ??_C@_0BA@KBHFPGEP@glRasterPos3sv?6?$AA@ 00638a98     renderer:win_qgl.obj
 0003:0000faac       ??_C@_0P@EDIEGDAJ@glRasterPos4d?6?$AA@ 00638aac     renderer:win_qgl.obj
 0003:0000fac0       ??_C@_0BA@NOJLEFHJ@glRasterPos4dv?6?$AA@ 00638ac0     renderer:win_qgl.obj
 0003:0000fad4       ??_C@_0P@EAAALHGH@glRasterPos4f?6?$AA@ 00638ad4     renderer:win_qgl.obj
 0003:0000fae8       ??_C@_0BA@HEJCINPC@glRasterPos4fv?6?$AA@ 00638ae8     renderer:win_qgl.obj
 0003:0000fafc       ??_C@_0P@ELFMPAFK@glRasterPos4i?6?$AA@ 00638afc     renderer:win_qgl.obj
 0003:0000fb10       ??_C@_0BA@CMPBJNKE@glRasterPos4iv?6?$AA@ 00638b10     renderer:win_qgl.obj
 0003:0000fb24       ??_C@_0P@FKONNGPM@glRasterPos4s?6?$AA@ 00638b24     renderer:win_qgl.obj
 0003:0000fb38       ??_C@_0BA@BDFFCKFP@glRasterPos4sv?6?$AA@ 00638b38     renderer:win_qgl.obj
 0003:0000fb4c       ??_C@_0O@CBCBIGEI@glReadBuffer?6?$AA@ 00638b4c     renderer:win_qgl.obj
 0003:0000fb5c       ??_C@_0O@LNHHHKCC@glReadPixels?6?$AA@ 00638b5c     renderer:win_qgl.obj
 0003:0000fb6c       ??_C@_08MFDNGFJP@glRectd?6?$AA@ 00638b6c     renderer:win_qgl.obj
 0003:0000fb78       ??_C@_09MHHBMKAO@glRectdv?6?$AA@ 00638b78     renderer:win_qgl.obj
 0003:0000fb84       ??_C@_08MGLJLBPB@glRectf?6?$AA@ 00638b84     renderer:win_qgl.obj
 0003:0000fb90       ??_C@_09GNHIACIF@glRectfv?6?$AA@ 00638b90     renderer:win_qgl.obj
 0003:0000fb9c       ??_C@_08MNOFPGMM@glRecti?6?$AA@ 00638b9c     renderer:win_qgl.obj
 0003:0000fba8       ??_C@_09DFBLBCND@glRectiv?6?$AA@ 00638ba8     renderer:win_qgl.obj
 0003:0000fbb4       ??_C@_08NMFENAGK@glRects?6?$AA@ 00638bb4     renderer:win_qgl.obj
 0003:0000fbc0       ??_C@_09KLPKFCI@glRectsv?6?$AA@ 00638bc0     renderer:win_qgl.obj
 0003:0000fbcc       ??_C@_0O@CHJAMNBA@glRenderMode?6?$AA@ 00638bcc     renderer:win_qgl.obj
 0003:0000fbdc       ??_C@_0L@BNDHBADO@glRotated?6?$AA@ 00638bdc     renderer:win_qgl.obj
 0003:0000fbec       ??_C@_0L@BOLDMEFA@glRotatef?6?$AA@ 00638bec     renderer:win_qgl.obj
 0003:0000fbfc       ??_C@_09NCENJCJJ@glScaled?6?$AA@ 00638bfc     renderer:win_qgl.obj
 0003:0000fc08       ??_C@_09NBMJEGPH@glScalef?6?$AA@ 00638c08     renderer:win_qgl.obj
 0003:0000fc14       ??_C@_0BN@PMDENLCH@glScissor?$CI?5?$CFd?0?5?$CFd?0?5?$CFd?0?5?$CFd?5?$CJ?6?$AA@ 00638c14     renderer:win_qgl.obj
 0003:0000fc38       ??_C@_0BA@LPJAJLDO@glSelectBuffer?6?$AA@ 00638c38     renderer:win_qgl.obj
 0003:0000fc4c       ??_C@_0O@FCFIILII@glShadeModel?6?$AA@ 00638c4c     renderer:win_qgl.obj
 0003:0000fc5c       ??_C@_0P@EPHCPMAF@glStencilFunc?6?$AA@ 00638c5c     renderer:win_qgl.obj
 0003:0000fc70       ??_C@_0P@BMLFODHO@glStencilMask?6?$AA@ 00638c70     renderer:win_qgl.obj
 0003:0000fc84       ??_C@_0N@MHDGPGEA@glStencilOp?6?$AA@ 00638c84     renderer:win_qgl.obj
 0003:0000fc94       ??_C@_0O@OMKJIGDN@glTexCoord1d?6?$AA@ 00638c94     renderer:win_qgl.obj
 0003:0000fca4       ??_C@_0P@PPIAJMCJ@glTexCoord1dv?6?$AA@ 00638ca4     renderer:win_qgl.obj
 0003:0000fcb8       ??_C@_0O@OPCNFCFD@glTexCoord1f?6?$AA@ 00638cb8     renderer:win_qgl.obj
 0003:0000fcc8       ??_C@_0P@FFIJFEKC@glTexCoord1fv?6?$AA@ 00638cc8     renderer:win_qgl.obj
 0003:0000fcdc       ??_C@_0O@OEHBBFGO@glTexCoord1i?6?$AA@ 00638cdc     renderer:win_qgl.obj
 0003:0000fcec       ??_C@_0P@NOKEEPE@glTexCoord1iv?6?$AA@ 00638cec     renderer:win_qgl.obj
 0003:0000fd00       ??_C@_0O@PFMADDMI@glTexCoord1s?6?$AA@ 00638d00     renderer:win_qgl.obj
 0003:0000fd10       ??_C@_0P@DCEOPDAP@glTexCoord1sv?6?$AA@ 00638d10     renderer:win_qgl.obj
 0003:0000fd24       ??_C@_0O@POBMCJND@glTexCoord2d?6?$AA@ 00638d24     renderer:win_qgl.obj
 0003:0000fd34       ??_C@_0P@LICAOGPJ@glTexCoord2dv?6?$AA@ 00638d34     renderer:win_qgl.obj
 0003:0000fd48       ??_C@_0O@PNJIPNLN@glTexCoord2f?6?$AA@ 00638d48     renderer:win_qgl.obj
 0003:0000fd58       ??_C@_0P@BCCJCOHC@glTexCoord2fv?6?$AA@ 00638d58     renderer:win_qgl.obj
 0003:0000fd6c       ??_C@_0O@PGMELKIA@glTexCoord2i?6?$AA@ 00638d6c     renderer:win_qgl.obj
 0003:0000fd7c       ??_C@_0P@EKEKDOCE@glTexCoord2iv?6?$AA@ 00638d7c     renderer:win_qgl.obj
 0003:0000fd90       ??_C@_0O@OHHFJMCG@glTexCoord2s?6?$AA@ 00638d90     renderer:win_qgl.obj
 0003:0000fda0       ??_C@_0P@HFOOIJNP@glTexCoord2sv?6?$AA@ 00638da0     renderer:win_qgl.obj
 0003:0000fdb4       ??_C@_0O@EGKAEOLG@glTexCoord3d?6?$AA@ 00638db4     renderer:win_qgl.obj
 0003:0000fdc4       ??_C@_0P@IFEAMPEJ@glTexCoord3dv?6?$AA@ 00638dc4     renderer:win_qgl.obj
 0003:0000fdd8       ??_C@_0O@EFCEJKNI@glTexCoord3f?6?$AA@ 00638dd8     renderer:win_qgl.obj
 0003:0000fde8       ??_C@_0P@CPEJAHMC@glTexCoord3fv?6?$AA@ 00638de8     renderer:win_qgl.obj
 0003:0000fdfc       ??_C@_0O@EOHINNOF@glTexCoord3i?6?$AA@ 00638dfc     renderer:win_qgl.obj
 0003:0000fe0c       ??_C@_0P@HHCKBHJE@glTexCoord3iv?6?$AA@ 00638e0c     renderer:win_qgl.obj
 0003:0000fe20       ??_C@_0O@FPMJPLED@glTexCoord3s?6?$AA@ 00638e20     renderer:win_qgl.obj
 0003:0000fe30       ??_C@_0P@EIIOKAGP@glTexCoord3sv?6?$AA@ 00638e30     renderer:win_qgl.obj
 0003:0000fe44       ??_C@_0O@NLHHHGAP@glTexCoord4d?6?$AA@ 00638e44     renderer:win_qgl.obj
 0003:0000fe54       ??_C@_0P@DHGABDFJ@glTexCoord4dv?6?$AA@ 00638e54     renderer:win_qgl.obj
 0003:0000fe68       ??_C@_0O@NIPDKCGB@glTexCoord4f?6?$AA@ 00638e68     renderer:win_qgl.obj
 0003:0000fe78       ??_C@_0P@JNGJNLNC@glTexCoord4fv?6?$AA@ 00638e78     renderer:win_qgl.obj
 0003:0000fe8c       ??_C@_0O@NDKPOFFM@glTexCoord4i?6?$AA@ 00638e8c     renderer:win_qgl.obj
 0003:0000fe9c       ??_C@_0P@MFAKMLIE@glTexCoord4iv?6?$AA@ 00638e9c     renderer:win_qgl.obj
 0003:0000feb0       ??_C@_0O@MCBOMDPK@glTexCoord4s?6?$AA@ 00638eb0     renderer:win_qgl.obj
 0003:0000fec0       ??_C@_0P@PKKOHMHP@glTexCoord4sv?6?$AA@ 00638ec0     renderer:win_qgl.obj
 0003:0000fed4       ??_C@_0CG@PCDFCPLA@glTexCoordPointer?$CI?5?$CFd?0?5?$CFs?0?5?$CFd?0?5M@ 00638ed4     renderer:win_qgl.obj
 0003:0000ff04       ??_C@_0BN@OFAECEEA@glTexEnvf?$CI?50x?$CFx?0?50x?$CFx?0?5?$CFf?5?$CJ?6?$AA@ 00638f04     renderer:win_qgl.obj
 0003:0000ff28       ??_C@_0M@LNBBKFDI@glTexEnvfv?6?$AA@ 00638f28     renderer:win_qgl.obj
 0003:0000ff38       ??_C@_0BP@OOICOAPD@glTexEnvi?$CI?50x?$CFx?0?50x?$CFx?0?50x?$CFx?5?$CJ?6?$AA@ 00638f38     renderer:win_qgl.obj
 0003:0000ff60       ??_C@_0M@OFHCLFGO@glTexEnviv?6?$AA@ 00638f60     renderer:win_qgl.obj
 0003:0000ff70       ??_C@_0L@GDDJMABA@glTexGend?6?$AA@ 00638f70     renderer:win_qgl.obj
 0003:0000ff80       ??_C@_0M@LKNAFABK@glTexGendv?6?$AA@ 00638f80     renderer:win_qgl.obj
 0003:0000ff90       ??_C@_0L@GALNBEHO@glTexGenf?6?$AA@ 00638f90     renderer:win_qgl.obj
 0003:0000ffa0       ??_C@_0M@BANJJIJB@glTexGenfv?6?$AA@ 00638fa0     renderer:win_qgl.obj
 0003:0000ffb0       ??_C@_0L@GLOBFDED@glTexGeni?6?$AA@ 00638fb0     renderer:win_qgl.obj
 0003:0000ffc0       ??_C@_0M@EILKIIMH@glTexGeniv?6?$AA@ 00638fc0     renderer:win_qgl.obj
 0003:0000ffd0       ??_C@_0O@DNKLIMPL@glTexImage1D?6?$AA@ 00638fd0     renderer:win_qgl.obj
 0003:0000ffe0       ??_C@_0O@CPBOCDBF@glTexImage2D?6?$AA@ 00638fe0     renderer:win_qgl.obj
 0003:0000fff0       ??_C@_0CD@PAPIOALP@glTexParameterf?$CI?50x?$CFx?0?50x?$CFx?0?5?$CFf?5@ 00638ff0     renderer:win_qgl.obj
 0003:0001001c       ??_C@_0BC@KMPIMJKO@glTexParameterfv?6?$AA@ 0063901c     renderer:win_qgl.obj
 0003:00010034       ??_C@_0CF@OBKPAONE@glTexParameteri?$CI?50x?$CFx?0?50x?$CFx?0?50x?$CF@ 00639034     renderer:win_qgl.obj
 0003:00010060       ??_C@_0BC@PEJLNJPI@glTexParameteriv?6?$AA@ 00639060     renderer:win_qgl.obj
 0003:00010078       ??_C@_0BB@JDDMMEFO@glTexSubImage1D?6?$AA@ 00639078     renderer:win_qgl.obj
 0003:0001008c       ??_C@_0BB@IBIJGLLA@glTexSubImage2D?6?$AA@ 0063908c     renderer:win_qgl.obj
 0003:000100a0       ??_C@_0O@HIFANJBI@glTranslated?6?$AA@ 006390a0     renderer:win_qgl.obj
 0003:000100b0       ??_C@_0O@HLNEANHG@glTranslatef?6?$AA@ 006390b0     renderer:win_qgl.obj
 0003:000100c0       ??_C@_0M@KIAKGGGC@glVertex2d?6?$AA@ 006390c0     renderer:win_qgl.obj
 0003:000100d0       ??_C@_0N@EBAHDKM@glVertex2dv?6?$AA@ 006390d0     renderer:win_qgl.obj
 0003:000100e0       ??_C@_0M@KLIOLCAM@glVertex2f?6?$AA@ 006390e0     renderer:win_qgl.obj
 0003:000100f0       ??_C@_0N@KOBJLLCH@glVertex2fv?6?$AA@ 006390f0     renderer:win_qgl.obj
 0003:00010100       ??_C@_0M@KANCPFDB@glVertex2i?6?$AA@ 00639100     renderer:win_qgl.obj
 0003:00010110       ??_C@_0N@PGHKKLHB@glVertex2iv?6?$AA@ 00639110     renderer:win_qgl.obj
 0003:00010120       ??_C@_0M@LBGDNDJH@glVertex2s?6?$AA@ 00639120     renderer:win_qgl.obj
 0003:00010130       ??_C@_0N@MJNOBMIK@glVertex2sv?6?$AA@ 00639130     renderer:win_qgl.obj
 0003:00010140       ??_C@_0M@BALGABAH@glVertex3d?6?$AA@ 00639140     renderer:win_qgl.obj
 0003:00010150       ??_C@_0N@DJHAFKBM@glVertex3dv?6?$AA@ 00639150     renderer:win_qgl.obj
 0003:00010160       ??_C@_0M@BDDCNFGJ@glVertex3f?6?$AA@ 00639160     renderer:win_qgl.obj
 0003:00010170       ??_C@_0N@JDHJJCJH@glVertex3fv?6?$AA@ 00639170     renderer:win_qgl.obj
 0003:00010180       ??_C@_0M@BIGOJCFE@glVertex3i?6?$AA@ 00639180     renderer:win_qgl.obj
 0003:00010190       ??_C@_0N@MLBKICMB@glVertex3iv?6?$AA@ 00639190     renderer:win_qgl.obj
 0003:000101a0       ??_C@_0M@JNPLEPC@glVertex3s?6?$AA@ 006391a0     renderer:win_qgl.obj
 0003:000101b0       ??_C@_0N@PELODFDK@glVertex3sv?6?$AA@ 006391b0     renderer:win_qgl.obj
 0003:000101c0       ??_C@_0M@INGBDJLO@glVertex4d?6?$AA@ 006391c0     renderer:win_qgl.obj
 0003:000101d0       ??_C@_0N@ILFAIGAM@glVertex4dv?6?$AA@ 006391d0     renderer:win_qgl.obj
 0003:000101e0       ??_C@_0M@IOOFONNA@glVertex4f?6?$AA@ 006391e0     renderer:win_qgl.obj
 0003:000101f0       ??_C@_0N@CBFJEOIH@glVertex4fv?6?$AA@ 006391f0     renderer:win_qgl.obj
 0003:00010200       ??_C@_0M@IFLJKKON@glVertex4i?6?$AA@ 00639200     renderer:win_qgl.obj
 0003:00010210       ??_C@_0N@HJDKFONB@glVertex4iv?6?$AA@ 00639210     renderer:win_qgl.obj
 0003:00010220       ??_C@_0M@JEAIIMEL@glVertex4s?6?$AA@ 00639220     renderer:win_qgl.obj
 0003:00010230       ??_C@_0N@EGJOOJCK@glVertex4sv?6?$AA@ 00639230     renderer:win_qgl.obj
 0003:00010240       ??_C@_0CE@FOOALGBI@glVertexPointer?$CI?5?$CFd?0?5?$CFs?0?5?$CFd?0?5MEM@ 00639240     renderer:win_qgl.obj
 0003:0001026c       ??_C@_0BO@LKDIICAC@glViewport?$CI?5?$CFd?0?5?$CFd?0?5?$CFd?0?5?$CFd?5?$CJ?6?$AA@ 0063926c     renderer:win_qgl.obj
 0003:00010290       ??_C@_0BI@EMKCPMIG@GL_LINEAR_MIPMAP_LINEAR?$AA@ 00639290     renderer:tr_image.obj
 0003:000102ac       ??_C@_0BJ@HEAOEMHH@GL_NEAREST_MIPMAP_LINEAR?$AA@ 006392ac     renderer:tr_image.obj
 0003:000102cc       ??_C@_0BK@DIHBBLKN@GL_NEAREST_MIPMAP_NEAREST?$AA@ 006392cc     renderer:tr_image.obj
 0003:000102ec       ??_C@_09MNJDEIIG@GL_LINEAR?$AA@ 006392ec     renderer:tr_image.obj
 0003:000102f8       ??_C@_0L@PCHCEECD@GL_NEAREST?$AA@ 006392f8     renderer:tr_image.obj
 0003:00010308       ??_C@_0BB@GBGIGKBA@bad?5filter?5name?6?$AA@ 00639308     renderer:tr_image.obj
 0003:0001031c       ??_C@_0CI@FNBBMLKI@Refusing?5to?5set?5trilinear?5on?5a?5v@ 0063931c     renderer:tr_image.obj
 0003:0001034c       ??_C@_0BD@GJNNOEIC@?5?$CFi?5total?5images?6?6?$AA@ 0063934c     renderer:tr_image.obj
 0003:00010364       ??_C@_0CK@EIAOBKGB@?5?$CFi?5total?5texels?5?$CInot?5including?5@ 00639364     renderer:tr_image.obj
 0003:00010398       ??_C@_0M@MOFGFFHA@?5?9?9?9?9?9?9?9?9?9?6?$AA@ 00639398     renderer:tr_image.obj
 0003:000103a8       ??_C@_04MDKIEGGJ@?5?$CFs?6?$AA@ 006393a8     renderer:tr_image.obj
 0003:000103b0       ??_C@_05JEKGNKMI@clmp?5?$AA@ 006393b0     renderer:tr_image.obj
 0003:000103b8       ??_C@_05PEEGEOBJ@rept?5?$AA@ 006393b8     renderer:tr_image.obj
 0003:000103c0       ??_C@_05IKJLKKIL@?$DP?$DP?$DP?$DP?5?$AA@ 006393c0     renderer:tr_image.obj
 0003:000103c8       ??_C@_05GDJBOAJG@RGB5?5?$AA@ 006393c8     renderer:tr_image.obj
 0003:000103d0       ??_C@_05BOMHPHEP@RGBA4?$AA@ 006393d0     renderer:tr_image.obj
 0003:000103d8       ??_C@_05IBJBGJJN@S3TC?5?$AA@ 006393d8     renderer:tr_image.obj
 0003:000103e0       ??_C@_04BJEMBBJI@RGB8?$AA@ 006393e0     renderer:tr_image.obj
 0003:000103e8       ??_C@_05LCHCLIED@RGBA8?$AA@ 006393e8     renderer:tr_image.obj
 0003:000103f0       ??_C@_05DAGJCABK@RGBA?5?$AA@ 006393f0     renderer:tr_image.obj
 0003:000103f8       ??_C@_05HJHMIBAN@RGB?5?5?$AA@ 006393f8     renderer:tr_image.obj
 0003:00010400       ??_C@_05OACLJHN@IA?5?5?5?$AA@ 00639400     renderer:tr_image.obj
 0003:00010408       ??_C@_05KKFAOHIA@I?5?5?5?5?$AA@ 00639408     renderer:tr_image.obj
 0003:00010410       ??_C@_0BJ@LLKIDIMA@?$CF4i?3?5?$CF4i?5?$CF4i?5?5?$CFs?5?5?5?$CFd?5?5?5?$AA@ 00639410     renderer:tr_image.obj
 0003:00010430       ??_C@_0DG@JCJHFFAO@?6?5?5?5?5?5?5?9w?9?9?5?9h?9?9?5?9mm?9?5?9TMU?9?5?9if?9@ 00639430     renderer:tr_image.obj
 0003:00010470       ??_C@_03ICICOMAL@yes?$AA@  00639470     renderer:tr_image.obj
 0003:00010474       ??_C@_03NDENAIGM@no?5?$AA@ 00639474     renderer:tr_image.obj
 0003:00010478       ??_C@_0BC@LHGJPHKP@sizeof?$CI?5image_t?5?$CJ?$AA@ 00639478     renderer:tr_image.obj
 0003:00010490       ??_C@_0CO@FIOPFMIG@c?3?2quake3?2luamod_src?2code?2render@ 00639490     renderer:tr_image.obj
 0003:000104c8       ??_C@_0CD@JDGPJFMH@R_CreateImage?3?5MAX_DRAWIMAGES?5hi@ 006394c8     renderer:tr_image.obj
 0003:000104f4       ??_C@_09DIHLIDNM@?$CKlightmap?$AA@ 006394f4     renderer:tr_image.obj
 0003:00010500       ??_C@_0CB@COPOFLLF@R_CreateImage?3?5?$CC?$CFs?$CC?5is?5too?5long?6@ 00639500     renderer:tr_image.obj
 0003:00010528       __real@3fe8000000000000    00639528     renderer:tr_image.obj
 0003:00010534       ??_C@_0BL@CFNJBMFH@ResampleTexture?3?5max?5width?$AA@ 00639534     renderer:tr_image.obj
 0003:00010554       ??_C@_04GNPKBLNA@?4jpg?$AA@ 00639554     renderer:tr_image.obj
 0003:0001055c       ??_C@_04LJDDIHIK@?4bmp?$AA@ 0063955c     renderer:tr_image.obj
 0003:00010564       ??_C@_04IBGELPJM@?4pcx?$AA@ 00639564     renderer:tr_image.obj
 0003:0001056c       ??_C@_04JCAPCJAP@?4tga?$AA@ 0063956c     renderer:tr_image.obj
 0003:00010574       ??_C@_0CP@HFFCJEDA@LoadBMP?3?5illegal?5pixel_size?5?8?$CFd?8@ 00639574     renderer:tr_image.obj
 0003:000105ac       ??_C@_0DM@FILABPHO@LoadBMP?3?5monochrome?5and?54?9bit?5BM@ 006395ac     renderer:tr_image.obj
 0003:000105f4       ??_C@_0DF@KOIMKIGD@LoadBMP?3?5only?5uncompressed?5BMP?5f@ 006395f4     renderer:tr_image.obj
 0003:00010638       ??_C@_0EA@NGPBBGNH@LoadBMP?3?5header?5size?5does?5not?5ma@ 00639638     renderer:tr_image.obj
 0003:00010684       ??_C@_0DG@EEIFLDDF@LoadBMP?3?5only?5Windows?9style?5BMP?5@ 00639684     renderer:tr_image.obj
 0003:000106c4       ??_C@_0BK@PFOMPPID@PCX?5file?5?$CFs?5was?5malformed?$AA@ 006396c4     renderer:tr_image.obj
 0003:000106e4       ??_C@_0CF@ENHIPICL@Bad?5pcx?5file?5?$CFs?5?$CI?$CFi?5x?5?$CFi?$CJ?5?$CI?$CFi?5x?5@ 006396e4     renderer:tr_image.obj
 0003:00010710       ??_C@_0EB@OLGCIND@WARNING?3?5?8?$CFs?8?5TGA?5file?5header?5de@ 00639710     renderer:tr_image.obj
 0003:00010760       ??_C@_0CP@LECNENMO@LoadTGA?3?5illegal?5pixel_size?5?8?$CFd?8@ 00639760     renderer:tr_image.obj
 0003:00010798       ??_C@_0DM@DMKLIHNL@LoadTGA?3?5Only?532?5or?524?5bit?5image@ 00639798     renderer:tr_image.obj
 0003:000107e0       ??_C@_0CC@LANFMKPP@LoadTGA?3?5colormaps?5not?5supported@ 006397e0     renderer:tr_image.obj
 0003:00010808       ??_C@_0EJ@MFOPHNJO@LoadTGA?3?5Only?5type?52?5?$CIRGB?$CJ?0?53?5?$CIg@ 00639808     renderer:tr_image.obj
 0003:00010860       ??_C@_0O@HNBMHJNF@trying?5?$CFs?4?4?4?6?$AA@ 00639860     renderer:tr_image.obj
 0003:00010870       ??_C@_0DK@MNCNIICN@WARNING?3?5reused?5image?5?$CFs?5with?5mi@ 00639870     renderer:tr_image.obj
 0003:000108b8       ??_C@_0DG@MEFHLIGB@WARNING?3?5reused?5image?5?$CFs?5with?5mi@ 006398b8     renderer:tr_image.obj
 0003:000108f8       ??_C@_0DB@JBEOHFBI@WARNING?3?5reused?5image?5?$CFs?5with?5mi@ 006398f8     renderer:tr_image.obj
 0003:00010934       ??_C@_06LLGHKAEB@?$CKwhite?$AA@ 00639934     renderer:tr_image.obj
 0003:0001093c       __real@3f700000            0063993c     renderer:tr_image.obj
 0003:00010940       __real@3d000000            00639940     renderer:tr_image.obj
 0003:00010948       __real@3fef000000000000    00639948     renderer:tr_image.obj
 0003:00010958       __real@3fa0000000000000    00639958     renderer:tr_image.obj
 0003:00010968       __real@3f60000000000000    00639968     renderer:tr_image.obj
 0003:00010974       ??_C@_08HHPIHCEN@?$CKscratch?$AA@ 00639974     renderer:tr_image.obj
 0003:00010980       ??_C@_0P@IACCPHGD@?$CKidentityLight?$AA@ 00639980     renderer:tr_image.obj
 0003:00010994       ??_C@_07MNOAAFDD@?$CKdlight?$AA@ 00639994     renderer:tr_image.obj
 0003:000109a0       __real@457a0000            006399a0     renderer:tr_image.obj
 0003:000109a4       __real@40f00000            006399a4     renderer:tr_image.obj
 0003:000109a8       ??_C@_04MFNGOGOF@?$CKfog?$AA@ 006399a8     renderer:tr_image.obj
 0003:000109b0       ??_C@_08KPIGECMN@?$CKdefault?$AA@ 006399b0     renderer:tr_image.obj
 0003:000109c0       __real@406fe00000000000    006399c0     renderer:tr_image.obj
 0003:000109cc       ??_C@_03NBLACKLF@3?40?$AA@ 006399cc     renderer:tr_image.obj
 0003:000109d0       ??_C@_0BN@MKKJEINF@sizeof?$CI?5?$CKskin?9?$DOsurfaces?$FL0?$FN?5?$CJ?$AA@ 006399d0     renderer:tr_image.obj
 0003:000109f4       ??_C@_04MGKOECLF@tag_?$AA@ 006399f4     renderer:tr_image.obj
 0003:000109fc       ??_C@_0BK@LMMJHLEP@sizeof?$CIskin?9?$DOsurfaces?$FL0?$FN?$CJ?$AA@ 006399fc     renderer:tr_image.obj
 0003:00010a1c       ??_C@_05JNLGGGIB@?4skin?$AA@ 00639a1c     renderer:tr_image.obj
 0003:00010a24       ??_C@_0BB@FLKNGHOI@sizeof?$CI?5skin_t?5?$CJ?$AA@ 00639a24     renderer:tr_image.obj
 0003:00010a38       ??_C@_0DA@INLCLALN@WARNING?3?5RE_RegisterSkin?$CI?5?8?$CFs?8?5?$CJ@ 00639a38     renderer:tr_image.obj
 0003:00010a74       ??_C@_0BN@KCHDLGKI@Skin?5name?5exceeds?5MAX_QPATH?6?$AA@ 00639a74     renderer:tr_image.obj
 0003:00010a98       ??_C@_0CG@DBBAHOML@Empty?5name?5passed?5to?5RE_Register@ 00639a98     renderer:tr_image.obj
 0003:00010ac8       ??_C@_0BK@HCIFDDIP@sizeof?$CI?5?$CKskin?9?$DOsurfaces?5?$CJ?$AA@ 00639ac8     renderer:tr_image.obj
 0003:00010ae8       ??_C@_0P@BKIAPLDF@?$DMdefault?5skin?$DO?$AA@ 00639ae8     renderer:tr_image.obj
 0003:00010afc       ??_C@_0BA@EEMBKHGA@?5?5?5?5?5?5?5?$CFs?5?$DN?5?$CFs?6?$AA@ 00639afc     renderer:tr_image.obj
 0003:00010b10       ??_C@_0CD@NLAAGEFK@flare?5adds?3?$CFi?5tests?3?$CFi?5renders?3?$CF@ 00639b10     renderer:tr_cmds.obj
 0003:00010b3c       ??_C@_0M@CAGENDME@zFar?3?5?$CF?40f?6?$AA@ 00639b3c     renderer:tr_cmds.obj
 0003:00010b4c       ??_C@_0CN@IIFCDMCN@dlight?5srf?3?$CFi?5?5culled?3?$CFi?5?5verts?3@ 00639b4c     renderer:tr_cmds.obj
 0003:00010b84       ??_C@_0BB@ODENPAFM@viewcluster?3?5?$CFi?6?$AA@ 00639b84     renderer:tr_cmds.obj
 0003:00010b98       ??_C@_0DI@CLNINGCE@?$CImd3?$CJ?5?$CFi?5sin?5?$CFi?5sclip?5?5?$CFi?5sout?5?$CF@ 00639b98     renderer:tr_cmds.obj
 0003:00010bdc       ??_C@_0DK@PDABEOHF@?$CIpatch?$CJ?5?$CFi?5sin?5?$CFi?5sclip?5?5?$CFi?5sout@ 00639bdc     renderer:tr_cmds.obj
 0003:00010c28       ??_C@_0EE@IJFCGEK@?$CFi?1?$CFi?5shaders?1surfs?5?$CFi?5leafs?5?$CFi?5@ 00639c28     renderer:tr_cmds.obj
 0003:00010c7c       __real@49742400            00639c7c     renderer:tr_cmds.obj
 0003:00010c80       ??_C@_0M@IPNOCDNB@?4?4?4failed?4?6?$AA@ 00639c80     renderer:tr_cmds.obj
 0003:00010c90       ??_C@_0P@HOCIIEJB@?4?4?4succeeded?4?6?$AA@ 00639c90     renderer:tr_cmds.obj
 0003:00010ca4       ??_C@_0BM@JMNGBMDE@Trying?5SMP?5acceleration?4?4?4?6?$AA@ 00639ca4     renderer:tr_cmds.obj
 0003:00010cc8       ??_C@_07HLHEIAJN@cmdList?$AA@ 00639cc8     renderer:tr_cmds.obj
 0003:00010cd4       ??_C@_0CN@NJFIOEEA@c?3?2quake3?2luamod_src?2code?2render@ 00639cd4     renderer:tr_cmds.obj
 0003:00010d0c       ??_C@_0CA@BOMALFJA@R_GetCommandBuffer?3?5bad?5size?5?$CFi?$AA@ 00639d0c     renderer:tr_cmds.obj
 0003:00010d34       ??_C@_0DK@NPPAJLCP@RE_BeginFrame?3?5Stereo?5is?5disable@ 00639d34     renderer:tr_cmds.obj
 0003:00010d7c       ??_C@_0DJ@HLGALEHO@RE_BeginFrame?3?5Stereo?5is?5enabled@ 00639d7c     renderer:tr_cmds.obj
 0003:00010dc0       ??_C@_0CP@PGCGPPGN@RE_BeginFrame?$CI?$CJ?5?9?5glGetError?$CI?$CJ?5f@ 00639dc0     renderer:tr_cmds.obj
 0003:00010df8       ??_C@_0EK@OFLLHINH@Warning?3?5stencil?5shadows?5and?5ove@ 00639df8     renderer:tr_cmds.obj
 0003:00010e50       ??_C@_0DK@JPMHOIDD@Warning?3?5not?5enough?5stencil?5bits@ 00639e50     renderer:tr_cmds.obj
 0003:00010e98       ??_C@_0BF@OHALGONN@GL_Bind?3?5NULL?5image?6?$AA@ 00639e98     renderer:tr_backend.obj
 0003:00010eb4       ??_C@_0BM@MKDPKBLD@GL_SelectTexture?3?5unit?5?$DN?5?$CFi?$AA@ 00639eb4     renderer:tr_backend.obj
 0003:00010ed8       ??_C@_0CN@JJAMLFKM@glClientActiveTextureARB?$CI?5GL_TEX@ 00639ed8     renderer:tr_backend.obj
 0003:00010f10       ??_C@_0CH@EBJBHDDO@glActiveTextureARB?$CI?5GL_TEXTURE1_@ 00639f10     renderer:tr_backend.obj
 0003:00010f40       ??_C@_0CN@IOHHKBOP@glClientActiveTextureARB?$CI?5GL_TEX@ 00639f40     renderer:tr_backend.obj
 0003:00010f78       ??_C@_0CH@FGOKGHHN@glActiveTextureARB?$CI?5GL_TEXTURE0_@ 00639f78     renderer:tr_backend.obj
 0003:00010fa8       ??_C@_0CE@DIKCONAP@GL_TexEnv?3?5invalid?5env?5?8?$CFd?8?5pass@ 00639fa8     renderer:tr_backend.obj
 0003:00010fd4       ??_C@_0DA@CNHCCMGJ@c?3?2quake3?2luamod_src?2code?2render@ 00639fd4     renderer:tr_backend.obj
 0003:00011010       ??_C@_0CI@MPNHLHAM@GL_State?3?5invalid?5dst?5blend?5stat@ 0063a010     renderer:tr_backend.obj
 0003:00011040       ??_C@_0CI@JNKBENCF@GL_State?3?5invalid?5src?5blend?5stat@ 0063a040     renderer:tr_backend.obj
 0003:00011070       __real@3fd3333333333333    0063a070     renderer:tr_backend.obj
 0003:0001107c       __real@3a83126f            0063a07c     renderer:tr_backend.obj
 0003:00011080       ??_C@_0CC@BHAIMEHO@qglTexSubImage2D?5?$CFi?0?5?$CFi?3?5?$CFi?5msec@ 0063a080     renderer:tr_backend.obj
 0003:000110a8       ??_C@_0DB@BADIHKNP@Draw_StretchRaw?3?5size?5not?5a?5powe@ 0063a0a8     renderer:tr_backend.obj
 0003:000110e4       ??_C@_0BM@CDGHDPNH@?$CFi?5msec?5to?5draw?5all?5images?6?$AA@ 0063a0e4     renderer:tr_backend.obj
 0003:00011108       ??_C@_0DG@CHHALGE@?$CK?$CK?$CK?$CK?$CK?$CK?$CK?$CK?$CK?$CK?$CK?$CK?$CK?$CK?$CK?$CK?$CK?5RB_SwapBuffers@ 0063a108     renderer:tr_backend.obj
 0003:00011148       ??_C@_0CD@OFFHEFJ@sizeof?$CI?5?$CKtr?4models?$FLtr?4numModels?$FN@ 0063a148     renderer:tr_model.obj
 0003:00011174       ??_C@_0CO@BMDPMOAM@c?3?2quake3?2luamod_src?2code?2render@ 0063a174     renderer:tr_model.obj
 0003:000111ac       ??_C@_0CE@DDDGBMHL@RE_RegisterModel?3?5couldn?8t?5load?5@ 0063a1ac     renderer:tr_model.obj
 0003:000111d8       ??_C@_0CJ@CAIMAAFD@RE_RegisterModel?3?5unknown?5fileid@ 0063a1d8     renderer:tr_model.obj
 0003:0001120c       ??_C@_07BEDDCCPM@_?$CFd?4md3?$AA@ 0063a20c     renderer:tr_model.obj
 0003:00011218       ??_C@_0DC@CLACIFFN@RE_RegisterModel?3?5R_AllocModel?$CI?$CJ@ 0063a218     renderer:tr_model.obj
 0003:00011254       ??_C@_0BO@FCMCBBHN@Model?5name?5exceeds?5MAX_QPATH?6?$AA@ 0063a254     renderer:tr_model.obj
 0003:00011278       ??_C@_0BN@KFFAINND@RE_RegisterModel?3?5NULL?5name?6?$AA@ 0063a278     renderer:tr_model.obj
 0003:0001129c       ??_C@_0DL@BKDLJMAM@R_LoadMD3?3?5?$CFs?5has?5more?5than?5?$CFi?5t@ 0063a29c     renderer:tr_model.obj
 0003:000112e4       ??_C@_0DH@KLLOOHPD@R_LoadMD3?3?5?$CFs?5has?5more?5than?5?$CFi?5v@ 0063a2e4     renderer:tr_model.obj
 0003:00011328       ??_C@_0BN@JENBICHP@R_LoadMD3?3?5?$CFs?5has?5no?5frames?6?$AA@ 0063a328     renderer:tr_model.obj
 0003:0001134c       ??_C@_0DD@KHJJKPOK@R_LoadMD3?3?5?$CFs?5has?5wrong?5version?5@ 0063a34c     renderer:tr_model.obj
 0003:0001138c       ??_C@_0BN@PNDGAECH@R_LoadMD4?3?5?$CFs?5has?5no?5frames?6?$AA@ 0063a38c     renderer:tr_model.obj
 0003:000113b0       ??_C@_0DD@KJJDGJEK@R_LoadMD4?3?5?$CFs?5has?5wrong?5version?5@ 0063a3b0     renderer:tr_model.obj
 0003:000113f0       ??_C@_0BE@IACJADAH@?$CF8i?5?3?5Total?5models?6?$AA@ 0063a3f0     renderer:tr_model.obj
 0003:00011408       ??_C@_0P@FDGJGCED@?$CF8i?5?3?5?$CI?$CFi?$CJ?5?$CFs?6?$AA@ 0063a408     renderer:tr_model.obj
 0003:0001141c       ??_C@_04BEGKODDK@dust?$AA@ 0063a41c     renderer:tr_shader.obj
 0003:00011424       ??_C@_08LLBHFIEL@nodlight?$AA@ 0063a424     renderer:tr_shader.obj
 0003:00011430       ??_C@_0L@MKEHCLJM@nolightmap?$AA@ 0063a430     renderer:tr_shader.obj
 0003:00011440       ??_C@_0L@CHECABJO@pointlight?$AA@ 0063a440     renderer:tr_shader.obj
 0003:00011450       ??_C@_06MEFHFNAK@nodraw?$AA@ 0063a450     renderer:tr_shader.obj
 0003:00011458       ??_C@_07PPLNNCCH@nosteps?$AA@ 0063a458     renderer:tr_shader.obj
 0003:00011464       ??_C@_05DLDJBIMA@flesh?$AA@ 0063a464     renderer:tr_shader.obj
 0003:0001146c       ??_C@_0L@BIBBDCEB@metalsteps?$AA@ 0063a46c     renderer:tr_shader.obj
 0003:0001147c       ??_C@_08IPOHNGKE@nodamage?$AA@ 0063a47c     renderer:tr_shader.obj
 0003:00011488       ??_C@_06GGMOHJIJ@ladder?$AA@ 0063a488     renderer:tr_shader.obj
 0003:00011490       ??_C@_07LDNMIKIJ@nomarks?$AA@ 0063a490     renderer:tr_shader.obj
 0003:0001149c       ??_C@_08FFFCKPOA@noimpact?$AA@ 0063a49c     renderer:tr_shader.obj
 0003:000114a8       ??_C@_05BFPPMEOD@slick?$AA@ 0063a4a8     renderer:tr_shader.obj
 0003:000114b0       ??_C@_04NPKLNGDP@hint?$AA@ 0063a4b0     renderer:tr_shader.obj
 0003:000114b8       ??_C@_0M@GKGEABAN@alphashadow?$AA@ 0063a4b8     renderer:tr_shader.obj
 0003:000114c8       ??_C@_0M@FCGGILAO@lightfilter?$AA@ 0063a4c8     renderer:tr_shader.obj
 0003:000114d8       ??_C@_03BNEOMJOP@sky?$AA@  0063a4d8     renderer:tr_shader.obj
 0003:000114dc       ??_C@_03KJMBPJEB@fog?$AA@  0063a4dc     renderer:tr_shader.obj
 0003:000114e0       ??_C@_0L@BIKHJKPM@donotenter?$AA@ 0063a4e0     renderer:tr_shader.obj
 0003:000114f0       ??_C@_0O@GEGDJGOB@clusterportal?$AA@ 0063a4f0     renderer:tr_shader.obj
 0003:00011500       ??_C@_0L@PPDFKPM@areaportal?$AA@ 0063a500     renderer:tr_shader.obj
 0003:00011510       ??_C@_0L@GMELLABP@structural?$AA@ 0063a510     renderer:tr_shader.obj
 0003:00011520       ??_C@_06EENFNEPD@detail?$AA@ 0063a520     renderer:tr_shader.obj
 0003:00011528       ??_C@_05JIFNPOFN@trans?$AA@ 0063a528     renderer:tr_shader.obj
 0003:00011530       ??_C@_06NHCMNMEH@origin?$AA@ 0063a530     renderer:tr_shader.obj
 0003:00011538       ??_C@_08POKGLNIM@nonsolid?$AA@ 0063a538     renderer:tr_shader.obj
 0003:00011544       ??_C@_06IBIIOGMH@nodrop?$AA@ 0063a544     renderer:tr_shader.obj
 0003:0001154c       ??_C@_0M@IHNOGBMG@monsterclip?$AA@ 0063a54c     renderer:tr_shader.obj
 0003:0001155c       ??_C@_0L@BLJOELF@playerclip?$AA@ 0063a55c     renderer:tr_shader.obj
 0003:0001156c       ??_C@_04MKBPEMMM@lava?$AA@ 0063a56c     renderer:tr_shader.obj
 0003:00011574       ??_C@_05IBOCMEGH@slime?$AA@ 0063a574     renderer:tr_shader.obj
 0003:0001157c       ??_C@_05ELAABIKM@water?$AA@ 0063a57c     renderer:tr_shader.obj
 0003:00011584       ??_C@_02LEBOADDI@dn?$AA@   0063a584     renderer:tr_shader.obj
 0003:00011588       ??_C@_02HNLLPFKA@up?$AA@   0063a588     renderer:tr_shader.obj
 0003:0001158c       ??_C@_02HLHCNIN@ft?$AA@    0063a58c     renderer:tr_shader.obj
 0003:00011590       ??_C@_02HCNENIII@lf?$AA@   0063a590     renderer:tr_shader.obj
 0003:00011594       ??_C@_02MNOEILMP@bk?$AA@   0063a594     renderer:tr_shader.obj
 0003:00011598       ??_C@_02BMJICGCB@rt?$AA@   0063a598     renderer:tr_shader.obj
 0003:0001159c       ??_C@_0DB@FEBDLGIJ@WARNING?3?5R_RemapShader?3?5new?5shad@ 0063a59c     renderer:tr_shader.obj
 0003:000115d8       ??_C@_0CN@KBGEEHMK@WARNING?3?5R_RemapShader?3?5shader?5?$CF@ 0063a5d8     renderer:tr_shader.obj
 0003:00011610       ??_C@_0L@DDGNHNOE@underwater?$AA@ 0063a610     renderer:tr_shader.obj
 0003:00011620       ??_C@_07NHJEPDMH@nearest?$AA@ 0063a620     renderer:tr_shader.obj
 0003:0001162c       ??_C@_08FEMHJDBF@additive?$AA@ 0063a62c     renderer:tr_shader.obj
 0003:00011638       ??_C@_06BDPMPKBB@banner?$AA@ 0063a638     renderer:tr_shader.obj
 0003:00011640       ??_C@_0L@FKGCKOHC@seeThrough?$AA@ 0063a640     renderer:tr_shader.obj
 0003:00011650       ??_C@_05CFEEDGHM@decal?$AA@ 0063a650     renderer:tr_shader.obj
 0003:00011658       ??_C@_06CJCOLNBB@opaque?$AA@ 0063a658     renderer:tr_shader.obj
 0003:00011660       ??_C@_06JAELEMPN@portal?$AA@ 0063a660     renderer:tr_shader.obj
 0003:00011668       ??_C@_0DA@IOEIMDIA@WARNING?3?5missing?5sort?5parameter?5@ 0063a668     renderer:tr_shader.obj
 0003:000116a4       ??_C@_0CD@LPOFEGPO@Couldn?8t?5find?5image?5for?5shader?5?$CF@ 0063a6a4     renderer:tr_shader.obj
 0003:000116d0       ??_C@_0N@CFLHIGKB@?$CKSHADER?$CK?5?$CFs?6?$AA@ 0063a6d0     renderer:tr_shader.obj
 0003:000116e0       ??_C@_0DI@PJHAFAJB@WARNING?3?5unknown?5general?5shader?5@ 0063a6e0     renderer:tr_shader.obj
 0003:00011724       ??_C@_04PIMMHFGE@sort?$AA@ 0063a724     renderer:tr_shader.obj
 0003:0001172c       ??_C@_0DA@HDFMABOL@WARNING?3?5invalid?5cull?5parm?5?8?$CFs?8?5@ 0063a72c     renderer:tr_shader.obj
 0003:00011768       ??_C@_09LHPHMEAL@backsided?$AA@ 0063a768     renderer:tr_shader.obj
 0003:00011774       ??_C@_08EHJFDP@backside?$AA@ 0063a774     renderer:tr_shader.obj
 0003:00011780       ??_C@_04JFCNHLLM@back?$AA@ 0063a780     renderer:tr_shader.obj
 0003:00011788       ??_C@_07DBNODEFN@disable?$AA@ 0063a788     renderer:tr_shader.obj
 0003:00011794       ??_C@_08INIPHAGC@twosided?$AA@ 0063a794     renderer:tr_shader.obj
 0003:000117a0       ??_C@_04CGFJFPFD@none?$AA@ 0063a7a0     renderer:tr_shader.obj
 0003:000117a8       ??_C@_0CM@CKHAANCG@WARNING?3?5missing?5cull?5parms?5in?5s@ 0063a7a8     renderer:tr_shader.obj
 0003:000117dc       ??_C@_04DDCLEDDO@cull?$AA@ 0063a7dc     renderer:tr_shader.obj
 0003:000117e4       ??_C@_05OEPGNJB@light?$AA@ 0063a7e4     renderer:tr_shader.obj
 0003:000117ec       ??_C@_08OPCHEDJ@skyparms?$AA@ 0063a7ec     renderer:tr_shader.obj
 0003:000117f8       ??_C@_0DN@BCDJHKBE@WARNING?3?5missing?5parm?5for?5?8fogPa@ 0063a7f8     renderer:tr_shader.obj
 0003:00011844       ??_C@_08FMKCJPFI@fogParms?$AA@ 0063a844     renderer:tr_shader.obj
 0003:00011850       ??_C@_0P@CACIGKMN@entityMergable?$AA@ 0063a850     renderer:tr_shader.obj
 0003:00011864       ??_C@_0O@DGEGEFGN@polygonOffset?$AA@ 0063a864     renderer:tr_shader.obj
 0003:00011874       ??_C@_08DIOICGND@nopicmip?$AA@ 0063a874     renderer:tr_shader.obj
 0003:00011880       ??_C@_09LMLIDNFN@nomipmaps?$AA@ 0063a880     renderer:tr_shader.obj
 0003:0001188c       ??_C@_0M@EHMHKHGD@surfaceParm?$AA@ 0063a88c     renderer:tr_shader.obj
 0003:0001189c       ??_C@_05MHKELFFB@q3map?$AA@ 0063a89c     renderer:tr_shader.obj
 0003:000118a4       ??_C@_09LCMIMMJI@clampTime?$AA@ 0063a8a4     renderer:tr_shader.obj
 0003:000118b0       ??_C@_08MFDEDCHM@tesssize?$AA@ 0063a8b0     renderer:tr_shader.obj
 0003:000118bc       ??_C@_0P@FJMHOEJC@deformVertexes?$AA@ 0063a8bc     renderer:tr_shader.obj
 0003:000118d0       ??_C@_09BFMCMBDI@q3map_sun?$AA@ 0063a8d0     renderer:tr_shader.obj
 0003:000118dc       ??_C@_03FOCNPFKF@qer?$AA@  0063a8dc     renderer:tr_shader.obj
 0003:000118e0       ??_C@_0CJ@CFIAOEJP@WARNING?3?5no?5concluding?5?8?$HN?8?5in?5sh@ 0063a8e0     renderer:tr_shader.obj
 0003:00011914       ??_C@_0DL@HHKDKKCO@WARNING?3?5expecting?5?8?$HL?8?0?5found?5?8?$CF@ 0063a914     renderer:tr_shader.obj
 0003:0001195c       ??_C@_0DA@MPCOKHDD@WARNING?3?5missing?5vector?5element?5@ 0063a95c     renderer:tr_shader.obj
 0003:00011998       ??_C@_0CN@BPDNDCOG@WARNING?3?5missing?5parenthesis?5in?5@ 0063a998     renderer:tr_shader.obj
 0003:000119d0       ??_C@_0DA@LHNAOODG@WARNING?3?5unknown?5parameter?5?8?$CFs?8?5@ 0063a9d0     renderer:tr_shader.obj
 0003:00011a0c       ??_C@_0L@LLDCFDJB@depthwrite?$AA@ 0063aa0c     renderer:tr_shader.obj
 0003:00011a1c       ??_C@_05CLHILOEI@tcMod?$AA@ 0063aa1c     renderer:tr_shader.obj
 0003:00011a24       ??_C@_0CN@BFINHNOM@WARNING?3?5unknown?5texgen?5parm?5in?5@ 0063aa24     renderer:tr_shader.obj
 0003:00011a5c       ??_C@_06NBFPPGEG@vector?$AA@ 0063aa5c     renderer:tr_shader.obj
 0003:00011a64       ??_C@_04BHIIPFEC@base?$AA@ 0063aa64     renderer:tr_shader.obj
 0003:00011a6c       ??_C@_07JDHEGGGP@texture?$AA@ 0063aa6c     renderer:tr_shader.obj
 0003:00011a78       ??_C@_08GFIHGMBN@lightmap?$AA@ 0063aa78     renderer:tr_shader.obj
 0003:00011a84       ??_C@_0M@PINLHHEI@environment?$AA@ 0063aa84     renderer:tr_shader.obj
 0003:00011a94       ??_C@_0CN@NPBJMNFM@WARNING?3?5missing?5texgen?5parm?5in?5@ 0063aa94     renderer:tr_shader.obj
 0003:00011acc       ??_C@_05LDLNDDHA@tcGen?$AA@ 0063aacc     renderer:tr_shader.obj
 0003:00011ad4       ??_C@_06PILMGBAG@texgen?$AA@ 0063aad4     renderer:tr_shader.obj
 0003:00011adc       ??_C@_0DJ@CNPGHDHL@WARNING?3?5unknown?5alphaGen?5parame@ 0063aadc     renderer:tr_shader.obj
 0003:00011b20       ??_C@_0FI@HDECGDLN@WARNING?3?5missing?5range?5parameter@ 0063ab20     renderer:tr_shader.obj
 0003:00011b8c       ??_C@_0BB@IPMOEOM@lightingSpecular?$AA@ 0063ab8c     renderer:tr_shader.obj
 0003:00011ba0       ??_C@_0DJ@COAGBCFB@WARNING?3?5missing?5parameters?5for?5@ 0063aba0     renderer:tr_shader.obj
 0003:00011be4       ??_C@_08MKJGOHMF@alphaGen?$AA@ 0063abe4     renderer:tr_shader.obj
 0003:00011bf0       ??_C@_0DH@IFLDHGBE@WARNING?3?5unknown?5rgbGen?5paramete@ 0063abf0     renderer:tr_shader.obj
 0003:00011c34       ??_C@_0P@GOBJMPDO@oneMinusVertex?$AA@ 0063ac34     renderer:tr_shader.obj
 0003:00011c48       ??_C@_0BA@JGIIOMOF@lightingDiffuse?$AA@ 0063ac48     renderer:tr_shader.obj
 0003:00011c5c       ??_C@_0M@NFGCOAEO@exactVertex?$AA@ 0063ac5c     renderer:tr_shader.obj
 0003:00011c6c       ??_C@_06HLKHCFCI@vertex?$AA@ 0063ac6c     renderer:tr_shader.obj
 0003:00011c74       ??_C@_0P@HLCEDLEK@oneMinusEntity?$AA@ 0063ac74     renderer:tr_shader.obj
 0003:00011c88       ??_C@_06GOJKNBFM@entity?$AA@ 0063ac88     renderer:tr_shader.obj
 0003:00011c90       ??_C@_0BB@LOAKDOL@identityLighting?$AA@ 0063ac90     renderer:tr_shader.obj
 0003:00011ca4       ??_C@_08LBJOIDDC@identity?$AA@ 0063aca4     renderer:tr_shader.obj
 0003:00011cb0       ??_C@_05BNCCCJPP@const?$AA@ 0063acb0     renderer:tr_shader.obj
 0003:00011cb8       ??_C@_04LJEDCPFL@wave?$AA@ 0063acb8     renderer:tr_shader.obj
 0003:00011cc0       ??_C@_0DH@BMDJGBJJ@WARNING?3?5missing?5parameters?5for?5@ 0063acc0     renderer:tr_shader.obj
 0003:00011d04       ??_C@_06FMMGNFCK@rgbGen?$AA@ 0063ad04     renderer:tr_shader.obj
 0003:00011d0c       ??_C@_05BIODCFPJ@blend?$AA@ 0063ad0c     renderer:tr_shader.obj
 0003:00011d14       ??_C@_06EOIELIPE@filter?$AA@ 0063ad14     renderer:tr_shader.obj
 0003:00011d1c       ??_C@_03BDGOHNNK@add?$AA@  0063ad1c     renderer:tr_shader.obj
 0003:00011d20       ??_C@_0DE@LHICOKDF@WARNING?3?5missing?5parm?5for?5blendF@ 0063ad20     renderer:tr_shader.obj
 0003:00011d60       ??_C@_09OFNNOJFC@blendfunc?$AA@ 0063ad60     renderer:tr_shader.obj
 0003:00011d6c       ??_C@_0DA@BIDNCEP@WARNING?3?5unknown?5depthfunc?5?8?$CFs?8?5@ 0063ad6c     renderer:tr_shader.obj
 0003:00011da8       ??_C@_05OAKNMNI@equal?$AA@ 0063ada8     renderer:tr_shader.obj
 0003:00011db0       ??_C@_06GOLCIEJE@lequal?$AA@ 0063adb0     renderer:tr_shader.obj
 0003:00011db8       ??_C@_0ED@GFKIPHND@WARNING?3?5missing?5parameter?5for?5?8@ 0063adb8     renderer:tr_shader.obj
 0003:00011e08       ??_C@_09MEFHBDPK@depthfunc?$AA@ 0063ae08     renderer:tr_shader.obj
 0003:00011e18       ??_C@_0ED@OOIKPLLE@WARNING?3?5missing?5parameter?5for?5?8@ 0063ae18     renderer:tr_shader.obj
 0003:00011e68       ??_C@_09MIGNOGJD@alphaFunc?$AA@ 0063ae68     renderer:tr_shader.obj
 0003:00011e78       ??_C@_0ED@JEBNHGPN@WARNING?3?5missing?5parameter?5for?5?8@ 0063ae78     renderer:tr_shader.obj
 0003:00011ec8       ??_C@_08GGBNKEBM@videoMap?$AA@ 0063aec8     renderer:tr_shader.obj
 0003:00011ed8       ??_C@_0EC@PDBNEELC@WARNING?3?5missing?5parameter?5for?5?8@ 0063aed8     renderer:tr_shader.obj
 0003:00011f28       ??_C@_07BMBIACGE@animMap?$AA@ 0063af28     renderer:tr_shader.obj
 0003:00011f38       ??_C@_0EC@FAEJMGED@WARNING?3?5missing?5parameter?5for?5?8@ 0063af38     renderer:tr_shader.obj
 0003:00011f88       ??_C@_08DEEDKPOB@clampmap?$AA@ 0063af88     renderer:tr_shader.obj
 0003:00011f94       ??_C@_0DN@EAKLECLL@WARNING?3?5R_FindImageFile?5could?5n@ 0063af94     renderer:tr_shader.obj
 0003:00011fe0       ??_C@_09CGLCLDGP@$lightmap?$AA@ 0063afe0     renderer:tr_shader.obj
 0003:00011fec       ??_C@_0M@BDLBCOHL@$whiteimage?$AA@ 0063afec     renderer:tr_shader.obj
 0003:00011ffc       ??_C@_0DN@CLBKOKJO@WARNING?3?5missing?5parameter?5for?5?8@ 0063affc     renderer:tr_shader.obj
 0003:00012048       ??_C@_0CA@OOLPPJGG@WARNING?3?5no?5matching?5?8?$HN?8?5found?6?$AA@ 0063b048     renderer:tr_shader.obj
 0003:00012070       ??_C@_0DF@FIOFMDKK@WARNING?3?5invalid?5alphaFunc?5name?5@ 0063b070     renderer:tr_shader.obj
 0003:000120b0       ??_C@_05LEJEKBHA@GE128?$AA@ 0063b0b0     renderer:tr_shader.obj
 0003:000120b8       ??_C@_05IDNDOPIB@LT128?$AA@ 0063b0b8     renderer:tr_shader.obj
 0003:000120c0       ??_C@_03GMILPAPI@GT0?$AA@  0063b0c0     renderer:tr_shader.obj
 0003:000120c8       ??_C@_0EG@NFEMCCHE@WARNING?3?5unknown?5blend?5mode?5?8?$CFs?8@ 0063b0c8     renderer:tr_shader.obj
 0003:0001211c       ??_C@_0BG@GMACLBML@GL_SRC_ALPHA_SATURATE?$AA@ 0063b11c     renderer:tr_shader.obj
 0003:00012138       ??_C@_0BH@BIGHMICL@GL_ONE_MINUS_DST_ALPHA?$AA@ 0063b138     renderer:tr_shader.obj
 0003:00012154       ??_C@_0BH@MIBHBKCA@GL_ONE_MINUS_SRC_COLOR?$AA@ 0063b154     renderer:tr_shader.obj
 0003:00012170       ??_C@_0N@ODLEFAAC@GL_SRC_COLOR?$AA@ 0063b170     renderer:tr_shader.obj
 0003:00012180       ??_C@_0CP@DKEEEEHD@WARNING?3?5missing?5waveform?5parm?5i@ 0063b180     renderer:tr_shader.obj
 0003:000121b8       ??_C@_0DD@DLNAFJMK@WARNING?3?5invalid?5genfunc?5name?5?8?$CF@ 0063b1b8     renderer:tr_shader.obj
 0003:000121f8       ??_C@_05GPLCCBII@noise?$AA@ 0063b1f8     renderer:tr_shader.obj
 0003:00012200       ??_C@_0BA@CLNFMHNL@inversesawtooth?$AA@ 0063b200     renderer:tr_shader.obj
 0003:00012214       ??_C@_08PDBODDPM@sawtooth?$AA@ 0063b214     renderer:tr_shader.obj
 0003:00012220       ??_C@_08FOPOJBJM@triangle?$AA@ 0063b220     renderer:tr_shader.obj
 0003:0001222c       ??_C@_06ICDKOIFG@square?$AA@ 0063b22c     renderer:tr_shader.obj
 0003:00012234       ??_C@_03BLEJJJBH@sin?$AA@  0063b234     renderer:tr_shader.obj
 0003:00012238       ??_C@_0CM@BIKEMJGH@WARNING?3?5unknown?5tcMod?5?8?$CFs?8?5in?5s@ 0063b238     renderer:tr_shader.obj
 0003:0001226c       ??_C@_0BA@JHGJPDGP@entityTranslate?$AA@ 0063b26c     renderer:tr_shader.obj
 0003:00012280       ??_C@_0DE@CPIKJPCO@WARNING?3?5missing?5tcMod?5rotate?5pa@ 0063b280     renderer:tr_shader.obj
 0003:000122c0       ??_C@_06CEHMNFAL@rotate?$AA@ 0063b2c0     renderer:tr_shader.obj
 0003:000122c8       ??_C@_0DB@HCGDEMJB@WARNING?3?5missing?5transform?5parms@ 0063b2c8     renderer:tr_shader.obj
 0003:00012304       ??_C@_09IFONHNKG@transform?$AA@ 0063b304     renderer:tr_shader.obj
 0003:00012310       ??_C@_0CP@GCKFKABP@WARNING?3?5missing?5stretch?5parms?5i@ 0063b310     renderer:tr_shader.obj
 0003:00012348       ??_C@_07LEPFLFDH@stretch?$AA@ 0063b348     renderer:tr_shader.obj
 0003:00012354       ??_C@_0DE@KNBGFEPJ@WARNING?3?5missing?5scale?5scroll?5pa@ 0063b354     renderer:tr_shader.obj
 0003:00012394       ??_C@_06FJKBNFNG@scroll?$AA@ 0063b394     renderer:tr_shader.obj
 0003:0001239c       ??_C@_0CN@BBMLEDFN@WARNING?3?5missing?5scale?5parms?5in?5@ 0063b39c     renderer:tr_shader.obj
 0003:000123d4       ??_C@_05MHMEBBGO@scale?$AA@ 0063b3d4     renderer:tr_shader.obj
 0003:000123dc       ??_C@_0CM@KOGGLEIE@WARNING?3?5missing?5tcMod?5turb?5in?5s@ 0063b3dc     renderer:tr_shader.obj
 0003:00012410       ??_C@_0DC@NOBDKEOI@WARNING?3?5missing?5tcMod?5turb?5parm@ 0063b410     renderer:tr_shader.obj
 0003:0001244c       ??_C@_04GJNAKLFI@turb?$AA@ 0063b44c     renderer:tr_shader.obj
 0003:00012454       ??_C@_0CN@JIBKBGGH@ERROR?3?5too?5many?5tcMod?5stages?5in?5@ 0063b454     renderer:tr_shader.obj
 0003:00012490       ??_C@_0ED@LOPFOKI@WARNING?3?5unknown?5deformVertexes?5@ 0063b490     renderer:tr_shader.obj
 0003:000124e0       ??_C@_04HDMMNHEL@move?$AA@ 0063b4e0     renderer:tr_shader.obj
 0003:000124e8       ??_C@_06IKLLLDHL@normal?$AA@ 0063b4e8     renderer:tr_shader.obj
 0003:000124f0       ??_C@_0EL@ODFGAGPK@WARNING?3?5illegal?5div?5value?5of?50?5@ 0063b4f0     renderer:tr_shader.obj
 0003:0001254c       ??_C@_0DF@DFJPIOJM@WARNING?3?5missing?5deformVertexes?5@ 0063b54c     renderer:tr_shader.obj
 0003:0001258c       ??_C@_0DL@MGCKFNID@WARNING?3?5missing?5deformVertexes?5@ 0063b58c     renderer:tr_shader.obj
 0003:000125d4       ??_C@_05BONBJFEO@bulge?$AA@ 0063b5d4     renderer:tr_shader.obj
 0003:000125dc       ??_C@_04CIMGMMMG@text?$AA@ 0063b5dc     renderer:tr_shader.obj
 0003:000125e4       ??_C@_0M@JPJOBJAO@autosprite2?$AA@ 0063b5e4     renderer:tr_shader.obj
 0003:000125f4       ??_C@_0L@OJCKPKMG@autosprite?$AA@ 0063b5f4     renderer:tr_shader.obj
 0003:00012604       ??_C@_0BB@OOOFIDJN@projectionShadow?$AA@ 0063b604     renderer:tr_shader.obj
 0003:00012618       ??_C@_0CF@BCAMFONL@WARNING?3?5MAX_SHADER_DEFORMS?5in?5?8@ 0063b618     renderer:tr_shader.obj
 0003:00012644       ??_C@_0CN@BAHOFFDJ@WARNING?3?5missing?5deform?5parm?5in?5@ 0063b644     renderer:tr_shader.obj
 0003:0001267c       ??_C@_09ELMIAJNO@?$CFs_?$CFs?4tga?$AA@ 0063b67c     renderer:tr_shader.obj
 0003:00012688       ??_C@_01JOAMLHOP@?9?$AA@   0063b688     renderer:tr_shader.obj
 0003:0001268c       ??_C@_0DG@PHBLMGGL@WARNING?3?5?8skyParms?8?5missing?5para@ 0063b68c     renderer:tr_shader.obj
 0003:000126cc       ??_C@_0DK@CGNDAAJI@WARNING?3?5shader?5?8?$CFs?8?5has?5lightma@ 0063b6cc     renderer:tr_shader.obj
 0003:00012714       ??_C@_0DC@DIFDHFIH@WARNING?3?5shader?5?8?$CFs?8?5has?5VERTEX?5@ 0063b714     renderer:tr_shader.obj
 0003:00012750       ??_C@_0CF@HBDBMHII@Shader?5?$CFs?5has?5a?5stage?5with?5no?5im@ 0063b750     renderer:tr_shader.obj
 0003:0001277c       ??_C@_0BE@KIALPNA@sizeof?$CI?5stages?$FLi?$FN?5?$CJ?$AA@ 0063b77c     renderer:tr_shader.obj
 0003:00012794       ??_C@_0BD@GAPKLDAK@sizeof?$CI?5shader_t?5?$CJ?$AA@ 0063b794     renderer:tr_shader.obj
 0003:000127ac       ??_C@_0CP@EEFAOLIB@c?3?2quake3?2luamod_src?2code?2render@ 0063b7ac     renderer:tr_shader.obj
 0003:000127e4       ??_C@_0DE@FPIJLKBK@WARNING?3?5GeneratePermanentShader@ 0063b7e4     renderer:tr_shader.obj
 0003:00012824       ??_C@_0BP@BKKCKGLL@Shader?5name?5exceeds?5MAX_QPATH?6?$AA@ 0063b824     renderer:tr_shader.obj
 0003:0001284c       ??_C@_0DA@NIHGGMJL@R_GetShaderByHandle?3?5out?5of?5rang@ 0063b84c     renderer:tr_shader.obj
 0003:00012888       ??_C@_0BC@OGEMBECL@?$CFi?5total?5shaders?6?$AA@ 0063b888     renderer:tr_shader.obj
 0003:000128a0       ??_C@_05BBKJDEBM@?3?5?$CFs?6?$AA@ 0063b8a0     renderer:tr_shader.obj
 0003:000128a8       ??_C@_0BC@HCKKJGI@?3?5?$CFs?5?$CIDEFAULTED?$CJ?6?$AA@ 0063b8a8     renderer:tr_shader.obj
 0003:000128c0       ??_C@_04PFOHOKJK@?5?5?5?5?$AA@ 0063b8c0     renderer:tr_shader.obj
 0003:000128c8       ??_C@_04PIMDLBBI@vlt?5?$AA@ 0063b8c8     renderer:tr_shader.obj
 0003:000128d0       ??_C@_04KHAPFJPB@lmmt?$AA@ 0063b8d0     renderer:tr_shader.obj
 0003:000128d8       ??_C@_04KFCMJFIC@sky?5?$AA@ 0063b8d8     renderer:tr_shader.obj
 0003:000128e0       ??_C@_04MJPKGGAG@gen?5?$AA@ 0063b8e0     renderer:tr_shader.obj
 0003:000128e8       ??_C@_02ODGLENGE@E?5?$AA@  0063b8e8     renderer:tr_shader.obj
 0003:000128ec       ??_C@_06GGLIPOFD@?5?5?5?5?5?5?$AA@ 0063b8ec     renderer:tr_shader.obj
 0003:000128f4       ??_C@_06DHLNCDIF@MT?$CId?$CJ?5?$AA@ 0063b8f4     renderer:tr_shader.obj
 0003:000128fc       ??_C@_06EKLFGMAP@MT?$CIm?$CJ?5?$AA@ 0063b8fc     renderer:tr_shader.obj
 0003:00012904       ??_C@_06GDNDLH@MT?$CIa?$CJ?5?$AA@ 0063b904     renderer:tr_shader.obj
 0003:0001290c       ??_C@_02KNHHEEKP@?5?5?$AA@ 0063b90c     renderer:tr_shader.obj
 0003:00012910       ??_C@_02OMLKHGOL@L?5?$AA@  0063b910     renderer:tr_shader.obj
 0003:00012914       ??_C@_0BG@IIJFOJD@Initializing?5Shaders?6?$AA@ 0063b914     renderer:tr_shader.obj
 0003:00012930       ??_C@_0BG@JDILPGKI@size?5?$CK?5sizeof?$CIchar?5?$CK?$CJ?$AA@ 0063b930     renderer:tr_shader.obj
 0003:0001294c       ??_C@_0BD@EBFLBDBL@sum?5?$CL?5numShaders?$CK2?$AA@ 0063b94c     renderer:tr_shader.obj
 0003:00012964       ??_C@_0BB@NGOCHMHE@?4?4?4loading?5?8?$CFs?8?6?$AA@ 0063b964     renderer:tr_shader.obj
 0003:00012978       ??_C@_0L@NIPFIBOE@scripts?1?$CFs?$AA@ 0063b978     renderer:tr_shader.obj
 0003:00012988       ??_C@_0CA@KEAFAHPN@WARNING?3?5no?5shader?5files?5found?6?$AA@ 0063b988     renderer:tr_shader.obj
 0003:000129b0       ??_C@_07OMEBBDEO@scripts?$AA@ 0063b9b0     renderer:tr_shader.obj
 0003:000129bc       ??_C@_0BB@GHMCCJHM@?$DMstencil?5shadow?$DO?$AA@ 0063b9bc     renderer:tr_shader.obj
 0003:000129d0       ??_C@_09IOAPNCJN@?$DMdefault?$DO?$AA@ 0063b9d0     renderer:tr_shader.obj
 0003:000129dc       ??_C@_03OHFMDAD@sun?$AA@   0063b9dc     renderer:tr_shader.obj
 0003:000129e0       ??_C@_0M@NEGJIMEO@flareShader?$AA@ 0063b9e0     renderer:tr_shader.obj
 0003:000129f0       ??_C@_0CO@EOJAGHCM@RE_RegisterFont?3?5FreeType?5code?5n@ 0063b9f0     renderer:tr_font.obj
 0003:00012a28       ??_C@_0BH@EJJGLAMJ@fonts?1fontImage_?$CFi?4dat?$AA@ 0063ba28     renderer:tr_font.obj
 0003:00012a44       ??_C@_0DF@KGACFLBL@RE_RegisterFont?3?5Too?5many?5fonts?5@ 0063ba44     renderer:tr_font.obj
 0003:00012a84       __real@42400000            0063ba84     renderer:tr_font.obj
 0003:00012a88       __real@42900000            0063ba88     renderer:tr_font.obj
 0003:00012a90       ??_C@_0EE@FBLEADKI@WARNING?3?5RE_AddPolyToScene?3?5r_ma@ 0063ba90     renderer:tr_scene.obj
 0003:00012ae4       ??_C@_0CO@ICFMIPOA@WARNING?3?5RE_AddPolyToScene?3?5NULL@ 0063bae4     renderer:tr_scene.obj
 0003:00012b1c       ??_C@_0CG@DEMNJENN@RE_AddRefEntityToScene?3?5bad?5reTy@ 0063bb1c     renderer:tr_scene.obj
 0003:00012b4c       ??_C@_0BP@KOPNJDAJ@R_RenderScene?3?5NULL?5worldmodel?$AA@ 0063bb4c     renderer:tr_scene.obj
 0003:00012b74       ??_C@_0BN@KPIPFFIJ@?$DN?$DN?$DN?$DN?$DN?$DN?5RE_RenderScene?5?$DN?$DN?$DN?$DN?$DN?6?$AA@ 0063bb74     renderer:tr_scene.obj
 0003:00012b98       ??_C@_0BD@LDKOPICD@glUnlockArraysEXT?6?$AA@ 0063bb98     renderer:tr_shade.obj
 0003:00012bb0       ??_C@_0BB@JIGCEAGB@glLockArraysEXT?6?$AA@ 0063bbb0     renderer:tr_shade.obj
 0003:00012bc4       ??_C@_0CH@KLPBLGIL@?9?9?9?5RB_StageIteratorGeneric?$CI?5?$CFs?5@ 0063bbc4     renderer:tr_shade.obj
 0003:00012bf4       ??_C@_0CA@IPFKNNMI@indexes?$FLi?$CL2?$FN?5?$DM?5tess?4numVertexes?$AA@ 0063bbf4     renderer:tr_shade.obj
 0003:00012c1c       ??_C@_0CO@KAAMCEBC@c?3?2quake3?2luamod_src?2code?2render@ 0063bc1c     renderer:tr_shade.obj
 0003:00012c54       ??_C@_0CL@KIMCIKPC@ERROR?3?5unknown?5texmod?5?8?$CFd?8?5in?5sh@ 0063bc54     renderer:tr_shade.obj
 0003:00012c88       ??_C@_0DJ@BJEEMKDD@?9?9?9?5RB_StageIteratorVertexLitTex@ 0063bc88     renderer:tr_shade.obj
 0003:00012ccc       ??_C@_0DH@IFGPEEH@?9?9?9?5RB_StageIteratorLightmappedM@ 0063bccc     renderer:tr_shade.obj
 0003:00012d10       ??_C@_0M@FAPJFEJO@?9?9?9?9?9?9?9?9?9?9?6?$AA@ 0063bd10     renderer:tr_shade.obj
 0003:00012d20       ??_C@_0CK@MBNGEIEM@RB_EndSurface?$CI?$CJ?5?9?5SHADER_MAX_VER@ 0063bd20     renderer:tr_shade.obj
 0003:00012d54       ??_C@_0CJ@GNPNENL@RB_EndSurface?$CI?$CJ?5?9?5SHADER_MAX_IND@ 0063bd54     renderer:tr_shade.obj
 0003:00012d88       ??_C@_0CK@JALFOIED@GLimp_EndFrame?$CI?$CJ?5?9?5SwapBuffers?$CI?$CJ@ 0063bd88     renderer:win_glimp.obj
 0003:00012dbc       ??_C@_09EPIMANLC@riva?5tnt?5?$AA@ 0063bdbc     renderer:win_glimp.obj
 0003:00012dc8       ??_C@_08PNDBLPLJ@riva?5128?$AA@ 0063bdc8     renderer:win_glimp.obj
 0003:00012dd4       ??_C@_09COBMGPLJ@permedia2?$AA@ 0063bdd4     renderer:win_glimp.obj
 0003:00012de0       ??_C@_07MDGFFNDP@ragepro?$AA@ 0063bde0     renderer:win_glimp.obj
 0003:00012dec       ??_C@_08PAOHCFPG@Rage?5Pro?$AA@ 0063bdec     renderer:win_glimp.obj
 0003:00012df8       ??_C@_08NCCEAIGL@rage?5pro?$AA@ 0063bdf8     renderer:win_glimp.obj
 0003:00012e04       ??_C@_06ONPIAGPG@glzicd?$AA@ 0063be04     renderer:win_glimp.obj
 0003:00012e0c       ??_C@_07MMKJOGPH@voodoo3?$AA@ 0063be0c     renderer:win_glimp.obj
 0003:00012e18       ??_C@_07BFKHNPB@banshee?$AA@ 0063be18     renderer:win_glimp.obj
 0003:00012e24       ??_C@_0O@NHGMKMHI@r_texturemode?$AA@ 0063be24     renderer:win_glimp.obj
 0003:00012e34       ??_C@_0L@NHHNJFPM@s3?5savage4?$AA@ 0063be34     renderer:win_glimp.obj
 0003:00012e44       ??_C@_08IANPNEIM@savage3d?$AA@ 0063be44     renderer:win_glimp.obj
 0003:00012e50       ??_C@_07GFKNCEDE@rage128?$AA@ 0063be50     renderer:win_glimp.obj
 0003:00012e5c       ??_C@_08HEOMHBGA@rage?5128?$AA@ 0063be5c     renderer:win_glimp.obj
 0003:00012e68       ??_C@_0BL@NGHEFHNP@voodoo?5graphics?11?5tmu?12?5mb?$AA@ 0063be68     renderer:win_glimp.obj
 0003:00012e88       ??_C@_0BB@OKGMNIFP@r_maskMinidriver?$AA@ 0063be88     renderer:win_glimp.obj
 0003:00012e9c       ??_C@_0BC@BNBBBHDE@r_allowSoftwareGL?$AA@ 0063be9c     renderer:win_glimp.obj
 0003:00012eb4       ??_C@_0CL@HLGCEFDK@GLimp_Init?$CI?$CJ?5?9?5incorrect?5operati@ 0063beb4     renderer:win_glimp.obj
 0003:00012ee8       ??_C@_0BP@CDHFKDJO@Initializing?5OpenGL?5subsystem?6?$AA@ 0063bee8     renderer:win_glimp.obj
 0003:00012f10       ??_C@_0BE@NPAMJJ@r_lastValidRenderer?$AA@ 0063bf10     renderer:win_glimp.obj
 0003:00012f28       ??_C@_0BA@KCKFOAHI@?$CIuninitialized?$CJ?$AA@ 0063bf28     renderer:win_glimp.obj
 0003:00012f3c       ??_C@_0CF@IOEIOODM@?4?4?4WGL_3DFX_gamma_control?5not?5fo@ 0063bf3c     renderer:win_glimp.obj
 0003:00012f68       ??_C@_0CE@PEHNJLME@?4?4?4ignoring?5WGL_3DFX_gamma_contr@ 0063bf68     renderer:win_glimp.obj
 0003:00012f94       ??_C@_0CB@NILMOBGI@?4?4?4using?5WGL_3DFX_gamma_control?6@ 0063bf94     renderer:win_glimp.obj
 0003:00012fbc       ??_C@_0BK@KFCHIHMN@wglSetDeviceGammaRamp3DFX?$AA@ 0063bfbc     renderer:win_glimp.obj
 0003:00012fdc       ??_C@_0BK@KEAJKABC@wglGetDeviceGammaRamp3DFX?$AA@ 0063bfdc     renderer:win_glimp.obj
 0003:00012ffc       ??_C@_0BH@FENLDGLL@WGL_3DFX_gamma_control?$AA@ 0063bffc     renderer:win_glimp.obj
 0003:00013018       ??_C@_0CL@NDHIPFLH@?4?4?4GL_EXT_compiled_vertex_array?5@ 0063c018     renderer:win_glimp.obj
 0003:0001304c       ??_C@_0CK@OCNDKECL@?4?4?4ignoring?5GL_EXT_compiled_vert@ 0063c04c     renderer:win_glimp.obj
 0003:00013080       ??_C@_0BD@GEBMCHJI@bad?5getprocaddress?$AA@ 0063c080     renderer:win_glimp.obj
 0003:00013098       ??_C@_0BC@CIFHOEOG@glUnlockArraysEXT?$AA@ 0063c098     renderer:win_glimp.obj
 0003:000130b0       ??_C@_0BA@FALFDEFM@glLockArraysEXT?$AA@ 0063c0b0     renderer:win_glimp.obj
 0003:000130c4       ??_C@_0CH@MAMJLLDH@?4?4?4using?5GL_EXT_compiled_vertex_@ 0063c0c4     renderer:win_glimp.obj
 0003:000130f4       ??_C@_0BN@LBNKGIPJ@GL_EXT_compiled_vertex_array?$AA@ 0063c0f4     renderer:win_glimp.obj
 0003:00013118       ??_C@_0CC@BHBHALAE@?4?4?4GL_ARB_multitexture?5not?5found@ 0063c118     renderer:win_glimp.obj
 0003:00013140       ??_C@_0CB@EPJPPON@?4?4?4ignoring?5GL_ARB_multitexture?6@ 0063c140     renderer:win_glimp.obj
 0003:00013168       ??_C@_0DF@HBIOMIEF@?4?4?4not?5using?5GL_ARB_multitexture@ 0063c168     renderer:win_glimp.obj
 0003:000131a8       ??_C@_0BO@NHKDBIBP@?4?4?4using?5GL_ARB_multitexture?6?$AA@ 0063c1a8     renderer:win_glimp.obj
 0003:000131cc       ??_C@_0BJ@PBJNGLJH@glClientActiveTextureARB?$AA@ 0063c1cc     renderer:win_glimp.obj
 0003:000131ec       ??_C@_0BD@IKCKKKNH@glActiveTextureARB?$AA@ 0063c1ec     renderer:win_glimp.obj
 0003:00013204       ??_C@_0BF@GFGCIEPA@glMultiTexCoord2fARB?$AA@ 0063c204     renderer:win_glimp.obj
 0003:00013220       ??_C@_0BE@MEMOPMEA@GL_ARB_multitexture?$AA@ 0063c220     renderer:win_glimp.obj
 0003:00013238       ??_C@_0CD@FCNOKLOJ@?4?4?4WGL_EXT_swap_control?5not?5foun@ 0063c238     renderer:win_glimp.obj
 0003:00013264       ??_C@_0BP@OPLBKLEE@?4?4?4using?5WGL_EXT_swap_control?6?$AA@ 0063c264     renderer:win_glimp.obj
 0003:0001328c       ??_C@_0BD@IINOPBDD@wglSwapIntervalEXT?$AA@ 0063c28c     renderer:win_glimp.obj
 0003:000132a4       ??_C@_0CF@GHBNFILH@?4?4?4GL_EXT_texture_env_add?5not?5fo@ 0063c2a4     renderer:win_glimp.obj
 0003:000132d0       ??_C@_0CE@CLIBMNDC@?4?4?4ignoring?5GL_EXT_texture_env_a@ 0063c2d0     renderer:win_glimp.obj
 0003:000132fc       ??_C@_0CB@HEALHJO@?4?4?4using?5GL_EXT_texture_env_add?6@ 0063c2fc     renderer:win_glimp.obj
 0003:00013324       ??_C@_0BE@BKNIHLLE@EXT_texture_env_add?$AA@ 0063c324     renderer:win_glimp.obj
 0003:0001333c       ??_C@_0BJ@PEHOEDEJ@?4?4?4GL_S3_s3tc?5not?5found?6?$AA@ 0063c33c     renderer:win_glimp.obj
 0003:0001335c       ??_C@_0BI@EOFEGDJG@?4?4?4ignoring?5GL_S3_s3tc?6?$AA@ 0063c35c     renderer:win_glimp.obj
 0003:00013378       ??_C@_0BF@DKAGBHJJ@?4?4?4using?5GL_S3_s3tc?6?$AA@ 0063c378     renderer:win_glimp.obj
 0003:00013394       ??_C@_0L@LMFIOPIG@GL_S3_s3tc?$AA@ 0063c394     renderer:win_glimp.obj
 0003:000133a4       ??_C@_0CA@PKLDCBMC@Initializing?5OpenGL?5extensions?6?$AA@ 0063c3a4     renderer:win_glimp.obj
 0003:000133cc       ??_C@_0CE@KMKFALLM@?$CK?$CK?$CK?5IGNORING?5OPENGL?5EXTENSIONS?5?$CK@ 0063c3cc     renderer:win_glimp.obj
 0003:000133f8       ??_C@_0CM@FMNDEFGP@GLW_CheckOSVersion?$CI?$CJ?5?9?5GetVersio@ 0063c3f8     renderer:win_glimp.obj
 0003:0001342c       ??_C@_0DF@FDLDJCGG@GLW_StartOpenGL?$CI?$CJ?5?9?5could?5not?5lo@ 0063c42c     renderer:win_glimp.obj
 0003:0001346c       ??_C@_0BF@HNMFJNCH@FX_GLIDE_NO_SPLASH?$DN0?$AA@ 0063c46c     renderer:win_glimp.obj
 0003:00013488       ??_C@_0CJ@LKNJIDNA@?4?4?4assuming?5?8?$CFs?8?5is?5a?5standalone@ 0063c488     renderer:win_glimp.obj
 0003:000134bc       ??_C@_0CP@LOAGJHPF@?4?4?4WARNING?3?5could?5not?5set?5the?5gi@ 0063c4bc     renderer:win_glimp.obj
 0003:000134f4       ??_C@_0DB@OOIIKJEH@?4?4?4WARNING?3?5fullscreen?5unavailab@ 0063c4f4     renderer:win_glimp.obj
 0003:00013530       ??_C@_09EAENAJAK@?5failed?0?5?$AA@ 0063c530     renderer:win_glimp.obj
 0003:0001353c       ??_C@_04CFDEAMPI@?5ok?6?$AA@ 0063c53c     renderer:win_glimp.obj
 0003:00013544       ??_C@_0CC@JHAFIJOJ@?4?4?4trying?5next?5higher?5resolution@ 0063c544     renderer:win_glimp.obj
 0003:0001356c       ??_C@_08KJDHGAC@failed?0?5?$AA@ 0063c56c     renderer:win_glimp.obj
 0003:00013578       ??_C@_0BB@LCGMGEBN@?4?4?4calling?5CDS?3?5?$AA@ 0063c578     renderer:win_glimp.obj
 0003:0001358c       ??_C@_0BP@IICPPCNA@?4?4?4restoring?5display?5settings?6?$AA@ 0063c58c     renderer:win_glimp.obj
 0003:000135b4       ??_C@_0CP@IJJINLOI@?4?4?4already?5fullscreen?0?5avoiding?5@ 0063c5b4     renderer:win_glimp.obj
 0003:000135ec       ??_C@_0CG@CGPOLEAL@?4?4?4using?5desktop?5display?5depth?5o@ 0063c5ec     renderer:win_glimp.obj
 0003:00013620       ??_C@_0EA@MNHMDDEA@WARNING?3?4?4?4changing?5depth?5not?5su@ 0063c620     renderer:win_glimp.obj
 0003:0001366c       ??_C@_0BL@OCIMBLIP@?4?4?4using?5colorsbits?5of?5?$CFd?6?$AA@ 0063c66c     renderer:win_glimp.obj
 0003:00013690       ??_C@_0BAN@LMLOHOBE@It?5is?5highly?5unlikely?5that?5a?5cor@ 0063c690     renderer:win_glimp.obj
 0003:000137d4       ??_C@_0BI@JLHDKHCN@Low?5Desktop?5Color?5Depth?$AA@ 0063c7d4     renderer:win_glimp.obj
 0003:000137f0       ??_C@_0L@LHPMKOFC@?5?$CFd?5?$CFd?5?$CFs?6?$AA@ 0063c7f0     renderer:win_glimp.obj
 0003:00013800       ??_C@_0P@CDOCDADM@?5invalid?5mode?6?$AA@ 0063c800     renderer:win_glimp.obj
 0003:00013814       ??_C@_0BE@MPKDPDGP@?4?4?4setting?5mode?5?$CFd?3?$AA@ 0063c814     renderer:win_glimp.obj
 0003:0001382c       ??_C@_02OFDPNJAI@FS?$AA@   0063c82c     renderer:win_glimp.obj
 0003:00013830       ??_C@_01ELNMCGJD@W?$AA@    0063c830     renderer:win_glimp.obj
 0003:00013834       ??_C@_0DD@ODIDMMC@?4?4?4window?5already?5present?0?5Creat@ 0063c834     renderer:win_glimp.obj
 0003:00013874       ??_C@_0CB@HNOFCKCK@?4?4?4created?5window?$EA?$CFd?0?$CFd?5?$CI?$CFdx?$CFd?$CJ?6@ 0063c874     renderer:win_glimp.obj
 0003:0001389c       ??_C@_0CM@COMDHHBB@GLW_CreateWindow?$CI?$CJ?5?9?5Couldn?8t?5cr@ 0063c89c     renderer:win_glimp.obj
 0003:000138d0       ??_C@_0BM@HPOGBHED@?4?4?4registered?5window?5class?6?$AA@ 0063c8d0     renderer:win_glimp.obj
 0003:000138f4       ??_C@_0DC@PEKLGHAL@GLW_CreateWindow?3?5could?5not?5regi@ 0063c8f4     renderer:win_glimp.obj
 0003:00013930       ??_C@_0P@CMLELHDI@Quake?53?3?5Arena?$AA@ 0063c930     renderer:win_glimp.obj
 0003:00013944       ??_C@_0CJ@LGOKIJGB@?4?4?4failed?5to?5select?5stereo?5pixel@ 0063c944     renderer:win_glimp.obj
 0003:00013978       ??_C@_0CO@OKBCOKJN@?4?4?4failed?5to?5find?5an?5appropriate@ 0063c978     renderer:win_glimp.obj
 0003:000139b0       ??_C@_0BA@DAJDIPF@?4?4?4failed?5hard?6?$AA@ 0063c9b0     renderer:win_glimp.obj
 0003:000139c4       ??_C@_0BA@NBCOEONH@?4?4?4getting?5DC?3?5?$AA@ 0063c9c4     renderer:win_glimp.obj
 0003:000139d8       ??_C@_0BM@FJOJLJJF@Initializing?5OpenGL?5driver?6?$AA@ 0063c9d8     renderer:win_glimp.obj
 0003:000139fc       ??_C@_0BN@HOGCJCBA@?4?4?4attempting?5to?5use?5stereo?6?$AA@ 0063c9fc     renderer:win_glimp.obj
 0003:00013a20       ??_C@_0BM@NECBPBKH@?4?4?4making?5context?5current?3?5?$AA@ 0063ca20     renderer:win_glimp.obj
 0003:00013a44       ??_C@_0BJ@JOAMHKMN@?4?4?4creating?5GL?5context?3?5?$AA@ 0063ca44     renderer:win_glimp.obj
 0003:00013a64       ??_C@_0BK@HLFJBFLM@?4?4?4SetPixelFormat?5failed?6?$AA@ 0063ca64     renderer:win_glimp.obj
 0003:00013a84       ??_C@_0BO@GMOIKBFJ@?4?4?4qwglSetPixelFormat?5failed?6?$AA@ 0063ca84     renderer:win_glimp.obj
 0003:00013aa8       ??_C@_0BM@PDCKOEHH@?4?4?4PIXELFORMAT?5?$CFd?5selected?6?$AA@ 0063caa8     renderer:win_glimp.obj
 0003:00013acc       ??_C@_0BJ@NAMOHALF@?4?4?4GLW_ChoosePFD?5failed?6?$AA@ 0063cacc     renderer:win_glimp.obj
 0003:00013aec       ??_C@_0CA@FJLHLOEE@?4?4?4hardware?5acceleration?5found?6?$AA@ 0063caec     renderer:win_glimp.obj
 0003:00013b14       ??_C@_0BL@GLEAHEND@?4?4?4MCD?5acceleration?5found?6?$AA@ 0063cb14     renderer:win_glimp.obj
 0003:00013b34       ??_C@_0BN@NPGHGFAF@?4?4?4using?5software?5emulation?6?$AA@ 0063cb34     renderer:win_glimp.obj
 0003:00013b58       ??_C@_0CD@MIKCGIGN@?4?4?4no?5hardware?5acceleration?5foun@ 0063cb58     renderer:win_glimp.obj
 0003:00013b84       ??_C@_0DH@LPNFLFIF@?4?4?4PFD?5?$CFd?5rejected?0?5improper?5fla@ 0063cb84     renderer:win_glimp.obj
 0003:00013bc8       ??_C@_0BO@IIFIFIHJ@?4?4?4PFD?5?$CFd?5rejected?0?5not?5RGBA?6?$AA@ 0063cbc8     renderer:win_glimp.obj
 0003:00013bec       ??_C@_0CL@NNOBGMMI@?4?4?4PFD?5?$CFd?5rejected?0?5software?5acc@ 0063cbec     renderer:win_glimp.obj
 0003:00013c20       ??_C@_0BC@PCEJAFPG@?4?4?4?$CFd?5PFDs?5found?6?$AA@ 0063cc20     renderer:win_glimp.obj
 0003:00013c38       ??_C@_0CB@BNBOIMIK@?4?4?4numPFDs?5?$DO?5MAX_PFDS?5?$CI?$CFd?5?$DO?5?$CFd?$CJ?6@ 0063cc38     renderer:win_glimp.obj
 0003:00013c60       ??_C@_0CA@MIGGKPBC@?4?4?4GLW_ChoosePFD?$CI?5?$CFd?0?5?$CFd?0?5?$CFd?5?$CJ?6?$AA@ 0063cc60     renderer:win_glimp.obj
 0003:00013c88       ??_C@_0BC@MOLHDJNJ@unknown?5error?5?$CFd?6?$AA@ 0063cc88     renderer:win_glimp.obj
 0003:00013ca0       ??_C@_0N@EAFANHAA@not?5updated?6?$AA@ 0063cca0     renderer:win_glimp.obj
 0003:00013cb0       ??_C@_09LGNMDMPD@bad?5mode?6?$AA@ 0063ccb0     renderer:win_glimp.obj
 0003:00013cbc       ??_C@_0BE@MJDAFIPL@DISP_CHANGE_FAILED?6?$AA@ 0063ccbc     renderer:win_glimp.obj
 0003:00013cd4       ??_C@_0L@GDLHKFGA@bad?5flags?6?$AA@ 0063ccd4     renderer:win_glimp.obj
 0003:00013ce4       ??_C@_0L@MPLECDLO@bad?5param?6?$AA@ 0063cce4     renderer:win_glimp.obj
 0003:00013cf4       ??_C@_0BC@OMPFMAKF@restart?5required?6?$AA@ 0063ccf4     renderer:win_glimp.obj
 0003:00013d0c       ??_C@_0BG@EPMPCICE@?4?4?4resetting?5display?6?$AA@ 0063cd0c     renderer:win_glimp.obj
 0003:00013d28       ??_C@_0BG@IPNGMJMJ@?4?4?4destroying?5window?6?$AA@ 0063cd28     renderer:win_glimp.obj
 0003:00013d44       ??_C@_0BF@HIPDEIDH@?4?4?4releasing?5DC?3?5?$CFs?6?$AA@ 0063cd44     renderer:win_glimp.obj
 0003:00013d60       ??_C@_0BM@DJONDHEF@?4?4?4deleting?5GL?5context?3?5?$CFs?6?$AA@ 0063cd60     renderer:win_glimp.obj
 0003:00013d84       ??_C@_0CF@DDBFDAN@?4?4?4wglMakeCurrent?$CI?5NULL?0?5NULL?5?$CJ?3@ 0063cd84     renderer:win_glimp.obj
 0003:00013db0       ??_C@_0CA@JNAAMPLK@Shutting?5down?5OpenGL?5subsystem?6?$AA@ 0063cdb0     renderer:win_glimp.obj
 0003:00013dd8       ??_C@_07IPNMCAN@success?$AA@ 0063cdd8     renderer:win_glimp.obj
 0003:00013de4       ??_C@_06ODACHPEO@failed?$AA@ 0063cde4     renderer:win_glimp.obj
 0003:00013dec       ??_C@_0BJ@ONIEGCNG@R_PointInLeaf?3?5bad?5model?$AA@ 0063cdec     renderer:tr_world.obj
 0003:00013e0c       ??_C@_0BF@BAHPENBA@cluster?3?$CFi?5?5area?3?$CFi?6?$AA@ 0063ce0c     renderer:tr_world.obj
 0003:00013e28       ??_C@_0BI@IDNDEPDA@stitched?5?$CFd?5LoD?5cracks?6?$AA@ 0063ce28     renderer:tr_bsp.obj
 0003:00013e44       ??_C@_0BB@MHCCJBFK@grid?9?$DOheight?5?$CK?54?$AA@ 0063ce44     renderer:tr_bsp.obj
 0003:00013e58       ??_C@_0BA@KIDIHLNB@grid?9?$DOwidth?5?$CK?54?$AA@ 0063ce58     renderer:tr_bsp.obj
 0003:00013e6c       ??_C@_0CM@LAEBBKCO@c?3?2quake3?2luamod_src?2code?2render@ 0063ce6c     renderer:tr_bsp.obj
 0003:00013ea0       ??_C@_0BO@IHAFNPEE@WARNING?3?5light?5grid?5mismatch?6?$AA@ 0063cea0     renderer:tr_bsp.obj
 0003:00013ec4       ??_C@_08OEKJENGB@?$CFf?5?$CFf?5?$CFf?$AA@ 0063cec4     renderer:tr_bsp.obj
 0003:00013ed0       ??_C@_08PLHKIFFJ@gridsize?$AA@ 0063ced0     renderer:tr_bsp.obj
 0003:00013edc       ??_C@_0CM@EJOCAFMB@WARNING?3?5no?5semi?5colon?5in?5shader@ 0063cedc     renderer:tr_bsp.obj
 0003:00013f10       ??_C@_0M@NEKNPMKB@remapshader?$AA@ 0063cf10     renderer:tr_bsp.obj
 0003:00013f20       ??_C@_0DC@JPJBKBBA@WARNING?3?5no?5semi?5colon?5in?5vertex@ 0063cf20     renderer:tr_bsp.obj
 0003:00013f5c       ??_C@_0BC@LEFDABNE@vertexremapshader?$AA@ 0063cf5c     renderer:tr_bsp.obj
 0003:00013f74       ??_C@_0P@LNOJEGLG@l?9?$DOfilelen?5?$CL?51?$AA@ 0063cf74     renderer:tr_bsp.obj
 0003:00013f88       ??_C@_0DP@JCKGEGMK@RE_LoadWorldMap?3?5?$CFs?5has?5wrong?5ve@ 0063cf88     renderer:tr_bsp.obj
 0003:00013fd4       ??_C@_0BO@FKKONKDO@RE_LoadWorldMap?3?5?$CFs?5not?5found?$AA@ 0063cfd4     renderer:tr_bsp.obj
 0003:00013ff8       ??_C@_0DA@HFMADLDH@ERROR?3?5attempted?5to?5redundantly?5@ 0063cff8     renderer:tr_bsp.obj
 0003:00014034       ??_C@_0BO@HMCELCP@Brightest?5lightmap?5value?3?5?$CFd?6?$AA@ 0063d034     renderer:tr_bsp.obj
 0003:00014058       ??_C@_0M@GGCLEKFK@?$CKlightmap?$CFd?$AA@ 0063d058     renderer:tr_bsp.obj
 0003:00014068       __real@3d810625            0063d068     renderer:tr_bsp.obj
 0003:0001406c       __real@3f2f5c29            0063d06c     renderer:tr_bsp.obj
 0003:00014070       __real@3ea8f5c3            0063d070     renderer:tr_bsp.obj
 0003:00014074       ??_C@_07EKKCDKPG@len?5?9?58?$AA@ 0063d074     renderer:tr_bsp.obj
 0003:00014080       ??_C@_0DH@BPCGGBHH@?4?4?4loaded?5?$CFd?5faces?0?5?$CFi?5meshes?0?5?$CF@ 0063d080     renderer:tr_bsp.obj
 0003:000140c4       ??_C@_0BA@PMNKLNK@Bad?5surfaceType?$AA@ 0063d0c4     renderer:tr_bsp.obj
 0003:000140d8       ??_C@_0BF@GJFINFGB@count?5?$CK?5sizeof?$CI?$CKout?$CJ?$AA@ 0063d0d8     renderer:tr_bsp.obj
 0003:000140f4       ??_C@_0BP@LNMBABNB@LoadMap?3?5funny?5lump?5size?5in?5?$CFs?$AA@ 0063d0f4     renderer:tr_bsp.obj
 0003:0001411c       ??_C@_09KICFEGHO@sfaceSize?$AA@ 0063d11c     renderer:tr_bsp.obj
 0003:00014128       ??_C@_0CH@FEFMAIEG@WARNING?3?5MAX_FACE_POINTS?5exceede@ 0063d128     renderer:tr_bsp.obj
 0003:00014158       ??_C@_0BP@JJDMICKK@ShaderForShaderNum?3?5bad?5num?5?$CFi?$AA@ 0063d158     renderer:tr_bsp.obj
 0003:00014180       ??_C@_0BO@KFEJELLI@Bad?5index?5in?5triangle?5surface?$AA@ 0063d180     renderer:tr_bsp.obj
 0003:000141a8       ??_C@_0FN@ECLPCIDE@sizeof?$CI?5?$CKtri?5?$CJ?5?$CL?5numVerts?5?$CK?5size@ 0063d1a8     renderer:tr_bsp.obj
 0003:00014218       ??_C@_0BB@GMMDMDCJ@sizeof?$CI?5?$CKflare?5?$CJ?$AA@ 0063d218     renderer:tr_bsp.obj
 0003:0001422c       ??_C@_03COCDEFBB@?$CK?$CFd?$AA@ 0063d22c     renderer:tr_bsp.obj
 0003:00014230       ??_C@_0O@LKIFLDAI@model?5?$CB?$DN?5NULL?$AA@ 0063d230     renderer:tr_bsp.obj
 0003:00014240       ??_C@_0CF@OFLKIJAN@?$CInumNodes?5?$CL?5numLeafs?$CJ?5?$CK?5sizeof?$CI?$CK@ 0063d240     renderer:tr_bsp.obj
 0003:0001426c       ??_C@_0BD@OALDNIEF@count?$CKsizeof?$CI?$CKout?$CJ?$AA@ 0063d26c     renderer:tr_bsp.obj
 0003:00014284       ??_C@_0BF@MEDHOGBO@count?$CK2?$CKsizeof?$CI?$CKout?$CJ?$AA@ 0063d284     renderer:tr_bsp.obj
 0003:000142a0       ??_C@_0CC@KODOEMIA@fog?5brush?5sideNumber?5out?5of?5rang@ 0063d2a0     renderer:tr_bsp.obj
 0003:000142c8       ??_C@_0BN@GDFIOGDD@fog?5brushNumber?5out?5of?5range?$AA@ 0063d2c8     renderer:tr_bsp.obj
 0003:000142ec       ??_C@_0CB@DHLNPGCF@s_worldData?4numfogs?$CKsizeof?$CI?$CKout?$CJ@ 0063d2ec     renderer:tr_bsp.obj
 0003:00014314       __real@43160000            0063d314     renderer:tr_light.obj
 0003:00014318       ??_C@_0BI@FOABLFDH@tr?4world?9?$DOlightGridData?$AA@ 0063d318     renderer:tr_light.obj
 0003:00014334       ??_C@_0CO@FIOMDCMH@c?3?2quake3?2luamod_src?2code?2render@ 0063d334     renderer:tr_light.obj
 0003:0001436c       ??_C@_0BA@MBJODGEL@amb?3?$CFi?5?5dir?3?$CFi?6?$AA@ 0063d36c     renderer:tr_light.obj
 0003:00014380       __real@bfe0000000000000    0063d380     renderer:tr_marks.obj
 0003:00014390       __real@bfa999999999999a    0063d390     renderer:tr_marks.obj
 0003:0001439c       __real@41a00000            0063d39c     renderer:tr_marks.obj
 0003:000143a0       __real@c1a00000            0063d3a0     renderer:tr_marks.obj
 0003:000143a4       ??_C@_0CK@PCOMEKCP@RB_CheckOverflow?3?5indices?5?$DO?5MAX?5@ 0063d3a4     renderer:tr_surface.obj
 0003:000143d8       ??_C@_0CI@FEFGMFPL@RB_CheckOverflow?3?5verts?5?$DO?5MAX?5?$CI?$CF@ 0063d3d8     renderer:tr_surface.obj
 0003:00014408       __real@404e000000000000    0063d408     renderer:tr_surface.obj
 0003:00014418       __real@3f90000000000000    0063d418     renderer:tr_surface.obj
 0003:00014424       ??_C@_0BJ@FAJDOIKM@Bad?5surface?5tesselated?4?6?$AA@ 0063d424     renderer:tr_surface.obj
 0003:00014444       ??_C@_0CJ@IAOLBLPF@WARNING?3?5shader?5?$CFs?5in?5skin?5?$CFs?5no@ 0063d444     renderer:tr_mesh.obj
 0003:00014478       ??_C@_0CO@IEHCNJOK@WARNING?3?5no?5shader?5for?5surface?5?$CF@ 0063d478     renderer:tr_mesh.obj
 0003:000144b0       ??_C@_0DD@DEGFOKKF@R_AddMD3Surfaces?3?5no?5such?5frame?5@ 0063d4b0     renderer:tr_mesh.obj
 0003:00014960       _jpeg_std_message_table    0063d960     renderer:jerror.obj
 0003:00014b9c       ??_C@_0CL@OCGBAKPF@Application?5transferred?5too?5many@ 0063db9c     renderer:jerror.obj
 0003:00014bd0       ??_C@_0CL@BAKCGOKJ@Invalid?5SOS?5parameters?5for?5seque@ 0063dbd0     renderer:jerror.obj
 0003:00014c04       ??_C@_0DI@NFMBADOH@Corrupt?5JPEG?5data?3?5found?5marker?5@ 0063dc04     renderer:jerror.obj
 0003:00014c48       ??_C@_0BL@DPFPFMLM@Premature?5end?5of?5JPEG?5file?$AA@ 0063dc48     renderer:jerror.obj
 0003:00014c68       ??_C@_0CO@ODCCEDLN@Warning?3?5unknown?5JFIF?5revision?5n@ 0063dc68     renderer:jerror.obj
 0003:00014ca0       ??_C@_0CE@PBLDOPKB@Corrupt?5JPEG?5data?3?5bad?5Huffman?5c@ 0063dca0     renderer:jerror.obj
 0003:00014ccc       ??_C@_0DB@PGMEPGHN@Corrupt?5JPEG?5data?3?5premature?5end@ 0063dccc     renderer:jerror.obj
 0003:00014d08       ??_C@_0DM@PCOGCKJB@Corrupt?5JPEG?5data?3?5?$CFu?5extraneous@ 0063dd08     renderer:jerror.obj
 0003:00014d50       ??_C@_0EC@CBCJOINE@Inconsistent?5progression?5sequenc@ 0063dd50     renderer:jerror.obj
 0003:00014da0       ??_C@_0CG@KEGHCDOM@Unknown?5Adobe?5color?5transform?5co@ 0063dda0     renderer:jerror.obj
 0003:00014dd0       ??_C@_0BH@LJLGPEFF@Obtained?5XMS?5handle?5?$CFu?$AA@ 0063ddd0     renderer:jerror.obj
 0003:00014dec       ??_C@_0BE@FOGGKKAO@Freed?5XMS?5handle?5?$CFu?$AA@ 0063ddec     renderer:jerror.obj
 0003:00014e04       ??_C@_0DE@EEJCDLOO@Unrecognized?5component?5IDs?5?$CFd?5?$CFd@ 0063de04     renderer:jerror.obj
 0003:00014e44       ??_C@_0BJ@GOCABEP@Opened?5temporary?5file?5?$CFs?$AA@ 0063de44     renderer:jerror.obj
 0003:00014e64       ??_C@_0BJ@KDCGAOJB@Closed?5temporary?5file?5?$CFs?$AA@ 0063de64     renderer:jerror.obj
 0003:00014e84       ??_C@_0BN@GAMIJLDC@?5?5Ss?$DN?$CFd?0?5Se?$DN?$CFd?0?5Ah?$DN?$CFd?0?5Al?$DN?$CFd?$AA@ 0063de84     renderer:jerror.obj
 0003:00014ea8       ??_C@_0BO@CDEKFGLC@?5?5?5?5Component?5?$CFd?3?5dc?$DN?$CFd?5ac?$DN?$CFd?$AA@ 0063dea8     renderer:jerror.obj
 0003:00014ecc       ??_C@_0BN@BLOOHNC@Start?5Of?5Scan?3?5?$CFd?5components?$AA@ 0063decc     renderer:jerror.obj
 0003:00014ef0       ??_C@_0P@JLCHJELA@Start?5of?5Image?$AA@ 0063def0     renderer:jerror.obj
 0003:00014f04       ??_C@_0BP@EDCAMHHE@?5?5?5?5Component?5?$CFd?3?5?$CFdhx?$CFdv?5q?$DN?$CFd?$AA@ 0063df04     renderer:jerror.obj
 0003:00014f2c       ??_C@_0DK@DMINKOGN@Start?5Of?5Frame?50x?$CF02x?3?5width?$DN?$CFu?0@ 0063df2c     renderer:jerror.obj
 0003:00014f74       ??_C@_0DJ@PCBCLFML@Smoothing?5not?5supported?5with?5non@ 0063df74     renderer:jerror.obj
 0003:00014fb8       ??_C@_05LLAPAOG@RST?$CFd?$AA@ 0063dfb8     renderer:jerror.obj
 0003:00014fc0       ??_C@_0CF@NIMOLBCP@At?5marker?50x?$CF02x?0?5recovery?5actio@ 0063dfc0     renderer:jerror.obj
 0003:00014fec       ??_C@_0CE@FDPBEAOO@Selected?5?$CFd?5colors?5for?5quantizat@ 0063dfec     renderer:jerror.obj
 0003:00015018       ??_C@_0BI@NEIBNACE@Quantizing?5to?5?$CFd?5colors?$AA@ 0063e018     renderer:jerror.obj
 0003:00015034       ??_C@_0CD@CNNAOOFA@Quantizing?5to?5?$CFd?5?$DN?5?$CFd?$CK?$CFd?$CK?$CFd?5colo@ 0063e034     renderer:jerror.obj
 0003:00015060       ??_C@_0CI@GHPOCOCL@?5?5?5?5?5?5?5?5?$CF4u?5?$CF4u?5?$CF4u?5?$CF4u?5?$CF4u?5?$CF4u?5@ 0063e060     renderer:jerror.obj
 0003:00015090       ??_C@_0BJ@COPODLDN@Unexpected?5marker?50x?$CF02x?$AA@ 0063e090     renderer:jerror.obj
 0003:000150b0       ??_C@_0CC@KHCAAFMC@Skipping?5marker?50x?$CF02x?0?5length?5?$CF@ 0063e0b0     renderer:jerror.obj
 0003:000150d8       ??_C@_0CB@BADBMAAB@?5?5?5?5with?5?$CFd?5x?5?$CFd?5thumbnail?5image@ 0063e0d8     renderer:jerror.obj
 0003:00015100       ??_C@_0CL@BJMGIDLN@Unknown?5JFIF?5minor?5revision?5numb@ 0063e100     renderer:jerror.obj
 0003:00015134       ??_C@_0DM@JLHNPIBE@Warning?3?5thumbnail?5image?5size?5do@ 0063e134     renderer:jerror.obj
 0003:0001517c       ??_C@_0CE@MKDBBMLI@JFIF?5APP0?5marker?0?5density?5?$CFdx?$CFd?5@ 0063e17c     renderer:jerror.obj
 0003:000151a8       ??_C@_0CI@FKGPAJC@?5?5?5?5?5?5?5?5?$CF3d?5?$CF3d?5?$CF3d?5?$CF3d?5?$CF3d?5?$CF3d?5@ 0063e1a8     renderer:jerror.obj
 0003:000151d8       ??_C@_0N@HJHFKELG@End?5Of?5Image?$AA@ 0063e1d8     renderer:jerror.obj
 0003:000151e8       ??_C@_0BH@GIPOLIGC@Obtained?5EMS?5handle?5?$CFu?$AA@ 0063e1e8     renderer:jerror.obj
 0003:00015204       ??_C@_0BE@IPCOOGDJ@Freed?5EMS?5handle?5?$CFu?$AA@ 0063e204     renderer:jerror.obj
 0003:0001521c       ??_C@_0BL@EMFIKBEK@Define?5Restart?5Interval?5?$CFu?$AA@ 0063e21c     renderer:jerror.obj
 0003:0001523c       ??_C@_0CL@KLDOJIKN@Define?5Quantization?5Table?5?$CFd?5?5pr@ 0063e23c     renderer:jerror.obj
 0003:00015270       ??_C@_0BM@MDIEILCE@Define?5Huffman?5Table?50x?$CF02x?$AA@ 0063e270     renderer:jerror.obj
 0003:00015294       ??_C@_0CH@KIJGKPAA@Define?5Arithmetic?5Table?50x?$CF02x?3?5@ 0063e294     renderer:jerror.obj
 0003:000152c4       ??_C@_0CM@CAEPHFAA@Unknown?5APP14?5marker?5?$CInot?5Adobe?$CJ@ 0063e2c4     renderer:jerror.obj
 0003:000152f8       ??_C@_0CK@HCPFFNKJ@Unknown?5APP0?5marker?5?$CInot?5JFIF?$CJ?0?5@ 0063e2f8     renderer:jerror.obj
 0003:00015330       ??_C@_0EC@EHPKAOHA@Adobe?5APP14?5marker?3?5version?5?$CFd?0?5@ 0063e330     renderer:jerror.obj
 0003:00015380       ??_C@_0DO@EGLODMBB@Caution?3?5quantization?5tables?5are@ 0063e380     renderer:jerror.obj
 0003:000153cc       ??_C@_0M@JNBJJLAI@6?5?52?9Aug?995?$AA@ 0063e3cc     renderer:jerror.obj
 0003:000153dc       ??_C@_0CD@HPLBEMMI@Copyright?5?$CIC?$CJ?51995?0?5Thomas?5G?4?5La@ 0063e3dc     renderer:jerror.obj
 0003:00015408       ??_C@_0BE@FDPDCBIN@Write?5to?5XMS?5failed?$AA@ 0063e408     renderer:jerror.obj
 0003:00015420       ??_C@_0BF@EKLGFGNM@Read?5from?5XMS?5failed?$AA@ 0063e420     renderer:jerror.obj
 0003:0001543c       ??_C@_0CH@LJLHCCHC@Image?5too?5wide?5for?5this?5implemen@ 0063e43c     renderer:jerror.obj
 0003:0001546c       ??_C@_0CD@GCLFJCHC@Virtual?5array?5controller?5messed?5@ 0063e46c     renderer:jerror.obj
 0003:00015498       ??_C@_0BP@BPKOBOIP@Unsupported?5marker?5type?50x?$CF02x?$AA@ 0063e498     renderer:jerror.obj
 0003:000154c0       ??_C@_0CK@EPADOAKC@Application?5transferred?5too?5few?5@ 0063e4c0     renderer:jerror.obj
 0003:000154f4       ??_C@_0DG@KALDLIJB@Write?5failed?5on?5temporary?5file?5?9@ 0063e4f4     renderer:jerror.obj
 0003:00015534       ??_C@_0BO@GOBJOAAI@Seek?5failed?5on?5temporary?5file?$AA@ 0063e534     renderer:jerror.obj
 0003:00015558       ??_C@_0BO@EEPJGHHI@Read?5failed?5on?5temporary?5file?$AA@ 0063e558     renderer:jerror.obj
 0003:0001557c       ??_C@_0CD@POKNOPOF@Failed?5to?5create?5temporary?5file?5@ 0063e57c     renderer:jerror.obj
 0003:000155a8       ??_C@_0CM@HONLBDPH@Invalid?5JPEG?5file?5structure?3?5SOS@ 0063e5a8     renderer:jerror.obj
 0003:000155dc       ??_C@_0CN@HGJCMLNE@Invalid?5JPEG?5file?5structure?3?5two@ 0063e5dc     renderer:jerror.obj
 0003:00015614       ??_C@_0CK@HMKECJK@Unsupported?5JPEG?5process?3?5SOF?5ty@ 0063e614     renderer:jerror.obj
 0003:00015648       ??_C@_0DA@GJIJGINK@Invalid?5JPEG?5file?5structure?3?5mis@ 0063e648     renderer:jerror.obj
 0003:00015684       ??_C@_0CN@IHJJJAFJ@Invalid?5JPEG?5file?5structure?3?5two@ 0063e684     renderer:jerror.obj
 0003:000156bc       ??_C@_0CH@NHMNHHIB@Cannot?5quantize?5to?5more?5than?5?$CFd?5@ 0063e6bc     renderer:jerror.obj
 0003:000156ec       ??_C@_0CI@PLMPLCNO@Cannot?5quantize?5to?5fewer?5than?5?$CFd@ 0063e6ec     renderer:jerror.obj
 0003:0001571c       ??_C@_0CO@HPDBAEEA@Cannot?5quantize?5more?5than?5?$CFd?5col@ 0063e71c     renderer:jerror.obj
 0003:00015754       ??_C@_0BO@DJPLELIB@Insufficient?5memory?5?$CIcase?5?$CFd?$CJ?$AA@ 0063e754     renderer:jerror.obj
 0003:00015778       ??_C@_0CL@GNLFDFCL@Not?5a?5JPEG?5file?3?5starts?5with?50x?$CF@ 0063e778     renderer:jerror.obj
 0003:000157ac       ??_C@_0CK@CCHKIENB@Quantization?5table?50x?$CF02x?5was?5no@ 0063e7ac     renderer:jerror.obj
 0003:000157e0       ??_C@_0CC@BKPLBDLJ@JPEG?5datastream?5contains?5no?5imag@ 0063e7e0     renderer:jerror.obj
 0003:00015808       ??_C@_0CF@BKANFCCL@Huffman?5table?50x?$CF02x?5was?5not?5def@ 0063e808     renderer:jerror.obj
 0003:00015834       ??_C@_0BM@HJHFKLAF@Backing?5store?5not?5supported?$AA@ 0063e834     renderer:jerror.obj
 0003:00015858       ??_C@_0CO@BEHINNOI@Requested?5feature?5was?5omitted?5at@ 0063e858     renderer:jerror.obj
 0003:00015890       ??_C@_0BE@EOAAHHJ@Not?5implemented?5yet?$AA@ 0063e890     renderer:jerror.obj
 0003:000158a8       ??_C@_0CH@EFBBPPCK@Invalid?5color?5quantization?5mode?5@ 0063e8a8     renderer:jerror.obj
 0003:000158d8       ??_C@_0CH@NIBDNILP@Scan?5script?5does?5not?5transmit?5al@ 0063e8d8     renderer:jerror.obj
 0003:00015908       ??_C@_0DO@OPNPKGO@Cannot?5transcode?5due?5to?5multiple@ 0063e908     renderer:jerror.obj
 0003:00015954       ??_C@_0BM@KEKMMNGA@Premature?5end?5of?5input?5file?$AA@ 0063e954     renderer:jerror.obj
 0003:00015978       ??_C@_0BB@JJAIKFBB@Empty?5input?5file?$AA@ 0063e978     renderer:jerror.obj
 0003:0001598c       ??_C@_0CP@EKFPGPNP@Maximum?5supported?5image?5dimensio@ 0063e98c     renderer:jerror.obj
 0003:000159c4       ??_C@_0CB@LFBMFPHI@Missing?5Huffman?5code?5table?5entry@ 0063e9c4     renderer:jerror.obj
 0003:000159ec       ??_C@_0CB@LLDOGNPJ@Huffman?5code?5size?5table?5overflow@ 0063e9ec     renderer:jerror.obj
 0003:00015a14       ??_C@_0CI@EKDDDHFF@Fractional?5sampling?5not?5implemen@ 0063ea14     renderer:jerror.obj
 0003:00015a44       ??_C@_0CP@IDOBLGGD@Output?5file?5write?5error?5?9?9?9?5out?5@ 0063ea44     renderer:jerror.obj
 0003:00015a7c       ??_C@_0BG@BALCKDNL@Input?5file?5read?5error?$AA@ 0063ea7c     renderer:jerror.obj
 0003:00015a98       ??_C@_0CB@DMGINPNE@Didn?8t?5expect?5more?5than?5one?5scan@ 0063ea98     renderer:jerror.obj
 0003:00015ac0       ??_C@_0BE@DGJBKIEB@Write?5to?5EMS?5failed?$AA@ 0063eac0     renderer:jerror.obj
 0003:00015ad8       ??_C@_0BF@CPNENPBA@Read?5from?5EMS?5failed?$AA@ 0063ead8     renderer:jerror.obj
 0003:00015af4       ??_C@_0CF@DAGGEAPM@Empty?5JPEG?5image?5?$CIDNL?5not?5suppor@ 0063eaf4     renderer:jerror.obj
 0003:00015b20       ??_C@_0BD@DIMECAOP@Bogus?5DQT?5index?5?$CFd?$AA@ 0063eb20     renderer:jerror.obj
 0003:00015b38       ??_C@_0BD@KJHFPHIC@Bogus?5DHT?5index?5?$CFd?$AA@ 0063eb38     renderer:jerror.obj
 0003:00015b50       ??_C@_0BB@GDNEPMHL@Bogus?5DHT?5counts?$AA@ 0063eb50     renderer:jerror.obj
 0003:00015b64       ??_C@_0BF@CLIOOJFM@Bogus?5DAC?5value?50x?$CFx?$AA@ 0063eb64     renderer:jerror.obj
 0003:00015b80       ??_C@_0BD@LDBBBMFL@Bogus?5DAC?5index?5?$CFd?$AA@ 0063eb80     renderer:jerror.obj
 0003:00015b98       ??_C@_0CF@JDLOPNGO@Unsupported?5color?5conversion?5req@ 0063eb98     renderer:jerror.obj
 0003:00015bc4       ??_C@_0CG@BEBDNOCG@Too?5many?5color?5components?3?5?$CFd?0?5m@ 0063ebc4     renderer:jerror.obj
 0003:00015bf4       ??_C@_0CF@LAEFHNAH@CCIR601?5sampling?5not?5implemented@ 0063ebf4     renderer:jerror.obj
 0003:00015c20       ??_C@_0BM@PKHCPJDH@Suspension?5not?5allowed?5here?$AA@ 0063ec20     renderer:jerror.obj
 0003:00015c44       ??_C@_0CL@JKHIPJLJ@Buffer?5passed?5to?5JPEG?5library?5is@ 0063ec44     renderer:jerror.obj
 0003:00015c78       ??_C@_0BL@CBOEEPLK@Bogus?5virtual?5array?5access?$AA@ 0063ec78     renderer:jerror.obj
 0003:00015c98       ??_C@_0CK@BAMFIBMM@Improper?5call?5to?5JPEG?5library?5in@ 0063ec98     renderer:jerror.obj
 0003:00015ccc       ??_C@_0CA@MJDDICLK@Invalid?5scan?5script?5at?5entry?5?$CFd?$AA@ 0063eccc     renderer:jerror.obj
 0003:00015cf4       ??_C@_0BH@HMMHPOPE@Bogus?5sampling?5factors?$AA@ 0063ecf4     renderer:jerror.obj
 0003:00015d10       ??_C@_0DH@HIKEGPKP@Invalid?5progressive?5parameters?5a@ 0063ed10     renderer:jerror.obj
 0003:00015d54       ??_C@_0DH@LNGGEGOL@Invalid?5progressive?5parameters?5S@ 0063ed54     renderer:jerror.obj
 0003:00015d98       ??_C@_0CD@LDBDNLHK@Unsupported?5JPEG?5data?5precision?5@ 0063ed98     renderer:jerror.obj
 0003:00015dc4       ??_C@_0BM@OEMICEFD@Invalid?5memory?5pool?5code?5?$CFd?$AA@ 0063edc4     renderer:jerror.obj
 0003:00015de8       ??_C@_0DA@HLEOHNPA@Sampling?5factors?5too?5large?5for?5i@ 0063ede8     renderer:jerror.obj
 0003:00015e24       ??_C@_0BE@OGLAEMOG@Bogus?5marker?5length?$AA@ 0063ee24     renderer:jerror.obj
 0003:00015e3c       ??_C@_0BG@NEGIHEMC@Bogus?5JPEG?5colorspace?$AA@ 0063ee3c     renderer:jerror.obj
 0003:00015e58       ??_C@_0BH@BGDIGLHC@Bogus?5input?5colorspace?$AA@ 0063ee58     renderer:jerror.obj
 0003:00015e74       ??_C@_0CI@MBJANLAP@IDCT?5output?5block?5size?5?$CFd?5not?5su@ 0063ee74     renderer:jerror.obj
 0003:00015ea4       ??_C@_0BP@ONFLCDHG@Invalid?5component?5ID?5?$CFd?5in?5SOS?$AA@ 0063eea4     renderer:jerror.obj
 0003:00015ecc       ??_C@_0BK@DKALDNKG@Bogus?5buffer?5control?5mode?$AA@ 0063eecc     renderer:jerror.obj
 0003:00015eec       ??_C@_0CF@DENLILGA@MAX_ALLOC_CHUNK?5is?5wrong?0?5please@ 0063eeec     renderer:jerror.obj
 0003:00015f18       ??_C@_0CA@FDMPGPNI@ALIGN_TYPE?5is?5wrong?0?5please?5fix?$AA@ 0063ef18     renderer:jerror.obj
 0003:00015f40       ??_C@_0DJ@KONAFFHE@Sorry?0?5there?5are?5legal?5restricti@ 0063ef40     renderer:jerror.obj
 0003:00015f84       ??_C@_0BG@MIBALFBH@Bogus?5message?5code?5?$CFd?$AA@ 0063ef84     renderer:jerror.obj
 0003:00015fa0       ??_C@_0EF@OOLKDLBP@WARNING?3?5suspicious?5gamma?5tables@ 0063efa0     renderer:win_gamma.obj
 0003:00015ff4       ??_C@_0DP@KHIKMCPB@WARNING?3?5device?5has?5broken?5gamma@ 0063eff4     renderer:win_gamma.obj
 0003:00016040       ??_C@_0BM@HCCAHBCJ@SetDeviceGammaRamp?5failed?4?6?$AA@ 0063f040     renderer:win_gamma.obj
 0003:00016064       ??_C@_0BL@LBLAAGEL@skipping?5W2K?5gamma?5clamp?4?6?$AA@ 0063f064     renderer:win_gamma.obj
 0003:00016084       ??_C@_0BN@EINPLPO@performing?5W2K?5gamma?5clamp?4?6?$AA@ 0063f084     renderer:win_gamma.obj
 0003:000160a8       __real@41c00000            0063f0a8     renderer:tr_flares.obj
 0003:000160ac       __real@44200000            0063f0ac     renderer:tr_flares.obj
 0003:000160b0       __real@c0f869f000000000    0063f0b0     renderer:tr_flares.obj
 0003:000160c0       __real@40f869f000000000    0063f0c0     renderer:tr_flares.obj
 0003:000160cc       __real@c4000000            0063f0cc     renderer:tr_shadows.obj
 0003:000160d0       ??_C@_0BP@OIODLEAK@ClipSkyPolygon?3?5MAX_CLIP_VERTS?$AA@ 0063f0d0     renderer:tr_sky.obj
 0003:000160f8       ??_C@_0O@DOLKNDBI@shader?9?$DOisSky?$AA@ 0063f0f8     renderer:tr_sky.obj
 0003:00016108       ??_C@_0CM@FFFDFINJ@c?3?2quake3?2luamod_src?2code?2render@ 0063f108     renderer:tr_sky.obj
 0003:00016140       __real@4010000000000000    0063f140     renderer:tr_sky.obj
 0003:00016150       __real@3ffc000000000000    0063f150     renderer:tr_sky.obj
 0003:0001615c       ??_C@_0DA@DJLPNMLL@SHADER_MAX_VERTEXES?5hit?5in?5FillC@ 0063f15c     renderer:tr_sky.obj
 0003:00016198       __real@3fd999999999999a    0063f198     renderer:tr_sky.obj
 0003:000161a4       ??_C@_0DP@KCJNMMFJ@TableForFunc?5called?5with?5invalid@ 0063f1a4     renderer:tr_shade_calc.obj
 0003:000161f0       __real@43480000            0063f1f0     renderer:tr_shade_calc.obj
 0003:000161f4       __real@4322f983            0063f1f4     renderer:tr_shade_calc.obj
 0003:000161f8       __real@3d800000            0063f1f8     renderer:tr_shade_calc.obj
 0003:000161fc       __real@bf400000            0063f1fc     renderer:tr_shade_calc.obj
 0003:00016200       __real@3e800000            0063f200     renderer:tr_shade_calc.obj
 0003:00016204       __real@3f34fdf4            0063f204     renderer:tr_shade_calc.obj
 0003:00016208       ??_C@_0CJ@LIFBHBKN@Autosprite?5shader?5?$CFs?5had?5odd?5ind@ 0063f208     renderer:tr_shade_calc.obj
 0003:0001623c       ??_C@_0CK@OKNCJKLI@Autosprite?5shader?5?$CFs?5had?5odd?5ver@ 0063f23c     renderer:tr_shade_calc.obj
 0003:00016270       ??_C@_0CK@NPHOOAGM@Autosprite2?5shader?5?$CFs?5had?5odd?5in@ 0063f270     renderer:tr_shade_calc.obj
 0003:000162a4       ??_C@_0CL@GNGEHAP@Autosprite2?5shader?5?$CFs?5had?5odd?5ve@ 0063f2a4     renderer:tr_shade_calc.obj
 0003:000162d8       __real@3fee000000000000    0063f2d8     renderer:tr_shade_calc.obj
 0003:000162e8       __real@4090000000000000    0063f2e8     renderer:tr_shade_calc.obj
 0003:000162f8       __real@4060000000000000    0063f2f8     renderer:tr_shade_calc.obj
 0003:00016304       __real@40360b61            0063f304     renderer:tr_shade_calc.obj
 0003:00016308       __real@4479c000            0063f308     renderer:tr_curve.obj
 0003:00016360       __real@4020000000000000    0063f360     renderer:jcdctmgr.obj
 0003:0001636c       __real@46800100            0063f36c     renderer:jcdctmgr.obj
 0003:00016384       ??_C@_05IBIMIMKO@?$CFld?$CFc?$AA@ 0063f384     renderer:jmemmgr.obj
 0003:0001638c       ??_C@_07OOOLPGAB@JPEGMEM?$AA@ 0063f38c     renderer:jmemmgr.obj
 0003:00016398       _jpeg_zigzag_order         0063f398     renderer:jutils.obj
 0003:00016498       _jpeg_natural_order        0063f498     renderer:jutils.obj
 0003:0001664c       __real@3fa73d75            0063f64c     renderer:jfdctflt.obj
 0003:00016650       __real@3f0a8bd4            0063f650     renderer:jfdctflt.obj
 0003:00016654       __real@3ec3ef15            0063f654     renderer:jfdctflt.obj
 0003:00016658       __real@3f3504f3            0063f658     renderer:jfdctflt.obj
 0003:0001674c       __real@c0273d75            0063f74c     renderer:jidctflt.obj
 0003:00016750       __real@3f8a8bd4            0063f750     renderer:jidctflt.obj
 0003:00016754       __real@3fec835e            0063f754     renderer:jidctflt.obj
 0003:00016758       __real@3fb504f3            0063f758     renderer:jidctflt.obj
 0003:0001675c       ??_C@_0CH@HHAFFDBM@?$CFs?3?5invalid?5client?5number?5?$CFd?0?5?$FL0@ 0063f75c     botlib:be_interface.obj
 0003:0001678c       ??_C@_0CH@FBKAEODK@?$CFs?3?5invalid?5entity?5number?5?$CFd?0?5?$FL0@ 0063f78c     botlib:be_interface.obj
 0003:000167bc       ??_C@_0CJ@LEPGCBMF@?$CFs?3?5bot?5library?5used?5before?5bein@ 0063f7bc     botlib:be_interface.obj
 0003:000167f0       ??_C@_0M@KCCINJFC@maxentities?$AA@ 0063f7f0     botlib:be_interface.obj
 0003:00016800       ??_C@_0L@JKCONGEA@maxclients?$AA@ 0063f800     botlib:be_interface.obj
 0003:00016810       ??_C@_03KGFMDCCC@128?$AA@  0063f810     botlib:be_interface.obj
 0003:00016814       ??_C@_0CH@HACDNLAK@?9?9?9?9?9?9?9?5BotLib?5Initialization?5?9?9@ 0063f814     botlib:be_interface.obj
 0003:00016844       ??_C@_0L@KLADBGPO@botlib?4log?$AA@ 0063f844     botlib:be_interface.obj
 0003:00016854       ??_C@_0P@OCLCOFHK@BotLibShutdown?$AA@ 0063f854     botlib:be_interface.obj
 0003:00016868       ??_C@_0O@KCOEGEFI@BotStartFrame?$AA@ 0063f868     botlib:be_interface.obj
 0003:00016878       ??_C@_0BH@LPLKJGOG@map?5loaded?5in?5?$CFd?5msec?6?$AA@ 0063f878     botlib:be_interface.obj
 0003:00016894       ??_C@_0CH@GPCMCKNF@?9?9?9?9?9?9?9?9?9?9?9?9?9?9?9?9?9?9?9?9?9?9?9?9?9?9?9?9?9?9?9?9@ 0063f894     botlib:be_interface.obj
 0003:000168c4       ??_C@_0CH@NEJLIBNP@?9?9?9?9?9?9?9?9?9?9?9?9?5Map?5Loading?5?9?9?9?9?9?9?9@ 0063f8c4     botlib:be_interface.obj
 0003:000168f4       ??_C@_0L@DEHNJNME@BotLoadMap?$AA@ 0063f8f4     botlib:be_interface.obj
 0003:00016904       ??_C@_0BA@EHNIKGDG@BotUpdateEntity?$AA@ 0063f904     botlib:be_interface.obj
 0003:00016918       __real@44480000            0063f918     botlib:be_interface.obj
 0003:0001691c       ??_C@_0CE@BCILCPMC@new?5goal?5?$CF2?41f?5?$CF2?41f?5?$CF2?41f?5area?5@ 0063f91c     botlib:be_interface.obj
 0003:00016948       ??_C@_09BEAKLIGF@bot_flood?$AA@ 0063f948     botlib:be_interface.obj
 0003:00016954       ??_C@_0BP@LIHLMKFI@travel?5time?5to?5goal?5?$CI?$CFd?$CJ?5?$DN?5?$CFd?6?$AA@ 0063f954     botlib:be_interface.obj
 0003:0001697c       ??_C@_05LBJMNBOG@empty?$AA@ 0063f97c     botlib:be_interface.obj
 0003:00016984       ??_C@_07BKMBBCMC@mover?5?$CG?$AA@ 0063f984     botlib:be_interface.obj
 0003:00016990       ??_C@_0P@EOADFFEF@do?5not?5enter?5?$CG?$AA@ 0063f990     botlib:be_interface.obj
 0003:000169a4       ??_C@_0O@KBCHNNFA@view?5portal?5?$CG?$AA@ 0063f9a4     botlib:be_interface.obj
 0003:000169b4       ??_C@_0BB@DEGLGHED@cluster?5portal?5?$CG?$AA@ 0063f9b4     botlib:be_interface.obj
 0003:000169c8       ??_C@_0L@BIAFPGCA@jump?5pad?5?$CG?$AA@ 0063f9c8     botlib:be_interface.obj
 0003:000169d8       ??_C@_07ENCGLPOP@slime?5?$CG?$AA@ 0063f9d8     botlib:be_interface.obj
 0003:000169e4       ??_C@_06ODLGJKCC@lava?5?$CG?$AA@ 0063f9e4     botlib:be_interface.obj
 0003:000169ec       ??_C@_07OKENOFHH@water?5?$CG?$AA@ 0063f9ec     botlib:be_interface.obj
 0003:000169f8       ??_C@_0BA@JOCMJAIP@area?5contents?3?5?$AA@ 0063f9f8     botlib:be_interface.obj
 0003:00016a0c       ??_C@_0CL@FNHGEJJB@new?5area?5?$CFd?0?5cluster?5?$CFd?0?5presenc@ 0063fa0c     botlib:be_interface.obj
 0003:00016a40       ??_C@_0BF@CNIDLCLH@origin?5?$DN?5?$CFf?0?5?$CFf?0?5?$CFf?6?$AA@ 0063fa40     botlib:be_interface.obj
 0003:00016a5c       ??_C@_0CB@CHPNHIFO@?$ANtravel?5time?5to?5goal?5?$CI?$CFd?$CJ?5?$DN?5?$CFd?5?5@ 0063fa5c     botlib:be_interface.obj
 0003:00016a84       ??_C@_0DE@FKKHEABJ@Mismatched?5BOTLIB_API_VERSION?3?5e@ 0063fa84     botlib:be_interface.obj
 0003:00016ac4       ??_C@_0BA@OAHJMB@botimport?4Print?$AA@ 0063fac4     botlib:be_interface.obj
 0003:00016ad8       ??_C@_06EOGGDCGF@import?$AA@ 0063fad8     botlib:be_interface.obj
 0003:00016ae0       ??_C@_0DA@CABGMPCA@c?3?2quake3?2luamod_src?2code?2botlib@ 0063fae0     botlib:be_interface.obj
 0003:00016b1c       ??_C@_0BH@MIGCOJAJ@invalid?5move?5state?5?$CFd?6?$AA@ 0063fb1c     botlib:be_ai_move.obj
 0003:00016b38       ??_C@_0CD@LBGJLEMH@move?5state?5handle?5?$CFd?5out?5of?5rang@ 0063fb38     botlib:be_ai_move.obj
 0003:00016b68       __real@c066800000000000    0063fb68     botlib:be_ai_move.obj
 0003:00016b74       __real@c0400000            0063fb74     botlib:be_ai_move.obj
 0003:00016b78       ??_C@_0BJ@OFCFCBJP@no?5entity?5with?5model?5?$CFd?6?$AA@ 0063fb78     botlib:be_ai_move.obj
 0003:00016b98       ??_C@_0M@OOBMECJN@func_static?$AA@ 0063fb98     botlib:be_ai_move.obj
 0003:00016ba8       ??_C@_09KJCKJKEG@func_door?$AA@ 0063fba8     botlib:be_ai_move.obj
 0003:00016bb4       ??_C@_09HCDLIOGG@func_plat?$AA@ 0063fbb4     botlib:be_ai_move.obj
 0003:00016bc0       ??_C@_0N@BAMIHEIF@func_bobbing?$AA@ 0063fbc0     botlib:be_ai_move.obj
 0003:00016bd0       ??_C@_0CF@KPCLGMGH@entity?5?$CFs?5model?5number?5out?5of?5ra@ 0063fbd0     botlib:be_ai_move.obj
 0003:00016bfc       ??_C@_09CNJINBGN@classname?$AA@ 0063fbfc     botlib:be_ai_move.obj
 0003:00016c08       ??_C@_0BK@HGAMEGCF@avoiding?5reachability?5?$CFd?6?$AA@ 0063fc08     botlib:be_ai_move.obj
 0003:00016c28       __real@42700000            0063fc28     botlib:be_ai_move.obj
 0003:00016c2c       __real@42480000            0063fc2c     botlib:be_ai_move.obj
 0003:00016c30       __real@41200000            0063fc30     botlib:be_ai_move.obj
 0003:00016c38       __real@3fe6666666666666    0063fc38     botlib:be_ai_move.obj
 0003:00016c44       __real@43c80000            0063fc44     botlib:be_ai_move.obj
 0003:00016c48       __real@40c00000            0063fc48     botlib:be_ai_move.obj
 0003:00016c4c       __real@41100000            0063fc4c     botlib:be_ai_move.obj
 0003:00016c50       __real@437a0000            0063fc50     botlib:be_ai_move.obj
 0003:00016c54       __real@42200000            0063fc54     botlib:be_ai_move.obj
 0003:00016c58       __real@402e000000000000    0063fc58     botlib:be_ai_move.obj
 0003:00016c68       __real@4044000000000000    0063fc68     botlib:be_ai_move.obj
 0003:00016c78       __real@4051800000000000    0063fc78     botlib:be_ai_move.obj
 0003:00016c88       __real@4024000000000000    0063fc88     botlib:be_ai_move.obj
 0003:00016c94       __real@41500000            0063fc94     botlib:be_ai_move.obj
 0003:00016c98       __real@bfe999999999999a    0063fc98     botlib:be_ai_move.obj
 0003:00016ca4       __real@41f00000            0063fca4     botlib:be_ai_move.obj
 0003:00016ca8       ??_C@_0CN@FCEPHGNO@BotFuncBobStartEnd?3?5no?5entity?5wi@ 0063fca8     botlib:be_ai_move.obj
 0003:00016ce0       __real@43960000            0063fce0     botlib:be_ai_move.obj
 0003:00016ce4       __real@428c0000            0063fce4     botlib:be_ai_move.obj
 0003:00016ce8       __real@4000000000000000    0063fce8     botlib:be_ai_move.obj
 0003:00016cf8       __real@4014000000000000    0063fcf8     botlib:be_ai_move.obj
 0003:00016d04       ??_C@_0CE@HLPLILDO@travel?5type?5?$CFd?5not?5implemented?5y@ 0063fd04     botlib:be_ai_move.obj
 0003:00016d30       ??_C@_0CH@HJKDBOIJ@client?5?$CFd?3?5movement?5failure?5in?5f@ 0063fd30     botlib:be_ai_move.obj
 0003:00016d60       ??_C@_0CL@OINLALFH@?$CIlast?$CJ?5travel?5type?5?$CFd?5not?5implem@ 0063fd60     botlib:be_ai_move.obj
 0003:00016d94       ??_C@_0CM@EECBHCFO@client?5?$CFd?5didn?8t?5find?5jumppad?5re@ 0063fd94     botlib:be_ai_move.obj
 0003:00016dc8       ??_C@_0CA@GMELEFIE@client?5?$CFd?3?5movement?5failure?5in?5?$AA@ 0063fdc8     botlib:be_ai_move.obj
 0003:00016df0       ??_C@_0CI@NAJHPMH@same?5goal?0?5going?5back?5to?5previou@ 0063fdf0     botlib:be_ai_move.obj
 0003:00016e20       ??_C@_0BE@CBKGOKCN@goal?5not?5reachable?6?$AA@ 0063fe20     botlib:be_ai_move.obj
 0003:00016e38       ??_C@_0BJ@LCPKJOPP@area?5?$CFd?5no?5reachability?6?$AA@ 0063fe38     botlib:be_ai_move.obj
 0003:00016e58       ??_C@_0CE@IMFDEONM@client?5?$CFd?3?5reachability?5timeout?5@ 0063fe58     botlib:be_ai_move.obj
 0003:00016e84       ??_C@_0DB@HHOLNPFB@client?5?$CFd?3?5on?5func_bobbing?5witho@ 0063fe84     botlib:be_ai_move.obj
 0003:00016ec0       ??_C@_0CO@IHIDPMNN@client?5?$CFd?3?5on?5func_plat?5without?5@ 0063fec0     botlib:be_ai_move.obj
 0003:00016ef8       ??_C@_0CC@JCOFOBAA@client?5?$CFd?3?5movetogoal?5?9?$DO?5no?5goal@ 0063fef8     botlib:be_ai_move.obj
 0003:00016f20       ??_C@_0P@HCMCPAPN@cmd_grappleoff?$AA@ 0063ff20     botlib:be_ai_move.obj
 0003:00016f34       ??_C@_0L@CGFHOHKL@grappleoff?$AA@ 0063ff34     botlib:be_ai_move.obj
 0003:00016f44       ??_C@_0O@KJJPDGKD@cmd_grappleon?$AA@ 0063ff44     botlib:be_ai_move.obj
 0003:00016f54       ??_C@_09OCNPEJFF@grappleon?$AA@ 0063ff54     botlib:be_ai_move.obj
 0003:00016f60       ??_C@_0P@DMONFFLF@offhandgrapple?$AA@ 0063ff60     botlib:be_ai_move.obj
 0003:00016f74       ??_C@_0BC@GDFOAKDA@entitytypemissile?$AA@ 0063ff74     botlib:be_ai_move.obj
 0003:00016f8c       ??_C@_0BC@JLHLAKEN@weapindex_grapple?$AA@ 0063ff8c     botlib:be_ai_move.obj
 0003:00016fa4       ??_C@_0BB@HLFMNGMC@weapindex_bfg10k?$AA@ 0063ffa4     botlib:be_ai_move.obj
 0003:00016fb8       ??_C@_01LAKCGALK@9?$AA@    0063ffb8     botlib:be_ai_move.obj
 0003:00016fbc       ??_C@_0BJ@HPPOPPGN@weapindex_rocketlauncher?$AA@ 0063ffbc     botlib:be_ai_move.obj
 0003:00016fdc       ??_C@_0L@FKMMBKBD@sv_gravity?$AA@ 0063ffdc     botlib:be_ai_move.obj
 0003:00016fec       ??_C@_0O@GNGGPGPK@sv_maxbarrier?$AA@ 0063ffec     botlib:be_ai_move.obj
 0003:00016ffc       ??_C@_07PBGODEDP@sv_step?$AA@ 0063fffc     botlib:be_ai_move.obj
 0003:00017008       ??_C@_02DCIIBFLB@18?$AA@   00640008     botlib:be_ai_move.obj
 0003:0001700c       ??_C@_0BH@BOBFFKKN@invalid?5chat?5state?5?$CFd?6?$AA@ 0064000c     botlib:be_ai_chat.obj
 0003:00017028       ??_C@_0CD@PNOBECBL@chat?5state?5handle?5?$CFd?5out?5of?5rang@ 00640028     botlib:be_ai_chat.obj
 0003:00017054       ??_C@_0N@CLOBICAF@max_messages?$AA@ 00640054     botlib:be_ai_chat.obj
 0003:00017064       ??_C@_0BM@BPJKPONG@empty?5console?5message?5heap?6?$AA@ 00640064     botlib:be_ai_chat.obj
 0003:00017088       ??_C@_02JODFHDIE@?$FN?6?$AA@ 00640088     botlib:be_ai_chat.obj
 0003:0001708c       ??_C@_02KEGNLNML@?0?5?$AA@ 0064008c     botlib:be_ai_chat.obj
 0003:00017090       ??_C@_0O@EMHOANHL@?$CI?$CC?$CFs?$CC?0?5?$CF1?42f?$CJ?$AA@ 00640090     botlib:be_ai_chat.obj
 0003:000170a0       ??_C@_07MLGNNCMH@?$CFld?5?3?5?$FL?$AA@ 006400a0     botlib:be_ai_chat.obj
 0003:000170ac       ??_C@_0L@EBHNEODC@loaded?5?$CFs?6?$AA@ 006400ac     botlib:be_ai_chat.obj
 0003:000170bc       ??_C@_09DKCHGKCM@missing?5?$HN?$AA@ 006400bc     botlib:be_ai_chat.obj
 0003:000170c8       ??_C@_0O@EIFOHJCH@unexpected?5?$CFs?$AA@ 006400c8     botlib:be_ai_chat.obj
 0003:000170d8       ??_C@_0CI@PKNFOMEN@synonym?5must?5have?5at?5least?5two?5e@ 006400d8     botlib:be_ai_chat.obj
 0003:00017108       ??_C@_01LBDDMOBJ@?$FN?$AA@ 00640108     botlib:be_ai_chat.obj
 0003:0001710c       ??_C@_01IHBHIGKO@?0?$AA@   0064010c     botlib:be_ai_chat.obj
 0003:00017110       ??_C@_0N@BBKGEIBC@empty?5string?$AA@ 00640110     botlib:be_ai_chat.obj
 0003:00017120       ??_C@_01OHGJGJJP@?$FL?$AA@ 00640120     botlib:be_ai_chat.obj
 0003:00017124       ??_C@_0L@DLODIKAH@too?5many?5?$HN?$AA@ 00640124     botlib:be_ai_chat.obj
 0003:00017134       ??_C@_01CELHOKLL@?$HN?$AA@ 00640134     botlib:be_ai_chat.obj
 0003:00017138       ??_C@_01HCONENDN@?$HL?$AA@ 00640138     botlib:be_ai_chat.obj
 0003:0001713c       ??_C@_0BM@OMAMOJNI@more?5than?532?5context?5levels?$AA@ 0064013c     botlib:be_ai_chat.obj
 0003:00017160       ??_C@_0BD@IJKNLBNC@counldn?8t?5load?5?$CFs?6?$AA@ 00640160     botlib:be_ai_chat.obj
 0003:00017178       ??_C@_08LPOJGGC@botfiles?$AA@ 00640178     botlib:be_ai_chat.obj
 0003:00017184       ??_C@_01ICJEACDI@?$DL?$AA@ 00640184     botlib:be_ai_chat.obj
 0003:00017188       ??_C@_0BO@IKGHDNCH@unknown?5message?5component?5?$CFs?6?$AA@ 00640188     botlib:be_ai_chat.obj
 0003:000171ac       ??_C@_07NHACKFHP@?$CFcr?$CFs?$CFc?$AA@ 006401ac     botlib:be_ai_chat.obj
 0003:000171b8       ??_C@_08MPPNLMAG@?$CFcv?$CFld?$CFc?$AA@ 006401b8     botlib:be_ai_chat.obj
 0003:000171c4       ??_C@_0BH@MIBABKMH@chat?5message?5too?5long?6?$AA@ 006401c4     botlib:be_ai_chat.obj
 0003:000171e0       ??_C@_02KGHIDFGE@?$HN?6?$AA@ 006401e0     botlib:be_ai_chat.obj
 0003:000171e4       ??_C@_04OEDFLLKD@?$CC?$CFs?$CC?$AA@ 006401e4     botlib:be_ai_chat.obj
 0003:000171ec       ??_C@_06EFKGKAHA@?$CFs?5?$DN?5?$HL?$AA@ 006401ec     botlib:be_ai_chat.obj
 0003:000171f4       ??_C@_0BI@MBHPLHFJ@random?5strings?5?$CFd?5msec?6?$AA@ 006401f4     botlib:be_ai_chat.obj
 0003:00017210       ??_C@_0BC@BAMLPFKF@unknown?5random?5?$CFs?$AA@ 00640210     botlib:be_ai_chat.obj
 0003:00017228       ??_C@_0P@OACPPOMP@?5?$DN?5?$CI?$CFd?0?5?$CFd?$CJ?$DL?$HN?6?$AA@ 00640228     botlib:be_ai_chat.obj
 0003:0001723c       ??_C@_01DNKMNLPK@?$HM?$AA@ 0064023c     botlib:be_ai_chat.obj
 0003:00017240       ??_C@_02MNJOIFPO@?$HL?5?$AA@ 00640240     botlib:be_ai_chat.obj
 0003:00017244       ??_C@_0BC@KAKFIJOK@invalid?5token?5?$CFs?6?$AA@ 00640244     botlib:be_ai_chat.obj
 0003:0001725c       ??_C@_0CI@ELCFAGFH@not?5allowed?5to?5have?5adjacent?5var@ 0064025c     botlib:be_ai_chat.obj
 0003:0001728c       ??_C@_0CJ@LJIMHIAM@can?8t?5have?5more?5than?5?$CFd?5match?5va@ 0064028c     botlib:be_ai_chat.obj
 0003:000172c0       ??_C@_0BM@HHFBANAI@expected?5integer?0?5found?5?$CFs?6?$AA@ 006402c0     botlib:be_ai_chat.obj
 0003:000172e4       ??_C@_0CL@EIKOPCLC@match?9?$DOvariables?$FLlastvariable?$FN?4o@ 006402e4     botlib:be_ai_chat.obj
 0003:00017318       ??_C@_0CO@KDDFFJPH@c?3?2quake3?2luamod_src?2code?2botlib@ 00640318     botlib:be_ai_chat.obj
 0003:00017350       ??_C@_0CH@NINJHINE@match?9?$DOvariables?$FLvariable?$FN?4offse@ 00640350     botlib:be_ai_chat.obj
 0003:00017380       ??_C@_0CJ@BGCLGFPJ@BotMatchVariable?3?5variable?5out?5o@ 00640380     botlib:be_ai_chat.obj
 0003:000173b8       ??_C@_0EA@MFJADLPG@BotCheckChatMessageIntegrety?3?5me@ 006403b8     botlib:be_ai_chat.obj
 0003:00017404       ??_C@_0BP@IFMKLFPG@?$CFs?5?$DN?5?$HL?$CC?$CFs?$CC?$HN?5?1?1MISSING?5RANDOM?$AN?6?$AA@ 00640404     botlib:be_ai_chat.obj
 0003:0001742c       ??_C@_07OMEJJINM@?7?$CC?$CFs?$CC?$DL?6?$AA@ 0064042c     botlib:be_ai_chat.obj
 0003:00017438       ??_C@_02KCPFEJNG@?$HL?6?$AA@ 00640438     botlib:be_ai_chat.obj
 0003:0001743c       ??_C@_0L@CEMLGMNM@?$FN?5?$DN?5?$CF1?40f?6?$AA@ 0064043c     botlib:be_ai_chat.obj
 0003:0001744c       ??_C@_02MOLGKLA@it?$AA@    0064044c     botlib:be_ai_chat.obj
 0003:00017450       ??_C@_06GJLDEJIL@female?$AA@ 00640450     botlib:be_ai_chat.obj
 0003:00017458       ??_C@_01DCLJPIOD@?$CB?$AA@ 00640458     botlib:be_ai_chat.obj
 0003:0001745c       ??_C@_01HNPIGOCE@?$CG?$AA@ 0064045c     botlib:be_ai_chat.obj
 0003:00017460       ??_C@_0BD@FIJOIEDC@BotDumpReplyChat?3?6?$AA@ 00640460     botlib:be_ai_chat.obj
 0003:00017478       ??_C@_0FP@CMPNKFLO@variables?5from?5the?5match?5templat@ 00640478     botlib:be_ai_chat.obj
 0003:000174ec       ??_C@_0BO@PNMCIEEB@all?5keys?5have?5a?5?$CG?5or?5?$CB?5prefix?$AA@ 006404ec     botlib:be_ai_chat.obj
 0003:00017510       ??_C@_0EA@FPBKDDJB@the?5key?5?$CFs?5with?5prefix?5?$CB?5is?5insi@ 00640510     botlib:be_ai_chat.obj
 0003:0001755c       ??_C@_0CO@FOMEJLFB@the?5key?5?$CFs?5with?5prefix?5?$CB?5is?5insi@ 0064055c     botlib:be_ai_chat.obj
 0003:00017598       ??_C@_0FB@GIBDPBLM@one?5of?5the?5match?5templates?5does?5@ 00640598     botlib:be_ai_chat.obj
 0003:000175fc       ??_C@_0L@GIBMDEGE@no?5rchats?6?$AA@ 006405fc     botlib:be_ai_chat.obj
 0003:0001760c       ??_C@_01PPODPGHN@?$DO?$AA@ 0064060c     botlib:be_ai_chat.obj
 0003:00017610       ??_C@_01MNNFJEPP@?$DM?$AA@ 00640610     botlib:be_ai_chat.obj
 0003:00017614       ??_C@_0BF@NHLDPIBI@expected?5?$FL?0?5found?5?$CFs?$AA@ 00640614     botlib:be_ai_chat.obj
 0003:00017630       ??_C@_02KCGCGHLG@?5?$HN?$AA@ 00640630     botlib:be_ai_chat.obj
 0003:00017634       ??_C@_06HHGKKPGK@?5?5?$CC?$CFs?$CC?$AA@ 00640634     botlib:be_ai_chat.obj
 0003:0001763c       ??_C@_0BH@BCOGOEDC@?5?5numchatmessages?5?$DN?5?$CFd?$AA@ 0064063c     botlib:be_ai_chat.obj
 0003:00017658       ??_C@_02PEDIMADA@?5?$HL?$AA@ 00640658     botlib:be_ai_chat.obj
 0003:0001765c       ??_C@_0L@BONMNFAN@?5type?5?$CC?$CFs?$CC?$AA@ 0064065c     botlib:be_ai_chat.obj
 0003:0001766c       ??_C@_0CB@BACBDKBE@initial?5chats?5loaded?5in?5?$CFd?5msec?6@ 0064066c     botlib:be_ai_chat.obj
 0003:00017694       ??_C@_0BD@KLGBKGBL@loaded?5?$CFs?5from?5?$CFs?6?$AA@ 00640694     botlib:be_ai_chat.obj
 0003:000176ac       ??_C@_0BN@OAGFKFDD@couldn?8t?5find?5chat?5?$CFs?5in?5?$CFs?6?$AA@ 006406ac     botlib:be_ai_chat.obj
 0003:000176d0       ??_C@_0BH@JEMDOFNP@unknown?5definition?5?$CFs?6?$AA@ 006406d0     botlib:be_ai_chat.obj
 0003:000176ec       ??_C@_0BI@CHLNDHKD@expected?5type?5found?5?$CFs?6?$AA@ 006406ec     botlib:be_ai_chat.obj
 0003:00017708       ??_C@_04GPMDFGEJ@type?$AA@ 00640708     botlib:be_ai_chat.obj
 0003:00017710       ??_C@_04BLJLMHHG@chat?$AA@ 00640710     botlib:be_ai_chat.obj
 0003:00017718       ??_C@_0BP@MBDJBKIB@couldn?8t?5load?5chat?5?$CFs?5from?5?$CFs?6?$AA@ 00640718     botlib:be_ai_chat.obj
 0003:00017740       ??_C@_0DF@IIKAMBDG@ichatdata?5table?5full?$DL?5couldn?8t?5l@ 00640740     botlib:be_ai_chat.obj
 0003:00017780       ??_C@_0DE@BBIMJEKM@BotConstructChat?3?5message?5?$CC?$CFs?$CC?5i@ 00640780     botlib:be_ai_chat.obj
 0003:000177c0       ??_C@_0CJ@EDLCIPGI@BotConstructChat?3?5message?5?$CC?$CFs?$CC?5t@ 006407c0     botlib:be_ai_chat.obj
 0003:000177f4       ??_C@_0CM@GBHEGLKK@BotConstructChat?3?5unknown?5random@ 006407f4     botlib:be_ai_chat.obj
 0003:00017828       ??_C@_0CH@JOHLJANI@BotConstructChat?3?5message?5?$CFs?5too@ 00640828     botlib:be_ai_chat.obj
 0003:00017858       ??_C@_0CC@EEEBMIAH@match?9?$DOvariables?$FLnum?$FN?4offset?5?$DO?$DN?5@ 00640858     botlib:be_ai_chat.obj
 0003:00017880       ??_C@_0DH@JNLFODLL@BotConstructChat?3?5message?5?$CFs?5var@ 00640880     botlib:be_ai_chat.obj
 0003:000178c4       ??_C@_0CF@FFFEONNP@too?5many?5expansions?5in?5chat?5mess@ 006408c4     botlib:be_ai_chat.obj
 0003:000178f0       ??_C@_0BF@JOLBPMPB@?9?9?9?9?9?9?9?9?9?9?9?9?9?9?9?9?9?9?9?6?$AA@ 006408f0     botlib:be_ai_chat.obj
 0003:0001790c       ??_C@_0BG@DAIPIBLI@?$CFs?5has?5?$CFd?5chat?5lines?6?$AA@ 0064090c     botlib:be_ai_chat.obj
 0003:00017928       ??_C@_0BN@GCJFMKKD@no?5chat?5messages?5of?5type?5?$CFs?6?$AA@ 00640928     botlib:be_ai_chat.obj
 0003:0001794c       ??_C@_06BCNPLFHG@say?5?$CFs?$AA@ 0064094c     botlib:be_ai_chat.obj
 0003:00017954       ??_C@_0L@LOJGBKIG@tell?5?$CFd?5?$CFs?$AA@ 00640954     botlib:be_ai_chat.obj
 0003:00017964       ??_C@_0M@CICLJBLC@say_team?5?$CFs?$AA@ 00640964     botlib:be_ai_chat.obj
 0003:00017974       ??_C@_0BH@HCGELPFG@setup?5chat?5AI?5?$CFd?5msec?6?$AA@ 00640974     botlib:be_ai_chat.obj
 0003:00017990       ??_C@_09DMEAFLAH@rchatfile?$AA@ 00640990     botlib:be_ai_chat.obj
 0003:0001799c       ??_C@_07BGFNFHIM@rchat?4c?$AA@ 0064099c     botlib:be_ai_chat.obj
 0003:000179a8       ??_C@_06GCPOGFCC@nochat?$AA@ 006409a8     botlib:be_ai_chat.obj
 0003:000179b0       ??_C@_09MIMFOEJ@matchfile?$AA@ 006409b0     botlib:be_ai_chat.obj
 0003:000179bc       ??_C@_07DAECBMIF@match?4c?$AA@ 006409bc     botlib:be_ai_chat.obj
 0003:000179c8       ??_C@_07DFFPFLEN@rndfile?$AA@ 006409c8     botlib:be_ai_chat.obj
 0003:000179d4       ??_C@_05OGJCAIGA@rnd?4c?$AA@ 006409d4     botlib:be_ai_chat.obj
 0003:000179dc       ??_C@_07PKBHNKPF@synfile?$AA@ 006409dc     botlib:be_ai_chat.obj
 0003:000179e8       ??_C@_05JALDHADD@syn?4c?$AA@ 006409e8     botlib:be_ai_chat.obj
 0003:000179f0       ??_C@_04IFBFDIKF@maxs?$AA@ 006409f0     botlib:be_ai_goal.obj
 0003:000179f8       ??_C@_04FIAKMPII@mins?$AA@ 006409f8     botlib:be_ai_goal.obj
 0003:00017a00       ??_C@_0M@JFIMPIHC@respawntime?$AA@ 00640a00     botlib:be_ai_goal.obj
 0003:00017a10       ??_C@_05FKHKFDID@index?$AA@ 00640a10     botlib:be_ai_goal.obj
 0003:00017a18       ??_C@_0BH@PLLAAOAM@invalid?5goal?5state?5?$CFd?6?$AA@ 00640a18     botlib:be_ai_goal.obj
 0003:00017a34       ??_C@_0CD@HELJPMIG@goal?5state?5handle?5?$CFd?5out?5of?5rang@ 00640a34     botlib:be_ai_goal.obj
 0003:00017a60       ??_C@_0BF@PNCKGICK@no?5item?5info?5loaded?6?$AA@ 00640a60     botlib:be_ai_goal.obj
 0003:00017a7c       ??_C@_0CA@FLCFPAIO@more?5than?5?$CFd?5item?5info?5defined?6?$AA@ 00640a7c     botlib:be_ai_goal.obj
 0003:00017aa4       ??_C@_08ENCMGJPE@iteminfo?$AA@ 00640aa4     botlib:be_ai_goal.obj
 0003:00017ab0       ??_C@_0BD@IBDAAGDO@max_iteminfo?5?$DN?5?$CFd?6?$AA@ 00640ab0     botlib:be_ai_goal.obj
 0003:00017ac8       ??_C@_0N@FCIHMPOM@max_iteminfo?$AA@ 00640ac8     botlib:be_ai_goal.obj
 0003:00017ad8       ??_C@_03CPCFKGMH@256?$AA@  00640ad8     botlib:be_ai_goal.obj
 0003:00017adc       ??_C@_0CI@LHHPPLNO@item?5info?5?$CFd?5?$CC?$CFs?$CC?5has?5no?5fuzzy?5w@ 00640adc     botlib:be_ai_goal.obj
 0003:00017b0c       ??_C@_0P@HIDOFLAM@max_levelitems?$AA@ 00640b0c     botlib:be_ai_goal.obj
 0003:00017b20       ??_C@_0BE@OPAGCKFM@out?5of?5level?5items?6?$AA@ 00640b20     botlib:be_ai_goal.obj
 0003:00017b38       ??_C@_0P@NDPOMACK@?$CFd?5camp?5spots?6?$AA@ 00640b38     botlib:be_ai_goal.obj
 0003:00017b4c       ??_C@_0BC@GDDPKONG@?$CFd?5map?5locations?6?$AA@ 00640b4c     botlib:be_ai_goal.obj
 0003:00017b64       ??_C@_0CJ@BCICAJAI@camp?5spot?5at?5?$CF1?41f?5?$CF1?41f?5?$CF1?41f?5i@ 00640b64     botlib:be_ai_goal.obj
 0003:00017b98       ??_C@_06NLFCANPD@random?$AA@ 00640b98     botlib:be_ai_goal.obj
 0003:00017ba0       ??_C@_06CMCBKMCB@weight?$AA@ 00640ba0     botlib:be_ai_goal.obj
 0003:00017ba8       ??_C@_05CCGOGOBM@range?$AA@ 00640ba8     botlib:be_ai_goal.obj
 0003:00017bb0       ??_C@_09BLMHBGJ@info_camp?$AA@ 00640bb0     botlib:be_ai_goal.obj
 0003:00017bbc       ??_C@_07ONPBMBOP@message?$AA@ 00640bbc     botlib:be_ai_goal.obj
 0003:00017bc8       ??_C@_0BA@BFKBOHOP@target_location?$AA@ 00640bc8     botlib:be_ai_goal.obj
 0003:00017bdc       ??_C@_0BG@FGIAGNA@found?5?$CFd?5level?5items?6?$AA@ 00640bdc     botlib:be_ai_goal.obj
 0003:00017bf8       ??_C@_0DC@LLNGFMLL@?$CFs?5not?5reachable?5for?5bots?5at?5?$CI?$CF1@ 00640bf8     botlib:be_ai_goal.obj
 0003:00017c34       ??_C@_0CE@GABHNCEE@?$CFs?5in?5solid?5at?5?$CI?$CF1?41f?5?$CF1?41f?5?$CF1?41@ 00640c34     botlib:be_ai_goal.obj
 0003:00017c60       ??_C@_0N@PAECNMEH@item_botroam?$AA@ 00640c60     botlib:be_ai_goal.obj
 0003:00017c70       ??_C@_06NFBNODNO@notbot?$AA@ 00640c70     botlib:be_ai_goal.obj
 0003:00017c78       ??_C@_09FDFEENEB@notsingle?$AA@ 00640c78     botlib:be_ai_goal.obj
 0003:00017c84       ??_C@_07CLBNBEAH@notteam?$AA@ 00640c84     botlib:be_ai_goal.obj
 0003:00017c90       ??_C@_07DDCDJNBH@notfree?$AA@ 00640c90     botlib:be_ai_goal.obj
 0003:00017c9c       ??_C@_0CJ@NOFKLOEA@item?5?$CFs?5reachable?5from?5jumppad?5a@ 00640c9c     botlib:be_ai_goal.obj
 0003:00017cd0       ??_C@_0BI@INFPJMMC@item?5?$CFs?5without?5origin?6?$AA@ 00640cd0     botlib:be_ai_goal.obj
 0003:00017cec       ??_C@_0BJ@KFHJJGAI@entity?5?$CFs?5unknown?5item?$AN?6?$AA@ 00640cec     botlib:be_ai_goal.obj
 0003:00017d0c       ??_C@_0L@HLIKNEFC@spawnflags?$AA@ 00640d0c     botlib:be_ai_goal.obj
 0003:00017d1c       ??_C@_0BJ@GPKBNKNM@item?5?$CFs?5has?5modelindex?50?$AA@ 00640d1c     botlib:be_ai_goal.obj
 0003:00017d3c       ??_C@_0CI@HLDADGI@avoid?5goal?5?$CFs?0?5number?5?$CFd?5for?5?$CFf?5@ 00640d3c     botlib:be_ai_goal.obj
 0003:00017d6c       ??_C@_0BM@GIIPJMEB@linked?5item?5?$CFs?5to?5an?5entity?$AA@ 00640d6c     botlib:be_ai_goal.obj
 0003:00017d90       ??_C@_06BNEENKNB@?$CFd?3?5?$CFs?$AA@ 00640d90     botlib:be_ai_goal.obj
 0003:00017d98       ??_C@_0BE@BBIKOMDL@goal?5heap?5overflow?6?$AA@ 00640d98     botlib:be_ai_goal.obj
 0003:00017db0       __real@3f826e978d4fdf3b    00640db0     botlib:be_ai_goal.obj
 0003:00017dbc       ??_C@_0BH@LPPOHIHL@couldn?8t?5load?5weights?6?$AA@ 00640dbc     botlib:be_ai_goal.obj
 0003:00017dd8       ??_C@_0BO@OFOCDAPF@invalid?5goal?5state?5handle?5?$CFd?6?$AA@ 00640dd8     botlib:be_ai_goal.obj
 0003:00017dfc       ??_C@_0O@DPNHINNN@droppedweight?$AA@ 00640dfc     botlib:be_ai_goal.obj
 0003:00017e0c       ??_C@_0BL@DEFNFIDM@couldn?8t?5load?5item?5config?6?$AA@ 00640e0c     botlib:be_ai_goal.obj
 0003:00017e2c       ??_C@_0L@LFADFAG@itemconfig?$AA@ 00640e2c     botlib:be_ai_goal.obj
 0003:00017e3c       ??_C@_07HBEMBONH@items?4c?$AA@ 00640e3c     botlib:be_ai_goal.obj
 0003:00017e48       ??_C@_0L@BHIFJKKK@bouncestop?$AA@ 00640e48     botlib:be_ai_weap.obj
 0003:00017e58       ??_C@_0L@PPIMOAKE@bouncefric?$AA@ 00640e58     botlib:be_ai_weap.obj
 0003:00017e68       ??_C@_06DPMIMFNG@bounce?$AA@ 00640e68     botlib:be_ai_weap.obj
 0003:00017e70       ??_C@_0L@NJHJLKG@detonation?$AA@ 00640e70     botlib:be_ai_weap.obj
 0003:00017e80       ??_C@_04GHHNIPCF@push?$AA@ 00640e80     botlib:be_ai_weap.obj
 0003:00017e88       ??_C@_09OLKAIEMO@healthinc?$AA@ 00640e88     botlib:be_ai_weap.obj
 0003:00017e94       ??_C@_0L@LLALLABI@damagetype?$AA@ 00640e94     botlib:be_ai_weap.obj
 0003:00017ea4       ??_C@_09DOEGBGAO@visdamage?$AA@ 00640ea4     botlib:be_ai_weap.obj
 0003:00017eb0       ??_C@_06KGHINEPG@radius?$AA@ 00640eb0     botlib:be_ai_weap.obj
 0003:00017eb8       ??_C@_06GJOIPFFF@damage?$AA@ 00640eb8     botlib:be_ai_weap.obj
 0003:00017ec0       ??_C@_08PFGPOMOJ@spindown?$AA@ 00640ec0     botlib:be_ai_weap.obj
 0003:00017ecc       ??_C@_06IGOPKBLH@spinup?$AA@ 00640ecc     botlib:be_ai_weap.obj
 0003:00017ed4       ??_C@_06DGFOANMH@reload?$AA@ 00640ed4     botlib:be_ai_weap.obj
 0003:00017edc       ??_C@_08IFCMKJCD@activate?$AA@ 00640edc     botlib:be_ai_weap.obj
 0003:00017ee8       ??_C@_09KNCLBKIN@ammoindex?$AA@ 00640ee8     botlib:be_ai_weap.obj
 0003:00017ef4       ??_C@_0L@FCOOONPA@ammoamount?$AA@ 00640ef4     botlib:be_ai_weap.obj
 0003:00017f04       ??_C@_0P@NJBBMHGK@extrazvelocity?$AA@ 00640f04     botlib:be_ai_weap.obj
 0003:00017f18       ??_C@_0M@ONPMIPEC@angleoffset?$AA@ 00640f18     botlib:be_ai_weap.obj
 0003:00017f28       ??_C@_06KLHHMIGM@offset?$AA@ 00640f28     botlib:be_ai_weap.obj
 0003:00017f30       ??_C@_06HCMEEBKG@recoil?$AA@ 00640f30     botlib:be_ai_weap.obj
 0003:00017f38       ??_C@_0N@OKFAMOHD@acceleration?$AA@ 00640f38     botlib:be_ai_weap.obj
 0003:00017f48       ??_C@_07OBCOMENM@vspread?$AA@ 00640f48     botlib:be_ai_weap.obj
 0003:00017f54       ??_C@_07IIBPOHMF@hspread?$AA@ 00640f54     botlib:be_ai_weap.obj
 0003:00017f60       ??_C@_0P@NGONDBIO@numprojectiles?$AA@ 00640f60     botlib:be_ai_weap.obj
 0003:00017f74       ??_C@_0L@BOMCPGNF@projectile?$AA@ 00640f74     botlib:be_ai_weap.obj
 0003:00017f84       ??_C@_05GECEPKB@flags?$AA@ 00640f84     botlib:be_ai_weap.obj
 0003:00017f8c       ??_C@_0M@PNPIEPHK@weaponindex?$AA@ 00640f8c     botlib:be_ai_weap.obj
 0003:00017f9c       ??_C@_05KJNJLLGA@level?$AA@ 00640f9c     botlib:be_ai_weap.obj
 0003:00017fa4       ??_C@_06EBGNBFIA@number?$AA@ 00640fa4     botlib:be_ai_weap.obj
 0003:00017fac       ??_C@_0BM@JHOEFCAC@weapon?5number?5out?5of?5range?6?$AA@ 00640fac     botlib:be_ai_weap.obj
 0003:00017fd0       ??_C@_0BH@BCLPAAIH@no?5weapon?5info?5loaded?6?$AA@ 00640fd0     botlib:be_ai_weap.obj
 0003:00017fec       ??_C@_0CL@PNIBMIGN@weapon?5?$CFs?5uses?5undefined?5project@ 00640fec     botlib:be_ai_weap.obj
 0003:00018020       ??_C@_0CD@BOCMCBMN@weapon?5?$CFs?5has?5no?5projectile?5in?5?$CF@ 00641020     botlib:be_ai_weap.obj
 0003:0001804c       ??_C@_0BN@NFAIFCED@weapon?5?$CFd?5has?5no?5name?5in?5?$CFs?6?$AA@ 0064104c     botlib:be_ai_weap.obj
 0003:00018070       ??_C@_0BN@CDKNOAJI@unknown?5definition?5?$CFs?5in?5?$CFs?6?$AA@ 00641070     botlib:be_ai_weap.obj
 0003:00018094       ??_C@_0CI@CKKHFCFJ@more?5than?5?$CFd?5projectiles?5defined@ 00641094     botlib:be_ai_weap.obj
 0003:000180c4       ??_C@_0P@ECOEJLJA@projectileinfo?$AA@ 006410c4     botlib:be_ai_weap.obj
 0003:000180d8       ??_C@_0CK@BMAKINJL@weapon?5info?5number?5?$CFd?5out?5of?5ran@ 006410d8     botlib:be_ai_weap.obj
 0003:0001810c       ??_C@_0L@DNADMFPA@weaponinfo?$AA@ 0064110c     botlib:be_ai_weap.obj
 0003:0001811c       ??_C@_0BJ@DEOLMOJN@max_projectileinfo?5?$DN?5?$CFd?6?$AA@ 0064111c     botlib:be_ai_weap.obj
 0003:0001813c       ??_C@_0BD@NPBGALBJ@max_projectileinfo?$AA@ 0064113c     botlib:be_ai_weap.obj
 0003:00018154       ??_C@_0BF@IEGKFMLK@max_weaponinfo?5?$DN?5?$CFd?6?$AA@ 00641154     botlib:be_ai_weap.obj
 0003:00018170       ??_C@_0P@IAKNEENP@max_weaponinfo?$AA@ 00641170     botlib:be_ai_weap.obj
 0003:00018184       ??_C@_0CA@KGGEKGMG@couldn?8t?5load?5weapon?5config?5?$CFs?6?$AA@ 00641184     botlib:be_ai_weap.obj
 0003:000181ac       ??_C@_0CB@OGKBNMGI@couldn?8t?5load?5the?5weapon?5config?6@ 006411ac     botlib:be_ai_weap.obj
 0003:000181d4       ??_C@_0N@LAFMGPOO@weaponconfig?$AA@ 006411d4     botlib:be_ai_weap.obj
 0003:000181e4       ??_C@_09DEBEJFNC@weapons?4c?$AA@ 006411e4     botlib:be_ai_weap.obj
 0003:000181f0       ??_C@_0M@JKGINFAL@tell?5?$CFd?0?5?$CFs?$AA@ 006411f0     botlib:be_ea.obj
 0003:00018200       ??_C@_06JKABFJFP@use?5?$CFs?$AA@ 00641200     botlib:be_ea.obj
 0003:00018208       ??_C@_07CPFNBDJF@drop?5?$CFs?$AA@ 00641208     botlib:be_ea.obj
 0003:00018214       ??_C@_09DHILADMM@invuse?5?$CFs?$AA@ 00641214     botlib:be_ea.obj
 0003:00018220       ??_C@_0L@EGPGFLDB@invdrop?5?$CFs?$AA@ 00641220     botlib:be_ea.obj
 0003:00018230       __real@c3c80000            00641230     botlib:be_ea.obj
 0003:00018234       ??_C@_0CC@NOMCHAJ@?$CFs?3?5reference?5to?5unused?5index?5?$CFd@ 00641234     botlib:be_aas_main.obj
 0003:0001825c       ??_C@_0BL@LKJOCOEM@?$CFs?3?5index?5?$CFd?5out?5of?5range?6?$AA@ 0064125c     botlib:be_aas_main.obj
 0003:0001827c       ??_C@_0BI@OOMOACGM@?$CFs?3?5index?5?$CFd?5not?5setup?6?$AA@ 0064127c     botlib:be_aas_main.obj
 0003:00018298       ??_C@_0BK@IEPMPCKO@?$CFs?3?5index?5not?5setup?5?$CC?$CFs?$CC?6?$AA@ 00641298     botlib:be_aas_main.obj
 0003:000182b8       ??_C@_0P@FNFFGKPG@ModelFromIndex?$AA@ 006412b8     botlib:be_aas_main.obj
 0003:000182cc       ??_C@_0P@NMFGOFFJ@IndexFromModel?$AA@ 006412cc     botlib:be_aas_main.obj
 0003:000182e0       ??_C@_0BC@CLICPINC@AAS?5initialized?4?6?$AA@ 006412e0     botlib:be_aas_main.obj
 0003:000182f8       ??_C@_0BD@KNDGFCCN@couldn?8t?5write?5?$CFs?6?$AA@ 006412f8     botlib:be_aas_main.obj
 0003:00018310       ??_C@_0BI@PECGHGFB@?$CFs?5written?5succesfully?6?$AA@ 00641310     botlib:be_aas_main.obj
 0003:0001832c       ??_C@_0M@MFMPGCMK@aasoptimize?$AA@ 0064132c     botlib:be_aas_main.obj
 0003:0001833c       ??_C@_0L@MNCDALON@forcewrite?$AA@ 0064133c     botlib:be_aas_main.obj
 0003:0001834c       ??_C@_0BB@GMCJAANP@saveroutingcache?$AA@ 0064134c     botlib:be_aas_main.obj
 0003:00018360       ??_C@_0L@JEKILDFB@memorydump?$AA@ 00641360     botlib:be_aas_main.obj
 0003:00018370       ??_C@_0BA@OBLODKFG@showmemoryusage?$AA@ 00641370     botlib:be_aas_main.obj
 0003:00018384       ??_C@_0BB@FOPILIHM@showcacheupdates?$AA@ 00641384     botlib:be_aas_main.obj
 0003:00018398       ??_C@_0M@BMODPEIJ@maps?1?$CFs?4aas?$AA@ 00641398     botlib:be_aas_main.obj
 0003:000183a8       ??_C@_0P@MCFJEJDN@AAS?5shutdown?4?6?$AA@ 006413a8     botlib:be_aas_main.obj
 0003:000183bc       ??_C@_0P@OAMPMFKE@Opened?5log?5?$CFs?6?$AA@ 006413bc     botlib:l_log.obj
 0003:000183d0       ??_C@_0BM@MCGFOLNG@can?8t?5open?5the?5log?5file?5?$CFs?6?$AA@ 006413d0     botlib:l_log.obj
 0003:000183f4       ??_C@_0BP@DENECPGL@log?5file?5?$CFs?5is?5already?5opened?6?$AA@ 006413f4     botlib:l_log.obj
 0003:0001841c       ??_C@_0BE@DPLJFOML@openlog?5?$DMfilename?$DO?6?$AA@ 0064141c     botlib:l_log.obj
 0003:00018434       ??_C@_03MGHMBJCF@log?$AA@  00641434     botlib:l_log.obj
 0003:00018438       ??_C@_0P@EBJFELDF@Closed?5log?5?$CFs?6?$AA@ 00641438     botlib:l_log.obj
 0003:0001844c       ??_C@_0BJ@GMGFLNFJ@can?8t?5close?5log?5file?5?$CFs?6?$AA@ 0064144c     botlib:l_log.obj
 0003:0001846c       ??_C@_02PCIJFNDE@?$AN?6?$AA@ 0064146c     botlib:l_log.obj
 0003:00018470       ??_C@_0BM@IGDCFNDJ@?$CFd?5?5?5?$CF02d?3?$CF02d?3?$CF02d?3?$CF02d?5?5?5?$AA@ 00641470     botlib:l_log.obj
 0003:00018494       ??_C@_07FNDAMPLK@evalint?$AA@ 00641494     botlib:l_precomp.obj
 0003:000184a0       ??_C@_09BLDJOION@evalfloat?$AA@ 006414a0     botlib:l_precomp.obj
 0003:000184ac       ??_C@_04KGAGIKCD@eval?$AA@ 006414ac     botlib:l_precomp.obj
 0003:000184b4       ??_C@_06PGFLMPLC@pragma?$AA@ 006414b4     botlib:l_precomp.obj
 0003:000184bc       ??_C@_04HJPCFDOP@line?$AA@ 006414bc     botlib:l_precomp.obj
 0003:000184c4       ??_C@_05PKCPKOLM@undef?$AA@ 006414c4     botlib:l_precomp.obj
 0003:000184cc       ??_C@_06EPMMJFDC@define?$AA@ 006414cc     botlib:l_precomp.obj
 0003:000184d4       ??_C@_07FHOHOHLG@include?$AA@ 006414d4     botlib:l_precomp.obj
 0003:000184e0       ??_C@_05PAODFFED@endif?$AA@ 006414e0     botlib:l_precomp.obj
 0003:000184e8       ??_C@_04FHMCPBIP@else?$AA@ 006414e8     botlib:l_precomp.obj
 0003:000184f0       ??_C@_04GNFOIEOK@elif?$AA@ 006414f0     botlib:l_precomp.obj
 0003:000184f8       ??_C@_06ENONKJGC@ifndef?$AA@ 006414f8     botlib:l_precomp.obj
 0003:00018500       ??_C@_05LOELCHJN@ifdef?$AA@ 00641500     botlib:l_precomp.obj
 0003:00018508       ??_C@_02HEBPBKGD@if?$AA@   00641508     botlib:l_precomp.obj
 0003:0001850c       ??_C@_0BG@GBKGLIDE@file?5?$CFs?0?5line?5?$CFd?3?5?$CFs?6?$AA@ 0064150c     botlib:l_precomp.obj
 0003:00018528       ??_C@_0BI@DBGANKKJ@?$CFs?5recursively?5included?$AA@ 00641528     botlib:l_precomp.obj
 0003:00018544       ??_C@_0BE@PFGKJJGH@out?5of?5token?5space?6?$AA@ 00641544     botlib:l_precomp.obj
 0003:0001855c       ??_C@_0P@IFDFMCIL@missing?5?$CDendif?$AA@ 0064155c     botlib:l_precomp.obj
 0003:00018570       ??_C@_0BF@GHJFDBAE@too?5few?5define?5parms?$AA@ 00641570     botlib:l_precomp.obj
 0003:0001858c       ??_C@_0BB@HBCKCGHH@too?5many?5comma?8s?$AA@ 0064158c     botlib:l_precomp.obj
 0003:000185a0       ??_C@_0BF@PPHAFKBJ@define?5?$CFs?5incomplete?$AA@ 006415a0     botlib:l_precomp.obj
 0003:000185bc       ??_C@_0BN@LKHLCMOF@define?5?$CFs?5has?5too?5many?5parms?$AA@ 006415bc     botlib:l_precomp.obj
 0003:000185e0       ??_C@_0BO@CIDPMME@define?5?$CFs?5with?5too?5many?5parms?$AA@ 006415e0     botlib:l_precomp.obj
 0003:00018604       ??_C@_0CE@LBMAFIHE@define?5with?5more?5than?5?$CFd?5paramet@ 00641604     botlib:l_precomp.obj
 0003:00018630       ??_C@_0BI@CAHOPMH@define?5?$CFs?5missing?5parms?$AA@ 00641630     botlib:l_precomp.obj
 0003:0001864c       ??_C@_04CFMCHKOF@?$CF4d?3?$AA@ 0064164c     botlib:l_precomp.obj
 0003:00018654       ??_C@_08JBLMAOHN@__TIME__?$AA@ 00641654     botlib:l_precomp.obj
 0003:00018660       ??_C@_08HHMBOFCN@__DATE__?$AA@ 00641660     botlib:l_precomp.obj
 0003:0001866c       ??_C@_08FMJNKKCK@__FILE__?$AA@ 0064166c     botlib:l_precomp.obj
 0003:00018678       ??_C@_08ICCNKGAE@__LINE__?$AA@ 00641678     botlib:l_precomp.obj
 0003:00018684       ??_C@_0BH@DDBOIAKK@can?8t?5merge?5?$CFs?5with?5?$CFs?$AA@ 00641684     botlib:l_precomp.obj
 0003:000186a0       ??_C@_0CO@FIAHGJJO@stringizing?5operator?5without?5def@ 006416a0     botlib:l_precomp.obj
 0003:000186d8       ??_C@_0BH@FGJBFJMP@can?8t?5stringize?5tokens?$AA@ 006416d8     botlib:l_precomp.obj
 0003:000186f4       ??_C@_0BC@ELACKGMC@file?5?$CFs?5not?5found?$AA@ 006416f4     botlib:l_precomp.obj
 0003:0001870c       ??_C@_0CH@BILCEFJF@?$CDinclude?5without?5file?5name?5betwe@ 0064170c     botlib:l_precomp.obj
 0003:0001873c       ??_C@_0BM@MKHAAFFA@?$CDinclude?5missing?5trailing?5?$DO?$AA@ 0064173c     botlib:l_precomp.obj
 0003:00018760       ??_C@_0BL@MDEODINB@?$CDinclude?5without?5file?5name?$AA@ 00641760     botlib:l_precomp.obj
 0003:00018780       ??_C@_0P@CHOGDKAE@can?8t?5undef?5?$CFs?$AA@ 00641780     botlib:l_precomp.obj
 0003:00018794       ??_C@_0BI@LCFFDKMI@expected?5name?0?5found?5?$CFs?$AA@ 00641794     botlib:l_precomp.obj
 0003:000187b0       ??_C@_0BD@IELPOLI@undef?5without?5name?$AA@ 006417b0     botlib:l_precomp.obj
 0003:000187c8       ??_C@_0BJ@FCHLMCOB@define?5with?5misplaced?5?$CD?$CD?$AA@ 006417c8     botlib:l_precomp.obj
 0003:000187e8       ??_C@_02IEBMKJDF@?$CD?$CD?$AA@ 006417e8     botlib:l_precomp.obj
 0003:000187ec       ??_C@_0CF@FNOAJAKF@recursive?5define?5?$CIremoved?5recurs@ 006417ec     botlib:l_precomp.obj
 0003:00018818       ??_C@_0BG@PHCEBIF@define?5not?5terminated?$AA@ 00641818     botlib:l_precomp.obj
 0003:00018834       ??_C@_0CB@JHGJFPBB@define?5parameters?5not?5terminated@ 00641834     botlib:l_precomp.obj
 0003:0001885c       ??_C@_0BP@HPJAJOKD@two?5the?5same?5define?5parameters?$AA@ 0064185c     botlib:l_precomp.obj
 0003:00018884       ??_C@_0BJ@CDAIKNHD@invalid?5define?5parameter?$AA@ 00641884     botlib:l_precomp.obj
 0003:000188a4       ??_C@_0BK@OHINAMCG@expected?5define?5parameter?$AA@ 006418a4     botlib:l_precomp.obj
 0003:000188c4       ??_C@_0BD@PFJBIMHG@redefinition?5of?5?$CFs?$AA@ 006418c4     botlib:l_precomp.obj
 0003:000188dc       ??_C@_0BC@PNHKPGCD@can?8t?5redefine?5?$CFs?$AA@ 006418dc     botlib:l_precomp.obj
 0003:000188f4       ??_C@_0CG@PGNFJILG@expected?5name?5after?5?$CDdefine?0?5fou@ 006418f4     botlib:l_precomp.obj
 0003:00018924       ??_C@_0BF@EDHDDJPD@?$CDdefine?5without?5name?$AA@ 00641924     botlib:l_precomp.obj
 0003:00018940       ??_C@_07GADFAJMP@?$CKextern?$AA@ 00641940     botlib:l_precomp.obj
 0003:0001894c       ??_C@_0CF@NLPAJGLD@expected?5name?5after?5?$CDifdef?0?5foun@ 0064194c     botlib:l_precomp.obj
 0003:00018978       ??_C@_0BE@IMBJDEPK@?$CDifdef?5without?5name?$AA@ 00641978     botlib:l_precomp.obj
 0003:00018990       ??_C@_0BC@LGACBGNI@?$CDelse?5after?5?$CDelse?$AA@ 00641990     botlib:l_precomp.obj
 0003:000189a8       ??_C@_0BA@NPOEMJCD@misplaced?5?$CDelse?$AA@ 006419a8     botlib:l_precomp.obj
 0003:000189bc       ??_C@_0BB@CPALJMLI@misplaced?5?$CDendif?$AA@ 006419bc     botlib:l_precomp.obj
 0003:000189d0       ??_C@_0BH@CHBBNAOH@?$DP?5after?5?$DP?5in?5?$CDif?1?$CDelif?$AA@ 006419d0     botlib:l_precomp.obj
 0003:000189ec       ??_C@_0BJ@JILHHGIH@?3?5without?5?$DP?5in?5?$CDif?1?$CDelif?$AA@ 006419ec     botlib:l_precomp.obj
 0003:00018a0c       ??_C@_0BN@HMNACNG@divide?5by?5zero?5in?5?$CDif?1?$CDelif?6?$AA@ 00641a0c     botlib:l_precomp.obj
 0003:00018a30       ??_C@_0BL@BNPPJONA@mising?5values?5in?5?$CDif?1?$CDelif?$AA@ 00641a30     botlib:l_precomp.obj
 0003:00018a50       ??_C@_0BI@MJMEGLFD@too?5many?5?$CI?5in?5?$CDif?1?$CDelif?$AA@ 00641a50     botlib:l_precomp.obj
 0003:00018a6c       ??_C@_0BP@NIBGGAAE@trailing?5operator?5in?5?$CDif?1?$CDelif?$AA@ 00641a6c     botlib:l_precomp.obj
 0003:00018a94       ??_C@_0BI@ONNIJHPK@unknown?5?$CFs?5in?5?$CDif?1?$CDelif?$AA@ 00641a94     botlib:l_precomp.obj
 0003:00018ab0       ??_C@_0BH@OFGCJCOE@out?5of?5operator?5space?6?$AA@ 00641ab0     botlib:l_precomp.obj
 0003:00018acc       ??_C@_0CB@PFAFLJI@invalid?5operator?5?$CFs?5in?5?$CDif?1?$CDelif@ 00641acc     botlib:l_precomp.obj
 0003:00018af4       ??_C@_0CI@GGOHGOKI@operator?5?$CFs?5after?5operator?5in?5?$CDi@ 00641af4     botlib:l_precomp.obj
 0003:00018b24       ??_C@_0BL@GBPPHEGE@?$CL?$CL?5or?5?9?9?5used?5in?5?$CDif?1?$CDelif?$AA@ 00641b24     botlib:l_precomp.obj
 0003:00018b44       ??_C@_0CA@FEDLLKBK@?$CB?5or?5?$HO?5after?5value?5in?5?$CDif?1?$CDelif?$AA@ 00641b44     botlib:l_precomp.obj
 0003:00018b6c       ??_C@_0DA@OGPMIBNF@illigal?5operator?5?$CFs?5on?5floating?5@ 00641b6c     botlib:l_precomp.obj
 0003:00018ba8       ??_C@_0BJ@FLJMGJFD@too?5many?5?$CJ?5in?5?$CDif?1?$CDelsif?$AA@ 00641ba8     botlib:l_precomp.obj
 0003:00018bc8       ??_C@_0CC@DNHHPAPI@misplaced?5minus?5sign?5in?5?$CDif?1?$CDeli@ 00641bc8     botlib:l_precomp.obj
 0003:00018bf0       ??_C@_0BP@FNAPCIDI@defined?5without?5?$CJ?5in?5?$CDif?1?$CDelif?$AA@ 00641bf0     botlib:l_precomp.obj
 0003:00018c18       ??_C@_0BE@PAMHPFIE@out?5of?5value?5space?6?$AA@ 00641c18     botlib:l_precomp.obj
 0003:00018c30       ??_C@_0CC@OHHFNCNF@defined?5without?5name?5in?5?$CDif?1?$CDeli@ 00641c30     botlib:l_precomp.obj
 0003:00018c58       ??_C@_0BP@FCIAONAD@undefined?5name?5?$CFs?5in?5?$CDif?1?$CDelif?$AA@ 00641c58     botlib:l_precomp.obj
 0003:00018c80       ??_C@_07MJAJDDLG@defined?$AA@ 00641c80     botlib:l_precomp.obj
 0003:00018c8c       ??_C@_0BK@PKFCEECE@syntax?5error?5in?5?$CDif?1?$CDelif?$AA@ 00641c8c     botlib:l_precomp.obj
 0003:00018cac       ??_C@_0BC@JLPCHENH@can?8t?5evaluate?5?$CFs?$AA@ 00641cac     botlib:l_precomp.obj
 0003:00018cc4       ??_C@_0BP@GDBMMIIP@can?8t?5evaluate?5?$CFs?0?5not?5defined?$AA@ 00641cc4     botlib:l_precomp.obj
 0003:00018cec       ??_C@_0BJ@GGKGDEMC@no?5value?5after?5?$CDif?1?$CDelif?$AA@ 00641cec     botlib:l_precomp.obj
 0003:00018d0c       ??_C@_0BE@NEDCJHGJ@nothing?5to?5evaluate?$AA@ 00641d0c     botlib:l_precomp.obj
 0003:00018d24       ??_C@_0CH@DDGJDDBD@no?5leading?5?$CI?5after?5$evalint?1$eva@ 00641d24     botlib:l_precomp.obj
 0003:00018d54       ??_C@_0BA@OFHILMEG@misplaced?5?$CDelif?$AA@ 00641d54     botlib:l_precomp.obj
 0003:00018d68       ??_C@_0BO@PLIOJNDH@?$CDline?5directive?5not?5supported?$AA@ 00641d68     botlib:l_precomp.obj
 0003:00018d8c       ??_C@_0BF@PIGJJAAO@?$CDerror?5directive?3?5?$CFs?$AA@ 00641d8c     botlib:l_precomp.obj
 0003:00018da8       ??_C@_0CA@KICMIAFO@?$CDpragma?5directive?5not?5supported?$AA@ 00641da8     botlib:l_precomp.obj
 0003:00018dd0       ??_C@_05NBLIHODN@?$CF1?42f?$AA@ 00641dd0     botlib:l_precomp.obj
 0003:00018dd8       ??_C@_0CB@OMHFNJIL@unknown?5precompiler?5directive?5?$CFs@ 00641dd8     botlib:l_precomp.obj
 0003:00018e00       ??_C@_0BH@CKLPJCIG@found?5?$CD?5at?5end?5of?5line?$AA@ 00641e00     botlib:l_precomp.obj
 0003:00018e1c       ??_C@_0BF@PIJDPBJF@found?5?$CD?5without?5name?$AA@ 00641e1c     botlib:l_precomp.obj
 0003:00018e38       ??_C@_0BH@KCNOOMN@found?5$?5at?5end?5of?5line?$AA@ 00641e38     botlib:l_precomp.obj
 0003:00018e54       ??_C@_0BF@GDJCPOIP@found?5$?5without?5name?$AA@ 00641e54     botlib:l_precomp.obj
 0003:00018e70       ??_C@_0CB@GIDBGAHO@string?5longer?5than?5MAX_TOKEN?5?$CFd?6@ 00641e70     botlib:l_precomp.obj
 0003:00018e98       ??_C@_0BG@PHOMHNKB@expected?5?$CFs?0?5found?5?$CFs?$AA@ 00641e98     botlib:l_precomp.obj
 0003:00018eb4       ??_C@_0BK@JEDPJDDM@couldn?8t?5find?5expected?5?$CFs?$AA@ 00641eb4     botlib:l_precomp.obj
 0003:00018ed4       ??_C@_08EFPOOAED@found?5?$CFs?$AA@ 00641ed4     botlib:l_precomp.obj
 0003:00018ee0       ??_C@_08LLKPIPDF@?5integer?$AA@ 00641ee0     botlib:l_precomp.obj
 0003:00018eec       ??_C@_06EOECJFKG@?5float?$AA@ 00641eec     botlib:l_precomp.obj
 0003:00018ef4       ??_C@_09GBGALIGL@?5unsigned?$AA@ 00641ef4     botlib:l_precomp.obj
 0003:00018f00       ??_C@_05BOODDNDJ@?5long?$AA@ 00641f00     botlib:l_precomp.obj
 0003:00018f08       ??_C@_06FNFBAEBE@binary?$AA@ 00641f08     botlib:l_precomp.obj
 0003:00018f10       ??_C@_05NANFMDJ@octal?$AA@ 00641f10     botlib:l_precomp.obj
 0003:00018f18       ??_C@_03IJNDAFDK@hex?$AA@  00641f18     botlib:l_precomp.obj
 0003:00018f1c       ??_C@_07EEKBCPDP@decimal?$AA@ 00641f1c     botlib:l_precomp.obj
 0003:00018f28       ??_C@_0BI@DOMAOFAI@expected?5a?5?$CFs?0?5found?5?$CFs?$AA@ 00641f28     botlib:l_precomp.obj
 0003:00018f44       ??_C@_0M@CCLOEHNM@punctuation?$AA@ 00641f44     botlib:l_precomp.obj
 0003:00018f54       ??_C@_07IDLNMGBF@literal?$AA@ 00641f54     botlib:l_precomp.obj
 0003:00018f60       ??_C@_06ICGJLFIM@string?$AA@ 00641f60     botlib:l_precomp.obj
 0003:00018f68       ??_C@_0BN@ECGBICMG@couldn?8t?5read?5expected?5token?$AA@ 00641f68     botlib:l_precomp.obj
 0003:00018f8c       ??_C@_0CD@DCDKNJKM@file?5?$CFs?5still?5open?5in?5precompile@ 00641f8c     botlib:l_precomp.obj
 0003:00018fb8       ??_C@_0BG@MOINIJPL@invalid?5character?5?$CFd?6?$AA@ 00641fb8     botlib:be_ai_char.obj
 0003:00018fd4       ??_C@_0CC@MOFCJGCF@character?5handle?5?$CFd?5out?5of?5range@ 00641fd4     botlib:be_ai_char.obj
 0003:00018ffc       ??_C@_08BPKNIHEG@?5?$CF4d?5?$CFs?6?$AA@ 00641ffc     botlib:be_ai_char.obj
 0003:00019008       ??_C@_08FEAOGNN@?5?$CF4d?5?$CFf?6?$AA@ 00642008     botlib:be_ai_char.obj
 0003:00019014       ??_C@_08GMEDCLD@?5?$CF4d?5?$CFd?6?$AA@ 00642014     botlib:be_ai_char.obj
 0003:00019020       ??_C@_09MAKFBPDF@skill?5?$CFd?6?$AA@ 00642020     botlib:be_ai_char.obj
 0003:0001902c       ??_C@_0CN@FGECCABF@expected?5integer?0?5float?5or?5strin@ 0064202c     botlib:be_ai_char.obj
 0003:00019064       ??_C@_0CH@LHHMLMDG@characteristic?5?$CFd?5already?5initia@ 00642064     botlib:be_ai_char.obj
 0003:00019094       ??_C@_0CL@PPLBNLNK@characteristic?5index?5out?5of?5rang@ 00642094     botlib:be_ai_char.obj
 0003:000190c8       ??_C@_0CC@HINMPLM@expected?5integer?5index?0?5found?5?$CFs@ 006420c8     botlib:be_ai_char.obj
 0003:000190f0       ??_C@_05ODMCMJAJ@skill?$AA@ 006420f0     botlib:be_ai_char.obj
 0003:000190f8       ??_C@_0CB@MKGIENMG@couldn?8t?5load?5any?5skill?5from?5?$CFs?6@ 006420f8     botlib:be_ai_char.obj
 0003:00019120       ??_C@_0CB@OBHKNOIO@loaded?5default?5skill?5?$CFf?5from?5?$CFs?6@ 00642120     botlib:be_ai_char.obj
 0003:00019148       ??_C@_0CI@NPODPODE@loaded?5cached?5default?5skill?5?$CFf?5f@ 00642148     botlib:be_ai_char.obj
 0003:00019178       ??_C@_0BJ@EMLEGOCJ@loaded?5skill?5?$CFf?5from?5?$CFs?6?$AA@ 00642178     botlib:be_ai_char.obj
 0003:00019198       ??_C@_0CB@LJBGGHEP@loaded?5default?5skill?5?$CFd?5from?5?$CFs?6@ 00642198     botlib:be_ai_char.obj
 0003:000191c0       ??_C@_0CI@IHIPEHPF@loaded?5cached?5default?5skill?5?$CFd?5f@ 006421c0     botlib:be_ai_char.obj
 0003:000191f0       ??_C@_0BB@OCLCLNLB@bots?1default_c?4c?$AA@ 006421f0     botlib:be_ai_char.obj
 0003:00019204       ??_C@_0BO@KHBDCBON@couldn?8t?5find?5skill?5?$CFd?5in?5?$CFs?6?$AA@ 00642204     botlib:be_ai_char.obj
 0003:00019228       ??_C@_0CE@HMKCLBNJ@skill?5?$CFd?5loaded?5in?5?$CFd?5msec?5from?5@ 00642228     botlib:be_ai_char.obj
 0003:00019254       ??_C@_0BJ@BENINHOI@loaded?5skill?5?$CFd?5from?5?$CFs?6?$AA@ 00642254     botlib:be_ai_char.obj
 0003:00019274       ??_C@_0CA@CAABAEMN@loaded?5cached?5skill?5?$CFf?5from?5?$CFs?6?$AA@ 00642274     botlib:be_ai_char.obj
 0003:0001929c       ??_C@_0CG@PKODDELM@characteristic?5?$CFd?5is?5not?5initial@ 0064229c     botlib:be_ai_char.obj
 0003:000192cc       ??_C@_0CC@FCGCALKF@characteristic?5?$CFd?5does?5not?5exist@ 006422cc     botlib:be_ai_char.obj
 0003:000192f4       ??_C@_0CC@DHDJPPBG@characteristic?5?$CFd?5is?5not?5a?5float@ 006422f4     botlib:be_ai_char.obj
 0003:0001931c       ??_C@_0DC@DHJFBIJH@cannot?5bound?5characteristic?5?$CFd?5b@ 0064231c     botlib:be_ai_char.obj
 0003:00019358       ??_C@_0CE@LLNBHBFO@characteristic?5?$CFd?5is?5not?5a?5integ@ 00642358     botlib:be_ai_char.obj
 0003:00019384       ??_C@_0DC@DAOEBMME@cannot?5bound?5characteristic?5?$CFd?5b@ 00642384     botlib:be_ai_char.obj
 0003:000193c0       ??_C@_0CD@JOPFDMMO@characteristic?5?$CFd?5is?5not?5a?5strin@ 006423c0     botlib:be_ai_char.obj
 0003:000193ec       ??_C@_0BJ@GLODEBJK@invalid?5return?5value?5?$CFs?6?$AA@ 006423ec     botlib:be_ai_weight.obj
 0003:0001940c       ??_C@_0BM@HDMBEFIO@negative?5value?5set?5to?5zero?6?$AA@ 0064240c     botlib:be_ai_weight.obj
 0003:00019430       ??_C@_07HHFEDLHG@balance?$AA@ 00642430     botlib:be_ai_weight.obj
 0003:0001943c       ??_C@_0BI@OGAGPDGB@switch?5without?5default?6?$AA@ 0064243c     botlib:be_ai_weight.obj
 0003:00019458       ??_C@_0BB@EGNLBCLO@invalid?5name?5?$CFs?6?$AA@ 00642458     botlib:be_ai_weight.obj
 0003:0001946c       ??_C@_06DOPOGBGP@switch?$AA@ 0064246c     botlib:be_ai_weight.obj
 0003:00019474       ??_C@_06LNOFJDNM@return?$AA@ 00642474     botlib:be_ai_weight.obj
 0003:0001947c       ??_C@_0BO@EHFJJING@switch?5already?5has?5a?5default?6?$AA@ 0064247c     botlib:be_ai_weight.obj
 0003:000194a0       ??_C@_04CKOINMPC@case?$AA@ 006424a0     botlib:be_ai_weight.obj
 0003:000194a8       ??_C@_07DLHCIBDH@default?$AA@ 006424a8     botlib:be_ai_weight.obj
 0003:000194b4       ??_C@_0BL@KKNDIGKH@weights?5loaded?5in?5?$CFd?5msec?6?$AA@ 006424b4     botlib:be_ai_weight.obj
 0003:000194d4       ??_C@_0BI@EPKIMGGL@too?5many?5fuzzy?5weights?6?$AA@ 006424d4     botlib:be_ai_weight.obj
 0003:000194f0       ??_C@_0CL@HHMEIDHK@weightFileList?5was?5full?5trying?5t@ 006424f0     botlib:be_ai_weight.obj
 0003:00019524       ??_C@_0DA@LJPOKDON@cannot?5interbreed?5weight?5configs@ 00642524     botlib:be_ai_weight.obj
 0003:00019560       ??_C@_0DD@CNDDMNEB@cannot?5interbreed?5weight?5configs@ 00642560     botlib:be_ai_weight.obj
 0003:000195a0       ??_C@_0DB@HDMANNJK@cannot?5interbreed?5weight?5configs@ 006425a0     botlib:be_ai_weight.obj
 0003:000195dc       ??_C@_0DG@IEMEEKLE@cannot?5interbreed?5weight?5configs@ 006425dc     botlib:be_ai_weight.obj
 0003:0001961c       ??_C@_0BO@MBNJNHCC@AAS_UpdateEntity?3?5not?5loaded?6?$AA@ 0064261c     botlib:be_aas_entity.obj
 0003:00019640       ??_C@_0CI@DHABDHGE@AAS_EntityInfo?3?5entnum?5?$CFd?5out?5of@ 00642640     botlib:be_aas_entity.obj
 0003:00019670       ??_C@_0CK@IABHHEBM@AAS_EntityInfo?3?5aasworld?5not?5ini@ 00642670     botlib:be_aas_entity.obj
 0003:000196a4       ??_C@_0CK@DFLNBMPC@AAS_EntityOrigin?3?5entnum?5?$CFd?5out?5@ 006426a4     botlib:be_aas_entity.obj
 0003:000196d8       ??_C@_0CO@GOHMBDIM@AAS_EntityModelindex?3?5entnum?5?$CFd?5@ 006426d8     botlib:be_aas_entity.obj
 0003:00019710       ??_C@_0CI@MHKPMBGB@AAS_EntityType?3?5entnum?5?$CFd?5out?5of@ 00642710     botlib:be_aas_entity.obj
 0003:00019740       ??_C@_0CM@KBCKFNEI@AAS_EntityModelNum?3?5entnum?5?$CFd?5ou@ 00642740     botlib:be_aas_entity.obj
 0003:00019774       ??_C@_0CI@PKIBPHIO@AAS_EntitySize?3?5entnum?5?$CFd?5out?5of@ 00642774     botlib:be_aas_entity.obj
 0003:000197a4       ??_C@_0BJ@MGMOCNCM@edgenum?5?$CFd?5out?5of?5range?6?$AA@ 006427a4     botlib:be_aas_debug.obj
 0003:000197c4       ??_C@_0BJ@BLFMMBJE@facenum?5?$CFd?5out?5of?5range?6?$AA@ 006427c4     botlib:be_aas_debug.obj
 0003:000197e4       ??_C@_0BO@EKJMENEL@area?5?$CFd?5out?5of?5range?5?$FL0?0?5?$CFd?$FN?6?$AA@ 006427e4     botlib:be_aas_debug.obj
 0003:00019808       ??_C@_0BE@BAECHDHF@UNKNOWN?5TRAVEL?5TYPE?$AA@ 00642808     botlib:be_aas_debug.obj
 0003:00019820       ??_C@_0P@OLAJCKKM@TRAVEL_FUNCBOB?$AA@ 00642820     botlib:be_aas_debug.obj
 0003:00019834       ??_C@_0P@LLKGLFIH@TRAVEL_JUMPPAD?$AA@ 00642834     botlib:be_aas_debug.obj
 0003:00019848       ??_C@_0BD@NDGJICEE@TRAVEL_GRAPPLEHOOK?$AA@ 00642848     botlib:be_aas_debug.obj
 0003:00019860       ??_C@_0P@KFNEFKCH@TRAVEL_BFGJUMP?$AA@ 00642860     botlib:be_aas_debug.obj
 0003:00019874       ??_C@_0BC@GIDALBKJ@TRAVEL_ROCKETJUMP?$AA@ 00642874     botlib:be_aas_debug.obj
 0003:0001988c       ??_C@_0BA@JEADDBDF@TRAVEL_ELEVATOR?$AA@ 0064288c     botlib:be_aas_debug.obj
 0003:000198a0       ??_C@_0BA@LIBBLAMD@TRAVEL_TELEPORT?$AA@ 006428a0     botlib:be_aas_debug.obj
 0003:000198b4       ??_C@_0BB@KKODJBEC@TRAVEL_WATERJUMP?$AA@ 006428b4     botlib:be_aas_debug.obj
 0003:000198c8       ??_C@_0M@OHEOAEMF@TRAVEL_SWIM?$AA@ 006428c8     botlib:be_aas_debug.obj
 0003:000198d8       ??_C@_0BE@PLFMFGKC@TRAVEL_WALKOFFLEDGE?$AA@ 006428d8     botlib:be_aas_debug.obj
 0003:000198f0       ??_C@_0O@IOLNPGDL@TRAVEL_LADDER?$AA@ 006428f0     botlib:be_aas_debug.obj
 0003:00019900       ??_C@_0M@NINCPNHN@TRAVEL_JUMP?$AA@ 00642900     botlib:be_aas_debug.obj
 0003:00019910       ??_C@_0BD@JJNIODGM@TRAVEL_BARRIERJUMP?$AA@ 00642910     botlib:be_aas_debug.obj
 0003:00019928       ??_C@_0O@NGGCHBGF@TRAVEL_CROUCH?$AA@ 00642928     botlib:be_aas_debug.obj
 0003:00019938       ??_C@_0M@DHCNMPCL@TRAVEL_WALK?$AA@ 00642938     botlib:be_aas_debug.obj
 0003:00019948       ??_C@_0P@HALNIPKF@TRAVEL_INVALID?$AA@ 00642948     botlib:be_aas_debug.obj
 0003:0001995c       __real@c0c00000            0064295c     botlib:be_aas_debug.obj
 0003:00019960       __real@3ff8000000000000    00642960     botlib:be_aas_debug.obj
 0003:0001996c       ??_C@_0BI@PLPAKMFI@?$CFd?5bytes?5routing?5cache?6?$AA@ 0064296c     botlib:be_aas_route.obj
 0003:00019988       ??_C@_0BJ@FFMFFMFH@?$CFd?5portal?5cache?5updates?6?$AA@ 00642988     botlib:be_aas_route.obj
 0003:000199a8       ??_C@_0BH@IMJGLBBE@?$CFd?5area?5cache?5updates?6?$AA@ 006429a8     botlib:be_aas_route.obj
 0003:000199c4       ??_C@_0DA@BGBJJEEH@AAS_EnableRoutingArea?3?5areanum?5?$CF@ 006429c4     botlib:be_aas_route.obj
 0003:00019a00       ??_C@_0BP@NKOGJNJJ@reversed?5reachability?5?$CFd?5msec?6?$AA@ 00642a00     botlib:be_aas_route.obj
 0003:00019a28       ??_C@_0CK@NIAJBAAO@area?5?$CFd?5has?5more?5than?5128?5reacha@ 00642a28     botlib:be_aas_route.obj
 0003:00019a5c       __real@3fa66666            00642a5c     botlib:be_aas_route.obj
 0003:00019a60       ??_C@_0BL@NDFLGEFF@area?5travel?5times?5?$CFd?5msec?6?$AA@ 00642a60     botlib:be_aas_route.obj
 0003:00019a80       ??_C@_0BL@PJMGPMOB@AAS_CreateAllRoutingCache?6?$AA@ 00642a80     botlib:be_aas_route.obj
 0003:00019aa0       ??_C@_0CD@PPPFMKKL@written?5?$CFd?5bytes?5of?5routing?5cach@ 00642aa0     botlib:be_aas_route.obj
 0003:00019acc       ??_C@_0BM@DAFGPIEG@?6route?5cache?5written?5to?5?$CFs?6?$AA@ 00642acc     botlib:be_aas_route.obj
 0003:00019af0       ??_C@_0BJ@HCPGIGFI@Unable?5to?5open?5file?3?5?$CFs?6?$AA@ 00642af0     botlib:be_aas_route.obj
 0003:00019b10       ??_C@_0M@FIEIFMAA@maps?1?$CFs?4rcd?$AA@ 00642b10     botlib:be_aas_route.obj
 0003:00019b20       ??_C@_0DE@BIPEEDLP@route?5cache?5dump?5has?5wrong?5versi@ 00642b20     botlib:be_aas_route.obj
 0003:00019b60       ??_C@_0BO@JKLJGLEA@?$CFs?5is?5not?5a?5route?5cache?5dump?6?$AA@ 00642b60     botlib:be_aas_route.obj
 0003:00019b84       ??_C@_0BB@KOMOOHGO@max_routingcache?$AA@ 00642b84     botlib:be_aas_route.obj
 0003:00019b98       ??_C@_04DPPBKBGP@4096?$AA@ 00642b98     botlib:be_aas_route.obj
 0003:00019ba0       ??_C@_0DL@EBFGAMIN@AAS_AreaTravelTimeToGoalArea?3?5go@ 00642ba0     botlib:be_aas_route.obj
 0003:00019be8       ??_C@_0DH@NEAPKHCH@AAS_AreaTravelTimeToGoalArea?3?5ar@ 00642be8     botlib:be_aas_route.obj
 0003:00019c30       ??_C@_0EB@MCKKKILC@AAS_NextAreaReachability?3?5reachn@ 00642c30     botlib:be_aas_route.obj
 0003:00019c80       ??_C@_0DD@INGMKBAA@AAS_NextAreaReachability?3?5areanu@ 00642c80     botlib:be_aas_route.obj
 0003:00019cc0       ??_C@_0CC@HHIKNNJF@area?5?$CFd?5center?5?$CFf?5?$CFf?5?$CFf?5in?5solid@ 00642cc0     botlib:be_aas_route.obj
 0003:00019ce8       ??_C@_0DE@DAMFACPE@AAS_PresenceTypeBoundingBox?3?5unk@ 00642ce8     botlib:be_aas_sample.obj
 0003:00019d28       ??_C@_0N@PMPJOGOE@max_aaslinks?$AA@ 00642d28     botlib:be_aas_sample.obj
 0003:00019d38       ??_C@_04MHGDGELL@6144?$AA@ 00642d38     botlib:be_aas_sample.obj
 0003:00019d40       ??_C@_0BF@KNNPFKDB@empty?5aas?5link?5heap?6?$AA@ 00642d40     botlib:be_aas_sample.obj
 0003:00019d5c       ??_C@_0CC@DPIPPCFJ@AAS_PointAreaNum?3?5aas?5not?5loaded@ 00642d5c     botlib:be_aas_sample.obj
 0003:00019d84       ??_C@_0CG@BJGNCCMO@AAS_AreaCluster?3?5invalid?5area?5nu@ 00642d84     botlib:be_aas_sample.obj
 0003:00019db4       ??_C@_0CL@HEHPOKDE@AAS_AreaPresenceType?3?5invalid?5ar@ 00642db4     botlib:be_aas_sample.obj
 0003:00019de8       __real@bf50624dd2f1a9fc    00642de8     botlib:be_aas_sample.obj
 0003:00019df4       ??_C@_0CG@KBEHGJIJ@AAS_TraceBoundingBox?3?5stack?5over@ 00642df4     botlib:be_aas_sample.obj
 0003:00019e28       __real@bfc0000000000000    00642e28     botlib:be_aas_sample.obj
 0003:00019e34       ??_C@_0CA@MKOIMAGJ@AAS_TraceAreas?3?5stack?5overflow?6?$AA@ 00642e34     botlib:be_aas_sample.obj
 0003:00019e5c       ??_C@_0CA@CLALHCAJ@AAS_LinkEntity?3?5stack?5overflow?6?$AA@ 00642e5c     botlib:be_aas_sample.obj
 0003:00019e84       ??_C@_0CA@PMAJPFFP@AAS_LinkEntity?3?5aas?5not?5loaded?6?$AA@ 00642e84     botlib:be_aas_sample.obj
 0003:00019eac       ??_C@_0CH@FGLCKOMK@AAS_AreaInfo?3?5areanum?5?$CFd?5out?5of?5@ 00642eac     botlib:be_aas_sample.obj
 0003:00019edc       ??_C@_0BF@BABOLIN@rs_maxjumpfallheight?$AA@ 00642edc     botlib:be_aas_move.obj
 0003:00019ef8       ??_C@_03FMBEFOJN@450?$AA@  00642ef8     botlib:be_aas_move.obj
 0003:00019efc       ??_C@_0BB@EFAOPOH@rs_maxfallheight?$AA@ 00642efc     botlib:be_aas_move.obj
 0003:00019f10       ??_C@_0BA@EIMKLMOE@rs_falldamage10?$AA@ 00642f10     botlib:be_aas_move.obj
 0003:00019f24       ??_C@_0P@DKDPFKAP@rs_falldamage5?$AA@ 00642f24     botlib:be_aas_move.obj
 0003:00019f38       ??_C@_0BB@CHLHBMFH@rs_startelevator?$AA@ 00642f38     botlib:be_aas_move.obj
 0003:00019f4c       ??_C@_0L@EDHEJKKK@rs_funcbob?$AA@ 00642f4c     botlib:be_aas_move.obj
 0003:00019f5c       ??_C@_0BI@BFCKOPFL@rs_aircontrolledjumppad?$AA@ 00642f5c     botlib:be_aas_move.obj
 0003:00019f78       ??_C@_0L@BDNLAFIB@rs_jumppad?$AA@ 00642f78     botlib:be_aas_move.obj
 0003:00019f88       ??_C@_0L@NKJOKCB@rs_bfgjump?$AA@ 00642f88     botlib:be_aas_move.obj
 0003:00019f98       ??_C@_0O@KLDHKDPG@rs_rocketjump?$AA@ 00642f98     botlib:be_aas_move.obj
 0003:00019fa8       ??_C@_0N@DFNGJGCB@rs_startjump?$AA@ 00642fa8     botlib:be_aas_move.obj
 0003:00019fb8       ??_C@_0BF@EEBNNHGL@rs_startwalkoffledge?$AA@ 00642fb8     botlib:be_aas_move.obj
 0003:00019fd4       ??_C@_02PONMODAL@70?$AA@   00642fd4     botlib:be_aas_move.obj
 0003:00019fd8       ??_C@_0BA@GKDMJAIB@rs_startgrapple?$AA@ 00642fd8     botlib:be_aas_move.obj
 0003:00019fec       ??_C@_03OCGDPLBD@500?$AA@  00642fec     botlib:be_aas_move.obj
 0003:00019ff0       ??_C@_0P@LHMFFEKL@rs_startcrouch?$AA@ 00642ff0     botlib:be_aas_move.obj
 0003:0001a004       ??_C@_03MHAIKEMP@300?$AA@  00643004     botlib:be_aas_move.obj
 0003:0001a008       ??_C@_0P@PHELIMLJ@rs_barrierjump?$AA@ 00643008     botlib:be_aas_move.obj
 0003:0001a01c       ??_C@_0M@MEFOEMOE@rs_teleport?$AA@ 0064301c     botlib:be_aas_move.obj
 0003:0001a02c       ??_C@_02PNFIDHGF@50?$AA@   0064302c     botlib:be_aas_move.obj
 0003:0001a030       ??_C@_0N@JKBBEPHH@rs_waterjump?$AA@ 00643030     botlib:be_aas_move.obj
 0003:0001a040       ??_C@_0BB@HAKLBAKB@phys_falldelta10?$AA@ 00643040     botlib:be_aas_move.obj
 0003:0001a054       ??_C@_02PPBOIJDM@60?$AA@   00643054     botlib:be_aas_move.obj
 0003:0001a058       ??_C@_0BA@IDFBNLKN@phys_falldelta5?$AA@ 00643058     botlib:be_aas_move.obj
 0003:0001a06c       ??_C@_0N@CKBIGONB@phys_jumpvel?$AA@ 0064306c     botlib:be_aas_move.obj
 0003:0001a07c       ??_C@_03HKPLNFCP@270?$AA@  0064307c     botlib:be_aas_move.obj
 0003:0001a080       ??_C@_0BA@MNKPJHJN@phys_maxbarrier?$AA@ 00643080     botlib:be_aas_move.obj
 0003:0001a094       ??_C@_02NCPIBIBE@33?$AA@   00643094     botlib:be_aas_move.obj
 0003:0001a098       ??_C@_0BC@BGLDKCMB@phys_maxwaterjump?$AA@ 00643098     botlib:be_aas_move.obj
 0003:0001a0b0       ??_C@_0BC@JMNKLJNN@phys_maxsteepness?$AA@ 006430b0     botlib:be_aas_move.obj
 0003:0001a0c8       ??_C@_03IMEEBDJM@0?47?$AA@ 006430c8     botlib:be_aas_move.obj
 0003:0001a0cc       ??_C@_0N@OLIJKDDL@phys_maxstep?$AA@ 006430cc     botlib:be_aas_move.obj
 0003:0001a0dc       ??_C@_02CLJDCEPA@19?$AA@   006430dc     botlib:be_aas_move.obj
 0003:0001a0e0       ??_C@_0BE@LDJBDLBF@phys_swimaccelerate?$AA@ 006430e0     botlib:be_aas_move.obj
 0003:0001a0f8       ??_C@_0BD@NNGBBLHI@phys_airaccelerate?$AA@ 006430f8     botlib:be_aas_move.obj
 0003:0001a110       ??_C@_0BE@FFIPDPFP@phys_walkaccelerate?$AA@ 00643110     botlib:be_aas_move.obj
 0003:0001a128       ??_C@_0BF@PMDEEHNA@phys_maxswimvelocity?$AA@ 00643128     botlib:be_aas_move.obj
 0003:0001a144       ??_C@_03GLMKKOKP@150?$AA@  00643144     botlib:be_aas_move.obj
 0003:0001a148       ??_C@_0BH@IOAMOCDB@phys_maxcrouchvelocity?$AA@ 00643148     botlib:be_aas_move.obj
 0003:0001a164       ??_C@_0BF@KDOBLJFP@phys_maxwalkvelocity?$AA@ 00643164     botlib:be_aas_move.obj
 0003:0001a180       ??_C@_0BB@IJKKLCCL@phys_maxvelocity?$AA@ 00643180     botlib:be_aas_move.obj
 0003:0001a194       ??_C@_03MEIMHAKB@320?$AA@  00643194     botlib:be_aas_move.obj
 0003:0001a198       ??_C@_0BC@IMACIKDE@phys_watergravity?$AA@ 00643198     botlib:be_aas_move.obj
 0003:0001a1b0       ??_C@_03FKNPJMHG@400?$AA@  006431b0     botlib:be_aas_move.obj
 0003:0001a1b4       ??_C@_0BD@IPGBHKKJ@phys_waterfriction?$AA@ 006431b4     botlib:be_aas_move.obj
 0003:0001a1cc       ??_C@_0N@KOBDBIMP@phys_gravity?$AA@ 006431cc     botlib:be_aas_move.obj
 0003:0001a1dc       ??_C@_0P@HGIEEKKG@phys_stopspeed?$AA@ 006431dc     botlib:be_aas_move.obj
 0003:0001a1f0       ??_C@_0O@KFCMEAKP@phys_friction?$AA@ 006431f0     botlib:be_aas_move.obj
 0003:0001a200       __real@4099000000000000    00643200     botlib:be_aas_move.obj
 0003:0001a20c       __real@43fa0000            0064320c     botlib:be_aas_move.obj
 0003:0001a210       __real@41b00000            00643210     botlib:be_aas_move.obj
 0003:0001a218       __real@bfd0000000000000    00643218     botlib:be_aas_move.obj
 0003:0001a224       ??_C@_0BO@BLKMJPOB@PredictMovement?3?5start?5solid?6?$AA@ 00643224     botlib:be_aas_move.obj
 0003:0001a248       __real@c3960000            00643248     botlib:be_aas_move.obj
 0003:0001a24c       ??_C@_0O@IMGOLFOH@leave?5ground?6?$AA@ 0064324c     botlib:be_aas_move.obj
 0003:0001a25c       ??_C@_0BE@ICPCLNOB@?$CFd?5midrange?5area?5?$CFd?$AA@ 0064325c     botlib:be_aas_routealt.obj
 0003:0001a274       __real@3f4ccccd            00643274     botlib:be_aas_routealt.obj
 0003:0001a278       __real@3f8ccccd            00643278     botlib:be_aas_routealt.obj
 0003:0001a27c       ??_C@_0BL@CJDBHLDC@trigger_push?5without?5time?6?$AA@ 0064327c     botlib:be_aas_reach.obj
 0003:0001a29c       ??_C@_0CH@FACFDAAG@trigger_push?5without?5target?5enti@ 0064329c     botlib:be_aas_reach.obj
 0003:0001a2cc       ??_C@_0L@FEPNPAJD@targetname?$AA@ 006432cc     botlib:be_aas_reach.obj
 0003:0001a2dc       ??_C@_06JJLAMBGK@target?$AA@ 006432dc     botlib:be_aas_reach.obj
 0003:0001a2e4       ??_C@_0BK@JKILNG@trigger_push?5start?5solid?6?$AA@ 006432e4     botlib:be_aas_reach.obj
 0003:0001a304       ??_C@_0CH@EKLAGLOI@trigger_push?5not?5in?5any?5jump?5pad@ 00643304     botlib:be_aas_reach.obj
 0003:0001a334       ??_C@_0N@CCJDLJOF@trigger_push?$AA@ 00643334     botlib:be_aas_reach.obj
 0003:0001a344       ??_C@_0CH@PFPOMNKK@AAS_BestReachableArea?3?5aas?5not?5l@ 00643344     botlib:be_aas_reach.obj
 0003:0001a374       ??_C@_0BJ@PIPGKHBD@AAS_MAX_REACHABILITYSIZE?$AA@ 00643374     botlib:be_aas_reach.obj
 0003:0001a394       ??_C@_0CO@CAIPEICN@AAS_AreaReachability?3?5areanum?5?$CFd@ 00643394     botlib:be_aas_reach.obj
 0003:0001a3d0       __real@41124f8000000000    006433d0     botlib:be_aas_reach.obj
 0003:0001a3e0       __real@4049000000000000    006433e0     botlib:be_aas_reach.obj
 0003:0001a3ec       __real@41700000            006433ec     botlib:be_aas_reach.obj
 0003:0001a3f0       __real@43700000            006433f0     botlib:be_aas_reach.obj
 0003:0001a3f4       __real@3f866666            006433f4     botlib:be_aas_reach.obj
 0003:0001a3f8       __real@3f99999a            006433f8     botlib:be_aas_reach.obj
 0003:0001a3fc       __real@c0a00000            006433fc     botlib:be_aas_reach.obj
 0003:0001a400       __real@c1700000            00643400     botlib:be_aas_reach.obj
 0003:0001a404       __real@c2000000            00643404     botlib:be_aas_reach.obj
 0003:0001a408       ??_C@_0M@GAOGDGCN@bot_notteam?$AA@ 00643408     botlib:be_aas_reach.obj
 0003:0001a418       ??_C@_0CC@HLGOOKDO@trigger_multiple?5not?5in?5any?5area@ 00643418     botlib:be_aas_reach.obj
 0003:0001a440       ??_C@_0CK@HGLAMBGC@teleported?5into?5slime?5or?5lava?5at@ 00643440     botlib:be_aas_reach.obj
 0003:0001a474       ??_C@_05FECBCJJD@angle?$AA@ 00643474     botlib:be_aas_reach.obj
 0003:0001a47c       ??_C@_0CG@CEMGMOAN@teleporter?5destination?5?$CI?$CFs?$CJ?5in?5s@ 0064347c     botlib:be_aas_reach.obj
 0003:0001a4ac       ??_C@_0CM@CLBMAOHE@teleporter?5destination?5?$CI?$CFs?$CJ?5with@ 006434ac     botlib:be_aas_reach.obj
 0003:0001a4e0       ??_C@_0CO@NOOGBJFD@teleporter?5without?5misc_teleport@ 006434e0     botlib:be_aas_reach.obj
 0003:0001a518       ??_C@_0DG@PNPCBHNC@trigger_teleport?5at?5?$CF1?40f?5?$CF1?40f?5@ 00643518     botlib:be_aas_reach.obj
 0003:0001a558       ??_C@_0BP@MFGNJEFC@trigger_teleport?5model?5?$DN?5?$CC?$CFs?$CC?6?$AA@ 00643558     botlib:be_aas_reach.obj
 0003:0001a580       ??_C@_0BB@COMMHECA@trigger_teleport?$AA@ 00643580     botlib:be_aas_reach.obj
 0003:0001a594       ??_C@_0CC@NGDNGGBL@target_teleporter?5without?5target@ 00643594     botlib:be_aas_reach.obj
 0003:0001a5bc       ??_C@_0BC@GJLLMIEM@target_teleporter?$AA@ 006435bc     botlib:be_aas_reach.obj
 0003:0001a5d4       ??_C@_0DG@BADEBAMF@trigger_multiple?5at?5?$CF1?40f?5?$CF1?40f?5@ 006435d4     botlib:be_aas_reach.obj
 0003:0001a614       ??_C@_0BP@HIGEPBIN@trigger_multiple?5model?5?$DN?5?$CC?$CFs?$CC?6?$AA@ 00643614     botlib:be_aas_reach.obj
 0003:0001a63c       ??_C@_0BB@LKHFHPEP@trigger_multiple?$AA@ 0064363c     botlib:be_aas_reach.obj
 0003:0001a650       ??_C@_06LNLHEAAG@height?$AA@ 00643650     botlib:be_aas_reach.obj
 0003:0001a658       ??_C@_03MHHCOBAB@lip?$AA@  00643658     botlib:be_aas_reach.obj
 0003:0001a65c       ??_C@_0CF@BDBFALFG@func_plat?5with?5invalid?5model?5num@ 0064365c     botlib:be_aas_reach.obj
 0003:0001a688       ??_C@_0BJ@LDMJPEKH@func_plat?5without?5model?6?$AA@ 00643688     botlib:be_aas_reach.obj
 0003:0001a6a8       __real@43000000            006436a8     botlib:be_aas_reach.obj
 0003:0001a6ac       __real@43400000            006436ac     botlib:be_aas_reach.obj
 0003:0001a6b0       ??_C@_0CC@PCNLLMDF@funcbob?5reach?5from?5area?5?$CFd?5to?5?$CFd@ 006436b0     botlib:be_aas_reach.obj
 0003:0001a6d8       ??_C@_0EN@JGFDJKIH@funcbob?5model?5?$CFd?0?5start?5?$DN?5?$HL?$CF1?41f@ 006436d8     botlib:be_aas_reach.obj
 0003:0001a734       ??_C@_0CI@BJOEBEBE@func_bobbing?5with?5invalid?5model?5@ 00643734     botlib:be_aas_reach.obj
 0003:0001a764       ??_C@_0BM@HGBLGKHA@func_bobbing?5without?5model?6?$AA@ 00643764     botlib:be_aas_reach.obj
 0003:0001a788       __real@4059000000000000    00643788     botlib:be_aas_reach.obj
 0003:0001a794       ??_C@_0CN@NDLDAEHG@found?5a?5trigger_push?5with?5veloci@ 00643794     botlib:be_aas_reach.obj
 0003:0001a7cc       __real@c3fa0000            006437cc     botlib:be_aas_reach.obj
 0003:0001a7d0       __real@40c90fdb            006437d0     botlib:be_aas_reach.obj
 0003:0001a7d4       __real@44fa0000            006437d4     botlib:be_aas_reach.obj
 0003:0001a7d8       ??_C@_0CE@GGDNMGF@area?5?$CFd?5center?5?$CFf?5?$CFf?5?$CFf?5in?5solid@ 006437d8     botlib:be_aas_reach.obj
 0003:0001a804       ??_C@_0BG@HCGBEFOB@?$CFd?5weapon?5jump?5areas?6?$AA@ 00643804     botlib:be_aas_reach.obj
 0003:0001a820       ??_C@_0BF@ILDMGFED@item_invulnerability?$AA@ 00643820     botlib:be_aas_reach.obj
 0003:0001a83c       ??_C@_0L@MMGPPPDM@item_regen?$AA@ 0064383c     botlib:be_aas_reach.obj
 0003:0001a84c       ??_C@_09MDKNIFFH@item_quad?$AA@ 0064384c     botlib:be_aas_reach.obj
 0003:0001a858       ??_C@_0L@JBGNLNGG@weapon_bfg?$AA@ 00643858     botlib:be_aas_reach.obj
 0003:0001a868       ??_C@_0P@FEPBKEBF@weapon_railgun?$AA@ 00643868     botlib:be_aas_reach.obj
 0003:0001a87c       ??_C@_0BB@LBHAKENA@weapon_plasmagun?$AA@ 0064387c     botlib:be_aas_reach.obj
 0003:0001a890       ??_C@_0BB@OCCEAFCD@weapon_lightning?$AA@ 00643890     botlib:be_aas_reach.obj
 0003:0001a8a4       ??_C@_0BG@HJKONAJE@weapon_rocketlauncher?$AA@ 006438a4     botlib:be_aas_reach.obj
 0003:0001a8c0       ??_C@_0BH@DGCCJPLM@weapon_grenadelauncher?$AA@ 006438c0     botlib:be_aas_reach.obj
 0003:0001a8dc       ??_C@_0BB@PBGAONGH@item_health_mega?$AA@ 006438dc     botlib:be_aas_reach.obj
 0003:0001a8f0       ??_C@_0BC@FPPLPJIL@item_armor_combat?$AA@ 006438f0     botlib:be_aas_reach.obj
 0003:0001a908       ??_C@_0BA@EKKMHIH@item_armor_body?$AA@ 00643908     botlib:be_aas_reach.obj
 0003:0001a91c       ??_C@_0BJ@MGEPEAF@calculating?5clusters?4?4?4?6?$AA@ 0064391c     botlib:be_aas_reach.obj
 0003:0001a93c       ??_C@_0BD@NLDCJCCN@?$CF6d?5reach?5jumppad?6?$AA@ 0064393c     botlib:be_aas_reach.obj
 0003:0001a954       ??_C@_0BG@OKEDLCGO@?$CF6d?5reach?5rocketjump?6?$AA@ 00643954     botlib:be_aas_reach.obj
 0003:0001a970       ??_C@_0BD@BELAKEPN@?$CF6d?5reach?5grapple?6?$AA@ 00643970     botlib:be_aas_reach.obj
 0003:0001a988       ??_C@_0BE@BDNPHAGA@?$CF6d?5reach?5elevator?6?$AA@ 00643988     botlib:be_aas_reach.obj
 0003:0001a9a0       ??_C@_0BD@HHNOMEPC@?$CF6d?5reach?5funcbob?6?$AA@ 006439a0     botlib:be_aas_reach.obj
 0003:0001a9b8       ??_C@_0BE@EHCNDFMI@?$CF6d?5reach?5teleport?6?$AA@ 006439b8     botlib:be_aas_reach.obj
 0003:0001a9d0       ??_C@_0BA@LFBCLOPN@?$CF6d?5reach?5walk?6?$AA@ 006439d0     botlib:be_aas_reach.obj
 0003:0001a9e4       ??_C@_0BC@MMGDPEJ@?$CF6d?5reach?5ladder?6?$AA@ 006439e4     botlib:be_aas_reach.obj
 0003:0001a9fc       ??_C@_0BA@DHPFLFAO@?$CF6d?5reach?5jump?6?$AA@ 006439fc     botlib:be_aas_reach.obj
 0003:0001aa10       ??_C@_0BI@OGLBMILK@?$CF6d?5reach?5walkoffledge?6?$AA@ 00643a10     botlib:be_aas_reach.obj
 0003:0001aa2c       ??_C@_0BF@OJADAADG@?$CF6d?5reach?5waterjump?6?$AA@ 00643a2c     botlib:be_aas_reach.obj
 0003:0001aa48       ??_C@_0BD@LOHMPPKO@?$CF6d?5reach?5barrier?6?$AA@ 00643a48     botlib:be_aas_reach.obj
 0003:0001aa60       ??_C@_0BA@OLPIOHAC@?$CF6d?5reach?5step?6?$AA@ 00643a60     botlib:be_aas_reach.obj
 0003:0001aa74       ??_C@_0BH@JLNNLIEH@?$CF6d?5reach?5equal?5floor?6?$AA@ 00643a74     botlib:be_aas_reach.obj
 0003:0001aa90       ??_C@_0BA@PCHABCEJ@?$CF6d?5reach?5swim?6?$AA@ 00643a90     botlib:be_aas_reach.obj
 0003:0001aaa4       ??_C@_0CM@JBJKNNFH@?6please?5wait?5while?5storing?5reach@ 00643aa4     botlib:be_aas_reach.obj
 0003:0001aad8       ??_C@_08PLEDPJBP@?$AN?$CF6?41f?$CF?$CF?$AA@ 00643ad8     botlib:be_aas_reach.obj
 0003:0001aae4       ??_C@_0BN@PENKEBEJ@calculating?5reachability?4?4?4?6?$AA@ 00643ae4     botlib:be_aas_reach.obj
 0003:0001ab08       ??_C@_0N@PBBHPDFE@grapplereach?$AA@ 00643b08     botlib:be_aas_reach.obj
 0003:0001ab18       ??_C@_0BC@HJNNPMHF@forcereachability?$AA@ 00643b18     botlib:be_aas_reach.obj
 0003:0001ab30       ??_C@_0BJ@JBOKGNLE@bsp?5entity?5out?5of?5range?6?$AA@ 00643b30     botlib:be_aas_bspq3.obj
 0003:0001ab50       ??_C@_0M@HBEEPJK@?$CFlf?5?$CFlf?5?$CFlf?$AA@ 00643b50     botlib:be_aas_bspq3.obj
 0003:0001ab60       ??_C@_0L@MIANKDAD@missing?5?$HN?6?$AA@ 00643b60     botlib:be_aas_bspq3.obj
 0003:0001ab70       ??_C@_0BP@POHMEOEC@too?5many?5entities?5in?5BSP?5file?6?$AA@ 00643b70     botlib:be_aas_bspq3.obj
 0003:0001ab98       ??_C@_0M@HDEGANAK@invalid?5?$CFs?6?$AA@ 00643b98     botlib:be_aas_bspq3.obj
 0003:0001aba8       ??_C@_07IJNKCNKH@entdata?$AA@ 00643ba8     botlib:be_aas_bspq3.obj
 0003:0001abb4       ??_C@_0DF@LNJENCAM@GeneticParentsAndChildSelection?3@ 00643bb4     botlib:be_ai_gen.obj
 0003:0001abf4       ??_C@_0DA@GJMCOLIK@GeneticParentsAndChildSelection?3@ 00643bf4     botlib:be_ai_gen.obj
 0003:0001ac30       ??_C@_01EPMOAMKG@$?$AA@    00643c30     botlib:l_script.obj
 0003:0001ac34       ??_C@_01IPJKGB@?$CD?$AA@   00643c34     botlib:l_script.obj
 0003:0001ac38       ??_C@_01OGPIMHDM@?$DP?$AA@ 00643c38     botlib:l_script.obj
 0003:0001ac3c       ??_C@_01PJKLJHI@?$HO?$AA@  00643c3c     botlib:l_script.obj
 0003:0001ac40       ??_C@_01JKBOJNNK@?$FO?$AA@ 00643c40     botlib:l_script.obj
 0003:0001ac44       ??_C@_01MIFGBAGJ@?$CL?$AA@ 00643c44     botlib:l_script.obj
 0003:0001ac48       ??_C@_01FGNFDNOH@?$CF?$AA@ 00643c48     botlib:l_script.obj
 0003:0001ac4c       ??_C@_01NBENCBCI@?$CK?$AA@ 00643c4c     botlib:l_script.obj
 0003:0001ac50       ??_C@_02FNAGIBCP@?4?$CK?$AA@ 00643c50     botlib:l_script.obj
 0003:0001ac54       ??_C@_02HBOOOICD@?9?$DO?$AA@ 00643c54     botlib:l_script.obj
 0003:0001ac58       ??_C@_02FODMEDOG@?$DM?$DM?$AA@ 00643c58     botlib:l_script.obj
 0003:0001ac5c       ??_C@_02GPIOPFAK@?$DO?$DO?$AA@ 00643c5c     botlib:l_script.obj
 0003:0001ac60       ??_C@_02MHEGNOJ@?$FO?$DN?$AA@ 00643c60     botlib:l_script.obj
 0003:0001ac64       ??_C@_02DHLNPPGH@?$HM?$DN?$AA@ 00643c64     botlib:l_script.obj
 0003:0001ac68       ??_C@_02FGJGFEAB@?$CG?$DN?$AA@ 00643c68     botlib:l_script.obj
 0003:0001ac6c       ??_C@_02BAABKJLB@?9?9?$AA@ 00643c6c     botlib:l_script.obj
 0003:0001ac70       ??_C@_02ECNGHCIF@?$CL?$CL?$AA@ 00643c70     botlib:l_script.obj
 0003:0001ac74       ??_C@_02FKMDLLOA@?9?$DN?$AA@ 00643c74     botlib:l_script.obj
 0003:0001ac78       ??_C@_02FOEOMHFC@?$CL?$DN?$AA@ 00643c78     botlib:l_script.obj
 0003:0001ac7c       ??_C@_02FENAOKFI@?$CF?$DN?$AA@ 00643c7c     botlib:l_script.obj
 0003:0001ac80       ??_C@_02FJEHGPIO@?1?$DN?$AA@ 00643c80     botlib:l_script.obj
 0003:0001ac84       ??_C@_02FPIMKNGF@?$CK?$DN?$AA@ 00643c84     botlib:l_script.obj
 0003:0001ac88       ??_C@_02FDNJECIE@?$CB?$DN?$AA@ 00643c88     botlib:l_script.obj
 0003:0001ac8c       ??_C@_02EGOFBIJA@?$DN?$DN?$AA@ 00643c8c     botlib:l_script.obj
 0003:0001ac90       ??_C@_02EHCHHCKH@?$DM?$DN?$AA@ 00643c90     botlib:l_script.obj
 0003:0001ac94       ??_C@_02EEKDKGMJ@?$DO?$DN?$AA@ 00643c94     botlib:l_script.obj
 0003:0001ac98       ??_C@_02NONPIBCD@?$HM?$HM?$AA@ 00643c98     botlib:l_script.obj
 0003:0001ac9c       ??_C@_02PPKAJPJL@?$CG?$CG?$AA@ 00643c9c     botlib:l_script.obj
 0003:0001aca0       ??_C@_03CDNPDDLA@?$DM?$DM?$DN?$AA@ 00643ca0     botlib:l_script.obj
 0003:0001aca4       ??_C@_03IKFCCPFF@?$DO?$DO?$DN?$AA@ 00643ca4     botlib:l_script.obj
 0003:0001aca8       ??_C@_0BD@CDGAFDMK@unkown?5punctuation?$AA@ 00643ca8     botlib:l_script.obj
 0003:0001acc0       ??_C@_0BE@LNBHEDIG@unknown?5escape?5char?$AA@ 00643cc0     botlib:l_script.obj
 0003:0001acd8       ??_C@_0CE@DDEEFDJP@too?5large?5value?5in?5escape?5charac@ 00643cd8     botlib:l_script.obj
 0003:0001ad04       ??_C@_0BJ@FPJNGGBK@newline?5inside?5string?5?$CFs?$AA@ 00643d04     botlib:l_script.obj
 0003:0001ad24       ??_C@_0BH@PEPCDKK@missing?5trailing?5quote?$AA@ 00643d24     botlib:l_script.obj
 0003:0001ad40       ??_C@_0CC@MBLDNBAM@string?5longer?5than?5MAX_TOKEN?5?$DN?5?$CF@ 00643d40     botlib:l_script.obj
 0003:0001ad68       ??_C@_0CA@MNDCIFOG@name?5longer?5than?5MAX_TOKEN?5?$DN?5?$CFd?$AA@ 00643d68     botlib:l_script.obj
 0003:0001ad90       ??_C@_0CC@HHKGPIHJ@number?5longer?5than?5MAX_TOKEN?5?$DN?5?$CF@ 00643d90     botlib:l_script.obj
 0003:0001adb8       ??_C@_0CJ@GOJFKF@binary?5number?5longer?5than?5MAX_TO@ 00643db8     botlib:l_script.obj
 0003:0001adec       ??_C@_0CO@IEAAEMOC@hexadecimal?5number?5longer?5than?5M@ 00643dec     botlib:l_script.obj
 0003:0001ae24       ??_C@_0CI@KHNHEENA@too?5many?5characters?5in?5literal?0?5@ 00643e24     botlib:l_script.obj
 0003:0001ae54       ??_C@_0BO@LNDMFPAB@end?5of?5file?5before?5trailing?5?8?$AA@ 00643e54     botlib:l_script.obj
 0003:0001ae78       ??_C@_0CL@IOHHDOB@primitive?5token?5longer?5than?5MAX_@ 00643e78     botlib:l_script.obj
 0003:0001aeac       ??_C@_0BB@HHMOOKCN@can?8t?5read?5token?$AA@ 00643eac     botlib:l_script.obj
 0003:0001aec0       ??_C@_0BP@BHDDOFIL@BUG?3?5wrong?5punctuation?5subtype?$AA@ 00643ec0     botlib:l_script.obj
 0003:0001aee8       ??_C@_0CA@NFDKBKI@expected?5float?5value?0?5found?5?$CFs?6?$AA@ 00643ee8     botlib:l_script.obj
 0003:0001af10       __real@bff0000000000000    00643f10     botlib:l_script.obj
 0003:0001af1c       ??_C@_0CC@CKEDEGB@expected?5integer?5value?0?5found?5?$CFs@ 00643f1c     botlib:l_script.obj
 0003:0001af44       ??_C@_05GFOLEBJA@?$CFs?1?$CFs?$AA@ 00643f44     botlib:l_script.obj
 0003:0001af4c       ??_C@_0BP@LFCOICHJ@value?5?$CFd?5out?5of?5range?5?$FL?$CFf?0?5?$CFf?$FN?$AA@ 00643f4c     botlib:l_struct.obj
 0003:0001af74       ??_C@_0BP@CBDFEHDO@value?5?$CFd?5out?5of?5range?5?$FL?$CFd?0?5?$CFd?$FN?$AA@ 00643f74     botlib:l_struct.obj
 0003:0001af9c       ??_C@_0BM@MDDDOOGF@float?5out?5of?5range?5?$FL?$CFf?0?5?$CFf?$FN?$AA@ 00643f9c     botlib:l_struct.obj
 0003:0001afc0       ??_C@_0BB@EFFDGMEA@unexpected?5float?$AA@ 00643fc0     botlib:l_struct.obj
 0003:0001afd4       ??_C@_0BK@IFJFBCJ@expected?5number?0?5found?5?$CFs?$AA@ 00643fd4     botlib:l_struct.obj
 0003:0001aff4       ??_C@_0BK@KDOFCJEJ@unexpected?5punctuation?5?$CFs?$AA@ 00643ff4     botlib:l_struct.obj
 0003:0001b014       ??_C@_0CC@POKHHIP@expected?5unsigned?5value?0?5found?5?$CF@ 00644014     botlib:l_struct.obj
 0003:0001b03c       ??_C@_0BL@DCLIMJHG@expected?5a?5comma?0?5found?5?$CFs?$AA@ 0064403c     botlib:l_struct.obj
 0003:0001b05c       ??_C@_0BO@KOGKDPOB@BUG?3?5no?5sub?5structure?5defined?$AA@ 0064405c     botlib:l_struct.obj
 0003:0001b080       ??_C@_0BL@GLPBJIMC@unknown?5structure?5field?5?$CFs?$AA@ 00644080     botlib:l_struct.obj
 0003:0001b0a0       ??_C@_01GPOEFGEJ@?7?$AA@   006440a0     botlib:l_struct.obj
 0003:0001b0a4       ??_C@_03LFNJCDHL@?$HN?$AN?6?$AA@ 006440a4     botlib:l_struct.obj
 0003:0001b0a8       ??_C@_03MOCCBCKP@?$CFs?7?$AA@ 006440a8     botlib:l_struct.obj
 0003:0001b0ac       ??_C@_03JALCHMKH@?$HL?$AN?6?$AA@ 006440ac     botlib:l_struct.obj
 0003:0001b0b0       ??_C@_0BI@DBJMMGKJ@can?8t?5seek?5to?5aas?5lump?6?$AA@ 006440b0     botlib:be_aas_file.obj
 0003:0001b0cc       ??_C@_0CA@GEEFHEDJ@AAS?5file?5not?5sequentially?5read?6?$AA@ 006440cc     botlib:be_aas_file.obj
 0003:0001b0f4       ??_C@_0BM@NDIFACPH@aas?5file?5?$CFs?5is?5out?5of?5date?6?$AA@ 006440f4     botlib:be_aas_file.obj
 0003:0001b118       ??_C@_0CD@IPFFEFDG@aas?5file?5?$CFs?5is?5version?5?$CFi?0?5not?5?$CF@ 00644118     botlib:be_aas_file.obj
 0003:0001b144       ??_C@_0BH@HDNIDKDF@?$CFs?5is?5not?5an?5AAS?5file?6?$AA@ 00644144     botlib:be_aas_file.obj
 0003:0001b160       ??_C@_0P@MNCIOHOD@can?8t?5open?5?$CFs?6?$AA@ 00644160     botlib:be_aas_file.obj
 0003:0001b174       ??_C@_0BD@DAIGMAGG@trying?5to?5load?5?$CFs?6?$AA@ 00644174     botlib:be_aas_file.obj
 0003:0001b18c       ??_C@_0BC@CBHACCGB@error?5opening?5?$CFs?6?$AA@ 0064418c     botlib:be_aas_file.obj
 0003:0001b1a4       ??_C@_0M@JKCPKPL@writing?5?$CFs?6?$AA@ 006441a4     botlib:be_aas_file.obj
 0003:0001b1b4       ??_C@_0BF@OFBIEKCH@AAS?5data?5optimized?4?6?$AA@ 006441b4     botlib:be_aas_optimize.obj
 0003:0001b1d0       ??_C@_0BI@KOKCMCHN@AAS_MAX_PORTALINDEXSIZE?$AA@ 006441d0     botlib:be_aas_cluster.obj
 0003:0001b1ec       ??_C@_0DG@OCGFOOPH@portal?5area?5?$CFd?5is?5seperating?5mor@ 006441ec     botlib:be_aas_cluster.obj
 0003:0001b22c       ??_C@_0BF@NHJNBHCO@no?5portal?5of?5area?5?$CFd?$AA@ 0064422c     botlib:be_aas_cluster.obj
 0003:0001b248       ??_C@_0CL@KPDIAOMF@cluster?5?$CFd?5touched?5cluster?5?$CFd?5at@ 00644248     botlib:be_aas_cluster.obj
 0003:0001b27c       ??_C@_0CO@OFKPJKFO@AAS_FloodClusterAreas_r?3?5areanum@ 0064427c     botlib:be_aas_cluster.obj
 0003:0001b2b4       ??_C@_0BB@KELFLMDE@AAS_MAX_CLUSTERS?$AA@ 006442b4     botlib:be_aas_cluster.obj
 0003:0001b2c8       ??_C@_0BA@ILOODELG@AAS_MAX_PORTALS?$AA@ 006442c8     botlib:be_aas_cluster.obj
 0003:0001b2dc       ??_C@_0BA@DKADLPCK@MAX_PORTALAREAS?$AA@ 006442dc     botlib:be_aas_cluster.obj
 0003:0001b2f0       ??_C@_0BG@IDPPIMFG@possible?5portal?3?5?$CFd?$AN?6?$AA@ 006442f0     botlib:be_aas_cluster.obj
 0003:0001b30c       ??_C@_0BM@COFAHJCM@?$AN?$CF6d?5possible?5portal?5areas?6?$AA@ 0064430c     botlib:be_aas_cluster.obj
 0003:0001b330       ??_C@_0CF@HNGHLOBA@portal?5area?5?$CFd?5has?5no?5back?5clust@ 00644330     botlib:be_aas_cluster.obj
 0003:0001b35c       ??_C@_0CG@PPPPLOAP@portal?5area?5?$CFd?5has?5no?5front?5clus@ 0064435c     botlib:be_aas_cluster.obj
 0003:0001b38c       ??_C@_0BJ@EOFLMLFD@?$CF6d?5forced?5portal?5areas?6?$AA@ 0064438c     botlib:be_aas_cluster.obj
 0003:0001b3ac       ??_C@_0CC@ECEDAPMJ@area?5?$CFd?5is?5a?5forced?5portal?5area?$AN@ 006443ac     botlib:be_aas_cluster.obj
 0003:0001b3d4       ??_C@_0DB@NFDNPBEJ@?$CF6i?5AAS?5memory?1CPU?5usage?5?$CIthe?5lo@ 006443d4     botlib:be_aas_cluster.obj
 0003:0001b410       ??_C@_0BO@NNGLPCLI@?$CF6i?5total?5reachability?5areas?6?$AA@ 00644410     botlib:be_aas_cluster.obj
 0003:0001b434       ??_C@_0CG@PPPOPFBK@cluster?5?$CFd?5has?5?$CFd?5reachability?5a@ 00644434     botlib:be_aas_cluster.obj
 0003:0001b464       ??_C@_0BG@IEMHKDCK@?$CF6d?5clusters?5created?6?$AA@ 00644464     botlib:be_aas_cluster.obj
 0003:0001b480       ??_C@_0BF@HJCLOJDI@?$CF6d?5portals?5created?6?$AA@ 00644480     botlib:be_aas_cluster.obj
 0003:0001b49c       ??_C@_0BF@LLJPMAL@portal?5?$CFd?3?5area?5?$CFd?$AN?6?$AA@ 0064449c     botlib:be_aas_cluster.obj
 0003:0001b4b8       ??_C@_04HHNGKENO@?$AN?$CF6d?$AA@ 006444b8     botlib:be_aas_cluster.obj
 0003:0001b4c0       ??_C@_0BK@CDJHMKCM@?$AN?$CF6d?5removed?5portal?5areas?$AA@ 006444c0     botlib:be_aas_cluster.obj
 0003:0001b4e0       ??_C@_0BA@BADKHCEE@forceclustering?$AA@ 006444e0     botlib:be_aas_cluster.obj
 0003:0001b4f4       ??_C@_02PHMGELLB@?6?6?$AA@ 006444f4     LIBCMTD:assert.obj
 0003:0001b4f8       ??_C@_0CF@GOGNBNAK@Microsoft?5Visual?5C?$CL?$CL?5Runtime?5Lib@ 006444f8     LIBCMTD:assert.obj
 0003:0001b524       ??_C@_0DN@EBBNMLME@?$CIPress?5Retry?5to?5debug?5the?5applic@ 00644524     LIBCMTD:assert.obj
 0003:0001b570       ??_C@_0HA@OJHAGA@For?5information?5on?5how?5your?5prog@ 00644570     LIBCMTD:assert.obj
 0003:0001b5f8       ??_C@_0N@MEECIJGN@Expression?3?5?$AA@ 006445f8     LIBCMTD:assert.obj
 0003:0001b608       ??_C@_06FIEBOLOH@Line?3?5?$AA@ 00644608     LIBCMTD:assert.obj
 0003:0001b610       ??_C@_06IGPBOHMJ@File?3?5?$AA@ 00644610     LIBCMTD:assert.obj
 0003:0001b618       ??_C@_0BH@DNAGHKFM@?$DMprogram?5name?5unknown?$DO?$AA@ 00644618     LIBCMTD:assert.obj
 0003:0001b634       ??_C@_09KLGCKDOD@Program?3?5?$AA@ 00644634     LIBCMTD:assert.obj
 0003:0001b640       ??_C@_0BC@LAIDCHCH@Assertion?5failed?$CB?$AA@ 00644640     LIBCMTD:assert.obj
 0003:0001b730       ??_C@_0DA@KHEJFFIK@f?3?2vs70builds?23077?2vc?2crtbld?2crt@ 00644730     LIBCMTD:vsnprint.obj
 0003:0001b76c       ??_C@_0P@NHGFNCDP@format?5?$CB?$DN?5NULL?$AA@ 0064476c     LIBCMTD:vsnprint.obj
 0003:0001b780       ??_C@_08EFOMGECL@printf?4c?$AA@ 00644780     LIBCMTD:printf.obj
 0003:0001b7a0       ??_C@_08MPLNDKMI@sscanf?4c?$AA@ 006447a0     LIBCMTD:sscanf.obj
 0003:0001b7ac       ??_C@_0P@NFGNABCI@string?5?$CB?$DN?5NULL?$AA@ 006447ac     LIBCMTD:sscanf.obj
 0003:0001b7c0       ??_C@_09FNBBCGGI@sprintf?4c?$AA@ 006447c0     LIBCMTD:sprintf.obj
 0003:0001b7cc       ??_C@_09JDJPONGG@asctime?4c?$AA@ 006447cc     LIBCMTD:asctime.obj
 0003:0001b7d8       ??_C@_0L@MDILGHEC@vsprintf?4c?$AA@ 006447d8     LIBCMTD:vsprintf.obj
 0003:0001b7e8       ??_C@_06PJIGMIJB@Client?$AA@ 006447e8     LIBCMTD:dbgheap.obj
 0003:0001b7f0       ??_C@_06KMEJCCGM@Ignore?$AA@ 006447f0     LIBCMTD:dbgheap.obj
 0003:0001b7f8       ??_C@_03OGPFLFLO@CRT?$AA@  006447f8     LIBCMTD:dbgheap.obj
 0003:0001b7fc       ??_C@_06EFAGIKOH@Normal?$AA@ 006447fc     LIBCMTD:dbgheap.obj
 0003:0001b804       ??_C@_04HJMOFLDF@Free?$AA@ 00644804     LIBCMTD:dbgheap.obj
 0003:0001b820       ??_C@_0DC@JEMAGEKG@Error?3?5memory?5allocation?3?5bad?5me@ 00644820     LIBCMTD:dbgheap.obj
 0003:0001b85c       ??_C@_0CF@BICKFLAF@Invalid?5allocation?5size?3?5?$CFIu?5byt@ 0064485c     LIBCMTD:dbgheap.obj
 0003:0001b888       ??_C@_0CB@CCLOLAHO@Client?5hook?5allocation?5failure?4?6@ 00644888     LIBCMTD:dbgheap.obj
 0003:0001b8b0       ??_C@_0DF@BBEGIFEK@Client?5hook?5allocation?5failure?5a@ 006448b0     LIBCMTD:dbgheap.obj
 0003:0001b8f0       ??_C@_09DPMMACIH@dbgheap?4c?$AA@ 006448f0     LIBCMTD:dbgheap.obj
 0003:0001b8fc       ??_C@_0BC@FKEPGOPH@_CrtCheckMemory?$CI?$CJ?$AA@ 006448fc     LIBCMTD:dbgheap.obj
 0003:0001b928       ??_C@_0BK@DJDKJKNJ@_pFirstBlock?5?$DN?$DN?5pOldBlock?$AA@ 00644928     LIBCMTD:dbgheap.obj
 0003:0001b948       ??_C@_0BJ@PGMLBCKP@_pLastBlock?5?$DN?$DN?5pOldBlock?$AA@ 00644948     LIBCMTD:dbgheap.obj
 0003:0001b968       ??_C@_0DC@LIEEBBFH@fRealloc?5?$HM?$HM?5?$CI?$CBfRealloc?5?$CG?$CG?5pNewBl@ 00644968     LIBCMTD:dbgheap.obj
 0003:0001b9a8       ??_C@_0EF@BKJNHFDP@pOldBlock?9?$DOnLine?5?$DN?$DN?5IGNORE_LINE?5@ 006449a8     LIBCMTD:dbgheap.obj
 0003:0001b9fc       ??_C@_0CC@MCCNOMLK@_CrtIsValidHeapPointer?$CIpUserData@ 006449fc     LIBCMTD:dbgheap.obj
 0003:0001ba28       ??_C@_0EM@LGFLMAGJ@The?5Block?5at?50x?$CFp?5was?5allocated?5@ 00644a28     LIBCMTD:dbgheap.obj
 0003:0001ba84       ??_C@_0CO@KPNFNEPA@Allocation?5too?5large?5or?5negative@ 00644a84     LIBCMTD:dbgheap.obj
 0003:0001babc       ??_C@_0CE@DOFMDOL@Client?5hook?5re?9allocation?5failur@ 00644abc     LIBCMTD:dbgheap.obj
 0003:0001bae8       ??_C@_0DI@KKJPDPGM@Client?5hook?5re?9allocation?5failur@ 00644ae8     LIBCMTD:dbgheap.obj
 0003:0001bb50       ??_C@_0BG@JDINNDDC@_pFirstBlock?5?$DN?$DN?5pHead?$AA@ 00644b50     LIBCMTD:dbgheap.obj
 0003:0001bb6c       ??_C@_0BF@LMGMGAEG@_pLastBlock?5?$DN?$DN?5pHead?$AA@ 00644b6c     LIBCMTD:dbgheap.obj
 0003:0001bb88       ??_C@_0BO@LGCGBMOH@pHead?9?$DOnBlockUse?5?$DN?$DN?5nBlockUse?$AA@ 00644b88     LIBCMTD:dbgheap.obj
 0003:0001bbac       ??_C@_0DN@GKKPDMLN@pHead?9?$DOnLine?5?$DN?$DN?5IGNORE_LINE?5?$CG?$CG?5p@ 00644bac     LIBCMTD:dbgheap.obj
 0003:0001bbf8       ??_C@_0CI@CMGHMNIC@DAMAGE?3?5after?5?$CFhs?5block?5?$CI?$CD?$CFd?$CJ?5at@ 00644bf8     LIBCMTD:dbgheap.obj
 0003:0001bc28       ??_C@_0CJ@OHOOBLKI@DAMAGE?3?5before?5?$CFhs?5block?5?$CI?$CD?$CFd?$CJ?5a@ 00644c28     LIBCMTD:dbgheap.obj
 0003:0001bc5c       ??_C@_0CH@IAGMNLOM@_BLOCK_TYPE_IS_VALID?$CIpHead?9?$DOnBlo@ 00644c5c     LIBCMTD:dbgheap.obj
 0003:0001bc8c       ??_C@_0BL@KEIPLFAC@Client?5hook?5free?5failure?4?6?$AA@ 00644c8c     LIBCMTD:dbgheap.obj
 0003:0001bcb0       ??_C@_0EJ@HEIBCIMJ@The?5Block?5at?50x?$CFp?5was?5allocated?5@ 00644cb0     LIBCMTD:dbgheap.obj
 0003:0001bd28       ??_C@_0CI@JMLBEDHJ@?$CFhs?5located?5at?50x?$CFp?5is?5?$CFIu?5bytes@ 00644d28     LIBCMTD:dbgheap.obj
 0003:0001bd58       ??_C@_0CA@FGFAGAOM@?$CFhs?5allocated?5at?5file?5?$CFhs?$CI?$CFd?$CJ?4?6?$AA@ 00644d58     LIBCMTD:dbgheap.obj
 0003:0001bd80       ??_C@_0CH@JKKAOBEK@DAMAGE?3?5on?5top?5of?5Free?5block?5at?5@ 00644d80     LIBCMTD:dbgheap.obj
 0003:0001bdb0       ??_C@_07OHKEFPKJ@DAMAGED?$AA@ 00644db0     LIBCMTD:dbgheap.obj
 0003:0001bdbc       ??_C@_0CL@HNNNMKMJ@_heapchk?5fails?5with?5unknown?5retu@ 00644dbc     LIBCMTD:dbgheap.obj
 0003:0001bdf0       ??_C@_0CC@MFFCHFHO@_heapchk?5fails?5with?5_HEAPBADPTR?4@ 00644df0     LIBCMTD:dbgheap.obj
 0003:0001be18       ??_C@_0CC@MJGLGBDG@_heapchk?5fails?5with?5_HEAPBADEND?4@ 00644e18     LIBCMTD:dbgheap.obj
 0003:0001be40       ??_C@_0CD@CPKEAPBD@_heapchk?5fails?5with?5_HEAPBADNODE@ 00644e40     LIBCMTD:dbgheap.obj
 0003:0001be6c       ??_C@_0CE@MKKHMBMK@_heapchk?5fails?5with?5_HEAPBADBEGI@ 00644e6c     LIBCMTD:dbgheap.obj
 0003:0001bed8       ??_C@_0CB@EAAIGELO@Bad?5memory?5block?5found?5at?50x?$CFp?4?6@ 00644ed8     LIBCMTD:dbgheap.obj
 0003:0001bf00       ??_C@_0CI@KDKEAJEJ@_CrtMemCheckPoint?3?5NULL?5state?5po@ 00644f00     LIBCMTD:dbgheap.obj
 0003:0001bf40       ??_C@_0CI@ENCLCMLG@_CrtMemDifference?3?5NULL?5state?5po@ 00644f40     LIBCMTD:dbgheap.obj
 0003:0001bf70       ??_C@_0BH@GFGKJDCO@Object?5dump?5complete?4?6?$AA@ 00644f70     LIBCMTD:dbgheap.obj
 0003:0001bf8c       ??_C@_0DA@MDLBNIBM@crt?5block?5at?50x?$CFp?0?5subtype?5?$CFx?0?5?$CF@ 00644f8c     LIBCMTD:dbgheap.obj
 0003:0001bfc8       ??_C@_0CH@FAGDDGPN@normal?5block?5at?50x?$CFp?0?5?$CFIu?5bytes?5@ 00644fc8     LIBCMTD:dbgheap.obj
 0003:0001bff8       ??_C@_0DD@GHNAAKBB@client?5block?5at?50x?$CFp?0?5subtype?5?$CFx@ 00644ff8     LIBCMTD:dbgheap.obj
 0003:0001c038       ??_C@_06PKLGBFGM@?$HL?$CFld?$HN?5?$AA@ 00645038     LIBCMTD:dbgheap.obj
 0003:0001c040       ??_C@_0L@JMEFFCCJ@?$CFhs?$CI?$CFd?$CJ?5?3?5?$AA@ 00645040     LIBCMTD:dbgheap.obj
 0003:0001c050       ??_C@_0BE@OIEFNFL@?$CDFile?5Error?$CD?$CI?$CFd?$CJ?5?3?5?$AA@ 00645050     LIBCMTD:dbgheap.obj
 0003:0001c068       ??_C@_0BE@KCIPKCIA@Dumping?5objects?5?9?$DO?6?$AA@ 00645068     LIBCMTD:dbgheap.obj
 0003:0001c090       ??_C@_0BA@HJBKCELP@?5Data?3?5?$DM?$CFs?$DO?5?$CFs?6?$AA@ 00645090     LIBCMTD:dbgheap.obj
 0003:0001c0a4       ??_C@_05MKKEDADM@?$CF?42X?5?$AA@ 006450a4     LIBCMTD:dbgheap.obj
 0003:0001c0ac       ??_C@_0BI@JBFPOEJA@Detected?5memory?5leaks?$CB?6?$AA@ 006450ac     LIBCMTD:dbgheap.obj
 0003:0001c0c8       ??_C@_0BP@DEDHGGGI@Total?5allocations?3?5?$CFId?5bytes?4?6?$AA@ 006450c8     LIBCMTD:dbgheap.obj
 0003:0001c0f0       ??_C@_0CB@BLHDAFNE@Largest?5number?5used?3?5?$CFId?5bytes?4?6@ 006450f0     LIBCMTD:dbgheap.obj
 0003:0001c118       ??_C@_0BO@DACNIABB@?$CFId?5bytes?5in?5?$CFId?5?$CFhs?5Blocks?4?6?$AA@ 00645118     LIBCMTD:dbgheap.obj
 0003:0001c13c       ??_C@_0CC@GFBJAAAH@?$CI?$CCoffset?5must?5be?5within?5size?$CC?0?50@ 0064513c     LIBCMTD:dbgheap.obj
 0003:0001c164       ??_C@_0CF@PGBEDOC@?$CI?$CCalignment?5must?5be?5a?5power?5of?52@ 00645164     LIBCMTD:dbgheap.obj
 0003:0001c190       ??_C@_0DL@PGHMMKNE@Damage?5before?50x?$CFp?5which?5was?5all@ 00645190     LIBCMTD:dbgheap.obj
 0003:0001c1d8       ??_C@_0EI@NDNJMAJK@The?5block?5at?50x?$CFp?5was?5not?5alloca@ 006451d8     LIBCMTD:dbgheap.obj
 0003:0001c230       ??_C@_0EF@PGELACII@The?5block?5at?50x?$CFp?5was?5not?5alloca@ 00645230     LIBCMTD:dbgheap.obj
 0003:0001c284       ??_C@_09KGBNCNDN@setvbuf?4c?$AA@ 00645284     LIBCMTD:setvbuf.obj
 0003:0001c290       ??_C@_0M@CMNAFCJK@str?5?$CB?$DN?5NULL?$AA@ 00645290     LIBCMTD:setvbuf.obj
 0003:0001c2b0       ??_C@_07MIBGAGEE@fseek?4c?$AA@ 006452b0     LIBCMTD:fseek.obj
 0003:0001c2bc       ??_C@_0P@FELNCIKG@stream?5?$CB?$DN?5NULL?$AA@ 006452bc     LIBCMTD:fseek.obj
 0003:0001c2e0       ??_C@_07JNHGGCAC@ftell?4c?$AA@ 006452e0     LIBCMTD:ftell.obj
 0003:0001c300       ??_C@_08BDNGOBJJ@fclose?4c?$AA@ 00645300     LIBCMTD:fclose.obj
 0003:0001c320       ??_C@_0BC@LDFCGPMK@?$CKmode?5?$CB?$DN?5_T?$CI?8?20?8?$CJ?$AA@ 00645320     LIBCMTD:fopen.obj
 0003:0001c338       ??_C@_0N@HDDIJGHA@mode?5?$CB?$DN?5NULL?$AA@ 00645338     LIBCMTD:fopen.obj
 0003:0001c348       ??_C@_0BC@JKMANOLD@?$CKfile?5?$CB?$DN?5_T?$CI?8?20?8?$CJ?$AA@ 00645348     LIBCMTD:fopen.obj
 0003:0001c360       ??_C@_07MKNJDOE@fopen?4c?$AA@ 00645360     LIBCMTD:fopen.obj
 0003:0001c36c       ??_C@_0N@MBAPGNHG@file?5?$CB?$DN?5NULL?$AA@ 0064536c     LIBCMTD:fopen.obj
 0003:0001c3dc       ??_C@_09JMJGGMME@fprintf?4c?$AA@ 006453dc     LIBCMTD:fprintf.obj
 0003:0001c418       ??_C@_0P@MIGLKIOC@CorExitProcess?$AA@ 00645418     LIBCMTD:crt0dat.obj
 0003:0001c42c       ??_C@_0M@MBOPBNBK@mscoree?4dll?$AA@ 0064542c     LIBCMTD:crt0dat.obj
 0003:0001c488       ??_C@_0BO@GNIAFIKK@Unknown?5Runtime?5Check?5Error?6?$AN?$AA@ 00645488     LIBCMTD:error.obj
 0003:0001c4ac       ??_C@_0DG@HKJMLLLP@A?5local?5variable?5was?5used?5before@ 006454ac     LIBCMTD:error.obj
 0003:0001c4ec       ??_C@_0BN@FFOINMNJ@Stack?5memory?5was?5corrupted?6?$AN?$AA@ 006454ec     LIBCMTD:error.obj
 0003:0001c510       ??_C@_0BBN@GPMLNJCF@A?5cast?5to?5a?5smaller?5data?5type?5ha@ 00645510     LIBCMTD:error.obj
 0003:0001c668       ??_C@_0NN@NGPKDKPD@The?5value?5of?5ESP?5was?5not?5properl@ 00645668     LIBCMTD:error.obj
 0003:0001c774       ??_C@_0CA@IODNCDPG@Run?9Time?5Check?5Failure?5?$CD?$CFd?5?9?5?$CFs?$AA@ 00645774     LIBCMTD:error.obj
 0003:0001c7c0       ??_C@_0L@CJCNHJJG@?6?$ANModule?3?7?$AA@ 006457c0     LIBCMTD:error.obj
 0003:0001c7d0       ??_C@_08GJEJCAJD@?6?$ANLine?3?7?$AA@ 006457d0     LIBCMTD:error.obj
 0003:0001c7dc       ??_C@_0CI@INCLAPNB@Invalid?5pointer?5was?5assigned?5at?6@ 006457dc     LIBCMTD:error.obj
 0003:0001c80c       ??_C@_0BB@JEGFEAAM@?8?5was?5corrupted?4?$AA@ 0064580c     LIBCMTD:error.obj
 0003:0001c820       ??_C@_0BM@FGFAMDLF@Stack?5around?5the?5variable?5?8?$AA@ 00645820     LIBCMTD:error.obj
 0003:0001c844       ??_C@_0DA@BEGFPCGG@A?5variable?5is?5being?5used?5without@ 00645844     LIBCMTD:error.obj
 0003:0001c880       ??_C@_0CH@LOIIHGKM@?8?5is?5being?5used?5without?5being?5de@ 00645880     LIBCMTD:error.obj
 0003:0001c8b0       ??_C@_0P@HLKMHJCG@The?5variable?5?8?$AA@ 006458b0     LIBCMTD:error.obj
 0003:0001c8c4       ??_C@_0BC@KNBMEBEO@IsDebuggerPresent?$AA@ 006458c4     LIBCMTD:error.obj
 0003:0001c8dc       ??_C@_0N@HAOHNMDE@Kernel32?4dll?$AA@ 006458dc     LIBCMTD:error.obj
 0003:0001c900       ??_C@_08FJKOLIED@putenv?4c?$AA@ 00645900     LIBCMTD:putenv.obj
 0003:0001c90c       ??_C@_0L@CAMCNOO@vfprintf?4c?$AA@ 0064590c     LIBCMTD:vfprintf.obj
 0003:0001c930       __real@4150017ec0000000    00645930     LIBCMTD:testfdiv.obj
 0003:0001c940       __real@4147ffff80000000    00645940     LIBCMTD:testfdiv.obj
 0003:0001c94c       ??_C@_0BK@NHEOCAHP@IsProcessorFeaturePresent?$AA@ 0064594c     LIBCMTD:testfdiv.obj
 0003:0001c96c       ??_C@_08CPNIBGIE@KERNEL32?$AA@ 0064596c     LIBCMTD:testfdiv.obj
 0003:0001c978       ??_C@_05KLBDPFGC@e?$CL000?$AA@ 00645978     LIBCMTD:cvt.obj
 0003:0001c980       ??_C@_09BLOOPMDK@isctype?4c?$AA@ 00645980     LIBCMTD:isctype.obj
 0003:0001c98c       ??_C@_0BJ@IAKBGELC@?$CIunsigned?$CJ?$CIc?5?$CL?51?$CJ?5?$DM?$DN?5256?$AA@ 0064598c     LIBCMTD:isctype.obj
 0003:0001cb7c       ??_C@_07LCBHPJJN@LC_TIME?$AA@ 00645b7c     LIBCMTD:setlocal.obj
 0003:0001cb88       ??_C@_0L@DLHIECNL@LC_NUMERIC?$AA@ 00645b88     LIBCMTD:setlocal.obj
 0003:0001cb98       ??_C@_0M@MIENIKLA@LC_MONETARY?$AA@ 00645b98     LIBCMTD:setlocal.obj
 0003:0001cba8       ??_C@_08EADHIDAD@LC_CTYPE?$AA@ 00645ba8     LIBCMTD:setlocal.obj
 0003:0001cbb4       ??_C@_0L@KFJHEKIK@LC_COLLATE?$AA@ 00645bb4     LIBCMTD:setlocal.obj
 0003:0001cbc4       ??_C@_06NEFDFEKB@LC_ALL?$AA@ 00645bc4     LIBCMTD:setlocal.obj
 0003:0001cbe0       ??_C@_0L@LEECJGMI@setlocal?4c?$AA@ 00645be0     LIBCMTD:setlocal.obj
 0003:0001cc00       ??_C@_02BALPLPBG@?$DN?$DL?$AA@ 00645c00     LIBCMTD:setlocal.obj
 0003:0001cc04       ??_C@_03EGDHDPFD@_?4?0?$AA@ 00645c04     LIBCMTD:setlocal.obj
 0003:0001cc08       ??_C@_01IDAFKMJL@_?$AA@    00645c08     LIBCMTD:setlocal.obj
 0003:0001cc0c       ??_C@_0L@JKCACIOJ@tidtable?4c?$AA@ 00645c0c     LIBCMTD:tidtable.obj
 0003:0001cc1c       ??_C@_07PEJMOBNF@FlsFree?$AA@ 00645c1c     LIBCMTD:tidtable.obj
 0003:0001cc28       ??_C@_0M@JCPCPOEF@FlsSetValue?$AA@ 00645c28     LIBCMTD:tidtable.obj
 0003:0001cc38       ??_C@_0M@GDNOONDI@FlsGetValue?$AA@ 00645c38     LIBCMTD:tidtable.obj
 0003:0001cc48       ??_C@_08KNHFBNJ@FlsAlloc?$AA@ 00645c48     LIBCMTD:tidtable.obj
 0003:0001cc54       ??_C@_0N@MDJJJHMB@kernel32?4dll?$AA@ 00645c54     LIBCMTD:tidtable.obj
 0003:0001cc84       ??_C@_08FKHPDPAC@winsig?4c?$AA@ 00645c84     LIBCMTD:winsig.obj
 0003:0001ccc0       ??_C@_0BI@DFKBFLJE@GetProcessWindowStation?$AA@ 00645cc0     LIBCMTD:crtmbox.obj
 0003:0001ccdc       ??_C@_0BK@CIDNPOGP@GetUserObjectInformationA?$AA@ 00645cdc     LIBCMTD:crtmbox.obj
 0003:0001ccfc       ??_C@_0BD@HHGDFDBJ@GetLastActivePopup?$AA@ 00645cfc     LIBCMTD:crtmbox.obj
 0003:0001cd14       ??_C@_0BA@HNOPNCHB@GetActiveWindow?$AA@ 00645d14     LIBCMTD:crtmbox.obj
 0003:0001cd28       ??_C@_0M@CHKKJDAI@MessageBoxA?$AA@ 00645d28     LIBCMTD:crtmbox.obj
 0003:0001cd38       ??_C@_0L@GMPLCCII@user32?4dll?$AA@ 00645d38     LIBCMTD:crtmbox.obj
 0003:0001cd48       ??_C@_07PNHPCIEC@_file?4c?$AA@ 00645d48     LIBCMTD:_file.obj
 0003:0001cde4       ??_C@_04EHEDPDJG@modf?$AA@ 00645de4     LIBCMTD:libm_error.obj
 0003:0001cdec       ??_C@_05PBJFFIGL@floor?$AA@ 00645dec     LIBCMTD:libm_error.obj
 0003:0001cdf4       ??_C@_04GFPJNGEK@ceil?$AA@ 00645df4     LIBCMTD:libm_error.obj
 0003:0001cdfc       ??_C@_04MLLJIGOK@atan?$AA@ 00645dfc     LIBCMTD:libm_error.obj
 0003:0001ce04       ??_C@_05EOHGHCHD@exp10?$AA@ 00645e04     LIBCMTD:libm_error.obj
 0003:0001ce0c       ??_C@_04HPAFEEIN@exp2?$AA@ 00645e0c     LIBCMTD:libm_error.obj
 0003:0001ce14       ??_C@_04KGLCPMCP@log2?$AA@ 00645e14     LIBCMTD:libm_error.obj
 0003:0001ce1c       ??_C@_03JGHBODFD@pow?$AA@  00645e1c     LIBCMTD:libm_error.obj
 0003:0001ce20       ??_C@_03KHJOGHMM@exp?$AA@  00645e20     LIBCMTD:libm_error.obj
 0003:0001ce24       ??_C@_05HGHHAHAP@log10?$AA@ 00645e24     LIBCMTD:libm_error.obj
 0003:0001ce2c       ??_C@_0N@FFJGBINN@AuthenticAMD?$AA@ 00645e2c     LIBCMTD:cpu_disp.obj
 0003:0001ce58       __DEFAULT_CW_in_mem        00645e58     LIBCMTD:common.obj
 0003:0001ce5a       __pi_by_2_to_61            00645e5a     LIBCMTD:common.obj
 0003:0001ceec       ??_C@_07FEAFKIIG@a_map?4c?$AA@ 00645eec     LIBCMTD:a_map.obj
 0003:0001cef8       ??_C@_13NOLLCAOD@?$AA?$AA?$AA?$AA@ 00645ef8     LIBCMTD:a_map.obj
 0003:0001cf2c       ??_C@_07CKDBCAPD@mlock?4c?$AA@ 00645f2c     LIBCMTD:mlock.obj
 0003:0001cf48       ??_C@_0L@CELCHBFJ@wtombenv?4c?$AA@ 00645f48     LIBCMTD:wtombenv.obj
 0003:0001cf58       ??_C@_0DP@FICHPIPH@?$CI?$CCinconsistent?5IOB?5fields?$CC?0?5stre@ 00645f58     LIBCMTD:_flsbuf.obj
 0003:0001cfa4       ??_C@_09DHJHPHJP@_flsbuf?4c?$AA@ 00645fa4     LIBCMTD:_flsbuf.obj
 0003:0001cfb0       ___lookuptable             00645fb0     LIBCMTD:output.obj
 0003:0001d01c       ??_C@_1O@CEDCILHN@?$AA?$CI?$AAn?$AAu?$AAl?$AAl?$AA?$CJ?$AA?$AA@ 0064601c     LIBCMTD:output.obj
 0003:0001d02c       ??_C@_06OJHGLDPL@?$CInull?$CJ?$AA@ 0064602c     LIBCMTD:output.obj
 0003:0001d034       ??_C@_08MEPFMIND@output?4c?$AA@ 00646034     LIBCMTD:output.obj
 0003:0001d040       ??_C@_0P@LGFCLPDP@ch?5?$CB?$DN?5_T?$CI?8?20?8?$CJ?$AA@ 00646040     LIBCMTD:output.obj
 0003:0001d054       ??_C@_0BB@NAGLCMLI@Assertion?5Failed?$AA@ 00646054     LIBCMTD:dbgrpt.obj
 0003:0001d068       ??_C@_05NAOIJFC@Error?$AA@ 00646068     LIBCMTD:dbgrpt.obj
 0003:0001d070       ??_C@_07KGMMFLDN@Warning?$AA@ 00646070     LIBCMTD:dbgrpt.obj
 0003:0001d07c       ??_C@_08ODMAMGBE@dbgrpt?4c?$AA@ 0064607c     LIBCMTD:dbgrpt.obj
 0003:0001d098       ??_C@_0M@IPILFDFN@?$CFs?$CI?$CFd?$CJ?5?3?5?$CFs?$AA@ 00646098     LIBCMTD:dbgrpt.obj
 0003:0001d0a8       ??_C@_01LIIJDEN@?$AN?$AA@  006460a8     LIBCMTD:dbgrpt.obj
 0003:0001d0ac       ??_C@_0BD@CAENFOHP@Assertion?5failed?3?5?$AA@ 006460ac     LIBCMTD:dbgrpt.obj
 0003:0001d0c4       ??_C@_0CL@EACFGMNB@_CrtDbgReport?3?5String?5too?5long?5o@ 006460c4     LIBCMTD:dbgrpt.obj
 0003:0001d0f8       ??_C@_0DC@HLHDIIKH@Second?5Chance?5Assertion?5Failed?3?5@ 006460f8     LIBCMTD:dbgrpt.obj
 0003:0001d134       ??_C@_09FOPFMPEJ@wsprintfA?$AA@ 00646134     LIBCMTD:dbgrpt.obj
 0003:0001d150       ??_C@_0CD@EBCGLDDL@Microsoft?5Visual?5C?$CL?$CL?5Debug?5Libra@ 00646150     LIBCMTD:dbgrpt.obj
 0003:0001d180       ??_C@_0FD@IIKNDPHJ@Debug?5?$CFs?$CB?6?6Program?3?5?$CFs?$CFs?$CFs?$CFs?$CFs?$CFs@ 00646180     LIBCMTD:dbgrpt.obj
 0003:0001d1e4       ??_C@_09OFBFHMBK@?6Module?3?5?$AA@ 006461e4     LIBCMTD:dbgrpt.obj
 0003:0001d1f0       ??_C@_07OPHPPLBG@?6File?3?5?$AA@ 006461f0     LIBCMTD:dbgrpt.obj
 0003:0001d1fc       ??_C@_07DBMPPHDI@?6Line?3?5?$AA@ 006461fc     LIBCMTD:dbgrpt.obj
 0003:0001d208       ??_C@_0HD@GNBNFCCL@?6?6For?5information?5on?5how?5your?5pr@ 00646208     LIBCMTD:dbgrpt.obj
 0003:0001d294       ??_C@_0BG@IHOEIIEJ@szUserMessage?5?$CB?$DN?5NULL?$AA@ 00646294     LIBCMTD:dbgrpt.obj
 0003:0001d2b0       ??_C@_09IFKHNCOH@_sftbuf?4c?$AA@ 006462b0     LIBCMTD:_sftbuf.obj
 0003:0001d2bc       ??_C@_0BH@HIGALIFJ@flag?5?$DN?$DN?50?5?$HM?$HM?5flag?5?$DN?$DN?51?$AA@ 006462bc     LIBCMTD:_sftbuf.obj
 0003:0001d2d8       ??_C@_07CMLOKKIF@input?4c?$AA@ 006462d8     LIBCMTD:input.obj
 0003:0001d2f8       ??_C@_0L@KDOEJCKC@_nextafter?$AA@ 006462f8     LIBCMTD:fpexcept.obj
 0003:0001d308       ??_C@_05JGDBENOH@_logb?$AA@ 00646308     LIBCMTD:fpexcept.obj
 0003:0001d310       ??_C@_03ONILCKOB@_yn?$AA@  00646310     LIBCMTD:fpexcept.obj
 0003:0001d314       ??_C@_03NAKIGLHK@_y1?$AA@  00646314     LIBCMTD:fpexcept.obj
 0003:0001d318       ??_C@_03MJLDFKDL@_y0?$AA@  00646318     LIBCMTD:fpexcept.obj
 0003:0001d31c       ??_C@_05GKKHEGJL@frexp?$AA@ 0064631c     LIBCMTD:fpexcept.obj
 0003:0001d324       ??_C@_04KEPJIHGP@fmod?$AA@ 00646324     LIBCMTD:fpexcept.obj
 0003:0001d32c       ??_C@_06MEIMCGCF@_hypot?$AA@ 0064632c     LIBCMTD:fpexcept.obj
 0003:0001d334       ??_C@_05KBKMEMPO@_cabs?$AA@ 00646334     LIBCMTD:fpexcept.obj
 0003:0001d33c       ??_C@_05CEJMAHNP@ldexp?$AA@ 0064633c     LIBCMTD:fpexcept.obj
 0003:0001d344       ??_C@_04ODHECPBC@fabs?$AA@ 00646344     LIBCMTD:fpexcept.obj
 0003:0001d34c       ??_C@_03IIINPABG@tan?$AA@  0064634c     LIBCMTD:fpexcept.obj
 0003:0001d350       ??_C@_03LALBNOCG@cos?$AA@  00646350     LIBCMTD:fpexcept.obj
 0003:0001d354       ??_C@_04EIAKFFMI@sqrt?$AA@ 00646354     LIBCMTD:fpexcept.obj
 0003:0001d35c       ??_C@_05KNGEOGJB@atan2?$AA@ 0064635c     LIBCMTD:fpexcept.obj
 0003:0001d364       ??_C@_04PDIFKINK@acos?$AA@ 00646364     LIBCMTD:fpexcept.obj
 0003:0001d36c       ??_C@_04FIHNOPOL@asin?$AA@ 0064636c     LIBCMTD:fpexcept.obj
 0003:0001d374       ??_C@_04FJHINJAO@tanh?$AA@ 00646374     LIBCMTD:fpexcept.obj
 0003:0001d37c       ??_C@_04HPJJNFIM@cosh?$AA@ 0064637c     LIBCMTD:fpexcept.obj
 0003:0001d384       ??_C@_04COOMCNPB@sinh?$AA@ 00646384     LIBCMTD:fpexcept.obj
 0003:0001d38c       ___dnames                  0064638c     LIBCMTD:timeset.obj
 0003:0001d3a4       ___mnames                  006463a4     LIBCMTD:timeset.obj
 0003:0001d3f8       ??_C@_07LOOFNDIO@tzset?4c?$AA@ 006463f8     LIBCMTD:tzset.obj
 0003:0001d404       ??_C@_02CLFPBFFP@TZ?$AA@   00646404     LIBCMTD:tzset.obj
 0003:0001d428       ??_C@_08EMJPPPLP@gmtime?4c?$AA@ 00646428     LIBCMTD:gmtime.obj
 0003:0001d498       ??_C@_0L@CKFHAPLH@_freebuf?4c?$AA@ 00646498     LIBCMTD:_freebuf.obj
 0003:0001d4b8       ??_C@_08MAFBHINM@ioinit?4c?$AA@ 006464b8     LIBCMTD:ioinit.obj
 0003:0001d4d8       ??_C@_07JGCPNLLC@_open?4c?$AA@ 006464d8     LIBCMTD:_open.obj
 0003:0001d4e4       ??_C@_0BB@KFELMOAG@filename?5?$CB?$DN?5NULL?$AA@ 006464e4     LIBCMTD:_open.obj
 0003:0001d4f8       ??_C@_08MKBBPGGN@stream?4c?$AA@ 006464f8     LIBCMTD:stream.obj
 0003:0001d528       ??_C@_09OOOBBFNM@_filbuf?4c?$AA@ 00646528     LIBCMTD:_filbuf.obj
 0003:0001d548       ??_C@_09MGNHMPHC@osfinfo?4c?$AA@ 00646548     LIBCMTD:osfinfo.obj
 0003:0001d5a8       ??_C@_08GNMOIKDK@onexit?4c?$AA@ 006465a8     LIBCMTD:onexit.obj
 0003:0001d5d8       ??_C@_09HCDLHOJP@stdenvp?4c?$AA@ 006465d8     LIBCMTD:stdenvp.obj
 0003:0001d5e4       ??_C@_09IKILHJIC@stdargv?4c?$AA@ 006465e4     LIBCMTD:stdargv.obj
 0003:0001d5f0       ??_C@_07BPGNOCOG@a_env?4c?$AA@ 006465f0     LIBCMTD:a_env.obj
 0003:0001d5fc       ??_C@_0P@GGKDKEEG@runtime?5error?5?$AA@ 006465fc     LIBCMTD:crt0msg.obj
 0003:0001d610       ??_C@_0O@MJNIPGOH@TLOSS?5error?$AN?6?$AA@ 00646610     LIBCMTD:crt0msg.obj
 0003:0001d620       ??_C@_0N@BONNPDHF@SING?5error?$AN?6?$AA@ 00646620     LIBCMTD:crt0msg.obj
 0003:0001d630       ??_C@_0P@MBDAJNE@DOMAIN?5error?$AN?6?$AA@ 00646630     LIBCMTD:crt0msg.obj
 0003:0001d648       ??_C@_0KC@BDDGGBEJ@R6029?$AN?6?9?5This?5application?5cannot@ 00646648     LIBCMTD:crt0msg.obj
 0003:0001d70c       ??_C@_0CF@KJDAIALP@R6028?$AN?6?9?5unable?5to?5initialize?5he@ 0064670c     LIBCMTD:crt0msg.obj
 0003:0001d738       ??_C@_0DF@GAKBPDFP@R6027?$AN?6?9?5not?5enough?5space?5for?5lo@ 00646738     LIBCMTD:crt0msg.obj
 0003:0001d778       ??_C@_0DF@IBLNNAIG@R6026?$AN?6?9?5not?5enough?5space?5for?5st@ 00646778     LIBCMTD:crt0msg.obj
 0003:0001d7b8       ??_C@_0CG@IOHKGFNJ@R6025?$AN?6?9?5pure?5virtual?5function?5c@ 006467b8     LIBCMTD:crt0msg.obj
 0003:0001d7e8       ??_C@_0DF@JIJJFJDC@R6024?$AN?6?9?5not?5enough?5space?5for?5_o@ 006467e8     LIBCMTD:crt0msg.obj
 0003:0001d828       ??_C@_0CJ@EGEJHFME@R6019?$AN?6?9?5unable?5to?5open?5console?5@ 00646828     LIBCMTD:crt0msg.obj
 0003:0001d85c       ??_C@_0CB@GNHNIELH@R6018?$AN?6?9?5unexpected?5heap?5error?$AN?6@ 0064685c     LIBCMTD:crt0msg.obj
 0003:0001d884       ??_C@_0CN@FOLDKNG@R6017?$AN?6?9?5unexpected?5multithread?5@ 00646884     LIBCMTD:crt0msg.obj
 0003:0001d8bc       ??_C@_0CM@FAHFJNHO@R6016?$AN?6?9?5not?5enough?5space?5for?5th@ 006468bc     LIBCMTD:crt0msg.obj
 0003:0001d8f0       ??_C@_0JG@LBKMGKLD@?$AN?6This?5application?5has?5requested@ 006468f0     LIBCMTD:crt0msg.obj
 0003:0001d9a4       ??_C@_0CM@FLCNIPKK@R6009?$AN?6?9?5not?5enough?5space?5for?5en@ 006469a4     LIBCMTD:crt0msg.obj
 0003:0001d9d8       ??_C@_0CK@KMMJOAPP@R6008?$AN?6?9?5not?5enough?5space?5for?5ar@ 006469d8     LIBCMTD:crt0msg.obj
 0003:0001da0c       ??_C@_0CF@HOHMHDEK@R6002?$AN?6?9?5floating?5point?5not?5load@ 00646a0c     LIBCMTD:crt0msg.obj
 0003:0001da38       ??_C@_0BK@OFGJDLJJ@Runtime?5Error?$CB?6?6Program?3?5?$AA@ 00646a38     LIBCMTD:crt0msg.obj
 0003:0001da58       ??_C@_0CK@CNLNOEPB@Local?5variable?5used?5before?5initi@ 00646a58     LIBCMTD:userapi.obj
 0003:0001da8c       ??_C@_0BI@CIGMDCBH@Stack?5memory?5corruption?$AA@ 00646a8c     LIBCMTD:userapi.obj
 0003:0001daa8       ??_C@_0CK@FEGOIOPB@Cast?5to?5smaller?5type?5causing?5los@ 00646aa8     LIBCMTD:userapi.obj
 0003:0001dadc       ??_C@_0BJ@HEGAHDFO@Stack?5pointer?5corruption?$AA@ 00646adc     LIBCMTD:userapi.obj
 0003:0001dafc       ??_C@_0O@NJIIDJEH@i386?2chkesp?4c?$AA@ 00646afc     LIBCMTD:chkesp.obj
 0003:0001db10       ??_C@_0NM@DNEDKLDF@The?5value?5of?5ESP?5was?5not?5properl@ 00646b10     LIBCMTD:chkesp.obj
 0003:000220c0       ??_C@_0M@HHEBEAAO@MSPDB71?4DLL?$AA@ 0064b0c0     LIBCMTD:pdblkup.obj
 0003:000220d0       ??_C@_08ONJBEOFA@PDBClose?$AA@ 0064b0d0     LIBCMTD:pdblkup.obj
 0003:000220dc       ??_C@_08NINFAAFA@DBIClose?$AA@ 0064b0dc     LIBCMTD:pdblkup.obj
 0003:000220e8       ??_C@_08LIGPJJNA@ModClose?$AA@ 0064b0e8     LIBCMTD:pdblkup.obj
 0003:000220f4       ??_C@_0O@IPLOKOKN@ModQueryLines?$AA@ 0064b0f4     LIBCMTD:pdblkup.obj
 0003:00022104       ??_C@_0BE@GDNPNLGH@DBIQueryModFromAddr?$AA@ 0064b104     LIBCMTD:pdblkup.obj
 0003:0002211c       ??_C@_0L@KPMOCKEL@PDBOpenDBI?$AA@ 0064b11c     LIBCMTD:pdblkup.obj
 0003:0002212c       ??_C@_0BB@PENKIMFE@PDBOpenValidate3?$AA@ 0064b12c     LIBCMTD:pdblkup.obj
 0003:00022140       ??_C@_0N@KIGOLBLC@Module32Next?$AA@ 0064b140     LIBCMTD:pdblkup.obj
 0003:00022150       ??_C@_0O@CNMFJJGO@Module32First?$AA@ 0064b150     LIBCMTD:pdblkup.obj
 0003:00022160       ??_C@_0BF@OCLFCNKN@GetModuleInformation?$AA@ 0064b160     LIBCMTD:pdblkup.obj
 0003:0002217c       ??_C@_0BD@FIEJBLME@EnumProcessModules?$AA@ 0064b17c     LIBCMTD:pdblkup.obj
 0003:00022194       ??_C@_09EPMADGLA@PSAPI?4DLL?$AA@ 0064b194     LIBCMTD:pdblkup.obj
 0003:000221a0       ??_C@_0BJ@JEFKDHMD@CreateToolhelp32Snapshot?$AA@ 0064b1a0     LIBCMTD:pdblkup.obj
 0003:000221c0       ??_C@_0O@CHDGJGFP@ImageNtHeader?$AA@ 0064b1c0     LIBCMTD:pdblkup.obj
 0003:000221d0       ??_C@_0N@KBGMOMJO@IMAGEHLP?4DLL?$AA@ 0064b1d0     LIBCMTD:pdblkup.obj
 0003:000221e0       ??_C@_0N@NHGLKGEC@KERNEL32?4DLL?$AA@ 0064b1e0     LIBCMTD:pdblkup.obj
 0003:000221f0       ??_C@_0BF@BMIHBHCA@EnvironmentDirectory?$AA@ 0064b1f0     LIBCMTD:pdblkup.obj
 0003:0002220c       ??_C@_0CN@KGLAKABH@SOFTWARE?2Microsoft?2VisualStudio?2@ 0064b20c     LIBCMTD:pdblkup.obj
 0003:00022244       ??_C@_0M@HLOHPNFA@RegCloseKey?$AA@ 0064b244     LIBCMTD:pdblkup.obj
 0003:00022254       ??_C@_0BB@HHEIPGME@RegQueryValueExA?$AA@ 0064b254     LIBCMTD:pdblkup.obj
 0003:00022268       ??_C@_0O@DCOGKJGG@RegOpenKeyExA?$AA@ 0064b268     LIBCMTD:pdblkup.obj
 0003:00022278       ??_C@_0N@JJPEKNFO@ADVAPI32?4DLL?$AA@ 0064b278     LIBCMTD:pdblkup.obj
 0003:00022288       ??_C@_0CO@DKDOPPEB@f?3?2vs70builds?23077?2vc?2crtbld?2crt@ 0064b288     LIBCMTD:wsetenv.obj
 0003:000222c0       ??_C@_05MAJJAKPI@FALSE?$AA@ 0064b2c0     LIBCMTD:wsetenv.obj
 0003:000222c8       ??_C@_08BMJILFKN@setenv?4c?$AA@ 0064b2c8     LIBCMTD:setenv.obj
 0003:000222d8       ___newctype                0064b2d8     LIBCMTD:ctype.obj
 0003:000225d8       __wctype                   0064b5d8     LIBCMTD:ctype.obj
 0003:000228dc       ??_C@_07GPNABLBE@a_str?4c?$AA@ 0064b8dc     LIBCMTD:a_str.obj
 0003:000228f8       ??_C@_08JCCMCCIL@HH?3mm?3ss?$AA@ 0064b8f8     LIBCMTD:strftime.obj
 0003:00022904       ??_C@_0BE@CKGJFCPC@dddd?0?5MMMM?5dd?0?5yyyy?$AA@ 0064b904     LIBCMTD:strftime.obj
 0003:0002291c       ??_C@_08BPBNCDIB@MM?1dd?1yy?$AA@ 0064b91c     LIBCMTD:strftime.obj
 0003:00022928       ??_C@_02CJNFDJBF@PM?$AA@   0064b928     LIBCMTD:strftime.obj
 0003:0002292c       ??_C@_02DEDBPAFC@AM?$AA@   0064b92c     LIBCMTD:strftime.obj
 0003:00022930       ??_C@_08EDHMEBNP@December?$AA@ 0064b930     LIBCMTD:strftime.obj
 0003:0002293c       ??_C@_08HCHEGEOA@November?$AA@ 0064b93c     LIBCMTD:strftime.obj
 0003:00022948       ??_C@_07JJNFCEND@October?$AA@ 0064b948     LIBCMTD:strftime.obj
 0003:00022954       ??_C@_09BHHEALKD@September?$AA@ 0064b954     LIBCMTD:strftime.obj
 0003:00022960       ??_C@_06LBBHFDDG@August?$AA@ 0064b960     LIBCMTD:strftime.obj
 0003:00022968       ??_C@_04MIEPOIFP@July?$AA@ 0064b968     LIBCMTD:strftime.obj
 0003:00022970       ??_C@_04CNLMGBGM@June?$AA@ 0064b970     LIBCMTD:strftime.obj
 0003:00022978       ??_C@_05DMJDNLEJ@April?$AA@ 0064b978     LIBCMTD:strftime.obj
 0003:00022980       ??_C@_05HPCKOFNC@March?$AA@ 0064b980     LIBCMTD:strftime.obj
 0003:00022988       ??_C@_08GNJGEPFN@February?$AA@ 0064b988     LIBCMTD:strftime.obj
 0003:00022994       ??_C@_07CGJPFGJA@January?$AA@ 0064b994     LIBCMTD:strftime.obj
 0003:000229a0       ??_C@_03MKABNOCG@Dec?$AA@  0064b9a0     LIBCMTD:strftime.obj
 0003:000229a4       ??_C@_03JPJOFNIA@Nov?$AA@  0064b9a4     LIBCMTD:strftime.obj
 0003:000229a8       ??_C@_03BMAOKBAD@Oct?$AA@  0064b9a8     LIBCMTD:strftime.obj
 0003:000229ac       ??_C@_03GGCAPAJC@Sep?$AA@  0064b9ac     LIBCMTD:strftime.obj
 0003:000229b0       ??_C@_03IFJFEIGA@Aug?$AA@  0064b9b0     LIBCMTD:strftime.obj
 0003:000229b4       ??_C@_03LBGABGKK@Jul?$AA@  0064b9b4     LIBCMTD:strftime.obj
 0003:000229b8       ??_C@_03IDFGHECI@Jun?$AA@  0064b9b8     LIBCMTD:strftime.obj
 0003:000229bc       ??_C@_03CNMDKL@May?$AA@    0064b9bc     LIBCMTD:strftime.obj
 0003:000229c0       ??_C@_03LEOLGMJP@Apr?$AA@  0064b9c0     LIBCMTD:strftime.obj
 0003:000229c4       ??_C@_03ODNJBKGA@Mar?$AA@  0064b9c4     LIBCMTD:strftime.obj
 0003:000229c8       ??_C@_03HJBDCHOM@Feb?$AA@  0064b9c8     LIBCMTD:strftime.obj
 0003:000229cc       ??_C@_03JIHJHPIE@Jan?$AA@  0064b9cc     LIBCMTD:strftime.obj
 0003:000229d0       ??_C@_08INBOOONO@Saturday?$AA@ 0064b9d0     LIBCMTD:strftime.obj
 0003:000229dc       ??_C@_06JECMNKMI@Friday?$AA@ 0064b9dc     LIBCMTD:strftime.obj
 0003:000229e4       ??_C@_08HACCIKIA@Thursday?$AA@ 0064b9e4     LIBCMTD:strftime.obj
 0003:000229f0       ??_C@_09DLIGFAKA@Wednesday?$AA@ 0064b9f0     LIBCMTD:strftime.obj
 0003:000229fc       ??_C@_07BAAGCFCM@Tuesday?$AA@ 0064b9fc     LIBCMTD:strftime.obj
 0003:00022a08       ??_C@_06JLEDEDGH@Monday?$AA@ 0064ba08     LIBCMTD:strftime.obj
 0003:00022a10       ??_C@_06OOPIFAJ@Sunday?$AA@ 0064ba10     LIBCMTD:strftime.obj
 0003:00022a18       ??_C@_03FEFJNEK@Sat?$AA@   0064ba18     LIBCMTD:strftime.obj
 0003:00022a1c       ??_C@_03IDIOELNC@Fri?$AA@  0064ba1c     LIBCMTD:strftime.obj
 0003:00022a20       ??_C@_03IOFIKPDN@Thu?$AA@  0064ba20     LIBCMTD:strftime.obj
 0003:00022a24       ??_C@_03MHOMLAJA@Wed?$AA@  0064ba24     LIBCMTD:strftime.obj
 0003:00022a28       ??_C@_03NAGEINEP@Tue?$AA@  0064ba28     LIBCMTD:strftime.obj
 0003:00022a2c       ??_C@_03PDAGKDH@Mon?$AA@   0064ba2c     LIBCMTD:strftime.obj
 0003:00022a30       ??_C@_03KOEHGMDN@Sun?$AA@  0064ba30     LIBCMTD:strftime.obj
 0003:00022a34       ??_C@_0L@OCEOFAIF@strftime?4c?$AA@ 0064ba34     LIBCMTD:strftime.obj
 0003:00022a44       ??_C@_0DJ@BLPIACFC@?$CI?$CCInvalid?5MBCS?5character?5sequenc@ 0064ba44     LIBCMTD:strftime.obj
 0003:00022a88       ??_C@_0DD@GLPHLKIC@?$CI?$CCZero?5length?5output?5buffer?5pass@ 0064ba88     LIBCMTD:strftime.obj
 0003:00022ac8       ??_C@_0DL@LLHFCBKO@?$CI?$CCInvalid?5MBCS?5character?5sequenc@ 0064bac8     LIBCMTD:strftime.obj
 0003:00022b10       ??_C@_0EC@CJNAOFBG@?$CI?$CCInvalid?5MBCS?5character?5sequenc@ 0064bb10     LIBCMTD:strftime.obj
 0003:00022b60       ??_C@_03EBAPMIKO@a?1p?$AA@ 0064bb60     LIBCMTD:strftime.obj
 0003:00022b64       ??_C@_05JAMEPDIN@am?1pm?$AA@ 0064bb64     LIBCMTD:strftime.obj
 0003:00022b80       ??_C@_0L@IOJADHBB@inittime?4c?$AA@ 0064bb80     LIBCMTD:inittime.obj
 0003:00022b90       ??_C@_09MECGNAGI@initnum?4c?$AA@ 0064bb90     LIBCMTD:initnum.obj
 0003:00022b9c       ??_C@_09HKFHICAL@initmon?4c?$AA@ 0064bb9c     LIBCMTD:initmon.obj
 0003:00022ba8       ??_C@_0L@GBAGBCPL@initctyp?4c?$AA@ 0064bba8     LIBCMTD:initctyp.obj
 0003:00022bb8       ___rgLocInfo               0064bbb8     LIBCMTD:getqloc.obj
 0003:0002314c       ??_C@_08PKBIPKE@Paraguay?$AA@ 0064c14c     LIBCMTD:getqloc.obj
 0003:00023158       ??_C@_07GHBIBIBP@Uruguay?$AA@ 0064c158     LIBCMTD:getqloc.obj
 0003:00023164       ??_C@_05HBNKAPDN@Chile?$AA@ 0064c164     LIBCMTD:getqloc.obj
 0003:0002316c       ??_C@_07FEIFIPNF@Ecuador?$AA@ 0064c16c     LIBCMTD:getqloc.obj
 0003:00023178       ??_C@_09PGNFPGME@Argentina?$AA@ 0064c178     LIBCMTD:getqloc.obj
 0003:00023184       ??_C@_04IALPBJF@Peru?$AA@  0064c184     LIBCMTD:getqloc.obj
 0003:0002318c       ??_C@_08IJPLNLKH@Colombia?$AA@ 0064c18c     LIBCMTD:getqloc.obj
 0003:00023198       ??_C@_09IDMFKCN@Venezuela?$AA@ 0064c198     LIBCMTD:getqloc.obj
 0003:000231a4       ??_C@_0BD@DNEJOGOK@Dominican?5Republic?$AA@ 0064c1a4     LIBCMTD:getqloc.obj
 0003:000231bc       ??_C@_0N@LPINDNDB@South?5Africa?$AA@ 0064c1bc     LIBCMTD:getqloc.obj
 0003:000231cc       ??_C@_06BLJPEOBG@Panama?$AA@ 0064c1cc     LIBCMTD:getqloc.obj
 0003:000231d4       ??_C@_0L@BOCNDGON@Luxembourg?$AA@ 0064c1d4     LIBCMTD:getqloc.obj
 0003:000231e4       ??_C@_0L@CONEHKA@Costa?5Rica?$AA@ 0064c1e4     LIBCMTD:getqloc.obj
 0003:000231f4       ??_C@_0M@KGBPELAM@Switzerland?$AA@ 0064c1f4     LIBCMTD:getqloc.obj
 0003:00023204       ??_C@_09FJGLIMAG@Guatemala?$AA@ 0064c204     LIBCMTD:getqloc.obj
 0003:00023210       ??_C@_06ECHIPDMK@Canada?$AA@ 0064c210     LIBCMTD:getqloc.obj
 0003:00023218       ??_C@_0BG@CCEBNPGH@Spanish?5?9?5Modern?5Sort?$AA@ 0064c218     LIBCMTD:getqloc.obj
 0003:00023234       ??_C@_09EFGJAPAD@Australia?$AA@ 0064c234     LIBCMTD:getqloc.obj
 0003:00023240       ??_C@_07NEKHPBCG@English?$AA@ 0064c240     LIBCMTD:getqloc.obj
 0003:0002324c       ??_C@_07LKIIOGFH@Austria?$AA@ 0064c24c     LIBCMTD:getqloc.obj
 0003:00023258       ??_C@_06EDDDIONA@German?$AA@ 0064c258     LIBCMTD:getqloc.obj
 0003:00023260       ??_C@_07LIIIOFOA@Belgium?$AA@ 0064c260     LIBCMTD:getqloc.obj
 0003:0002326c       ??_C@_06DIAOLLEH@Mexico?$AA@ 0064c26c     LIBCMTD:getqloc.obj
 0003:00023274       ??_C@_07PFALJOGE@Spanish?$AA@ 0064c274     LIBCMTD:getqloc.obj
 0003:00023280       ??_C@_06FFOOPAJB@Basque?$AA@ 0064c280     LIBCMTD:getqloc.obj
 0003:00023288       ??_C@_06DGHNDJFJ@Sweden?$AA@ 0064c288     LIBCMTD:getqloc.obj
 0003:00023290       ??_C@_07OBINPKFN@Swedish?$AA@ 0064c290     LIBCMTD:getqloc.obj
 0003:0002329c       ??_C@_07NCOIHDGC@Iceland?$AA@ 0064c29c     LIBCMTD:getqloc.obj
 0003:000232a8       ??_C@_09JHBBDDIA@Icelandic?$AA@ 0064c2a8     LIBCMTD:getqloc.obj
 0003:000232b4       ??_C@_06COBCPIFO@France?$AA@ 0064c2b4     LIBCMTD:getqloc.obj
 0003:000232bc       ??_C@_06GODMCAND@French?$AA@ 0064c2bc     LIBCMTD:getqloc.obj
 0003:000232c4       ??_C@_07MFHPMOED@Finland?$AA@ 0064c2c4     LIBCMTD:getqloc.obj
 0003:000232d0       ??_C@_07MCEAMKOD@Finnish?$AA@ 0064c2d0     LIBCMTD:getqloc.obj
 0003:000232dc       ??_C@_05CBHOCCK@Spain?$AA@ 0064c2dc     LIBCMTD:getqloc.obj
 0003:000232e4       ??_C@_0BL@GIOEGDHB@Spanish?5?9?5Traditional?5Sort?$AA@ 0064c2e4     LIBCMTD:getqloc.obj
 0003:00023304       ___rglangidNotDefault      0064c304     LIBCMTD:getqloc.obj
 0003:00023320       ___rg_country              0064c320     LIBCMTD:getqloc.obj
 0003:000233fc       ??_C@_0O@FMJNFNKE@united?9states?$AA@ 0064c3fc     LIBCMTD:getqloc.obj
 0003:0002340c       ??_C@_0P@NDHFFKCA@united?9kingdom?$AA@ 0064c40c     LIBCMTD:getqloc.obj
 0003:00023420       ??_C@_0BC@HHDADLGF@trinidad?5?$CG?5tobago?$AA@ 0064c420     LIBCMTD:getqloc.obj
 0003:00023438       ??_C@_0M@IOAEBDAC@south?9korea?$AA@ 0064c438     LIBCMTD:getqloc.obj
 0003:00023448       ??_C@_0N@FIELFKIJ@south?9africa?$AA@ 0064c448     LIBCMTD:getqloc.obj
 0003:00023458       ??_C@_0M@OPNDHCMC@south?5korea?$AA@ 0064c458     LIBCMTD:getqloc.obj
 0003:00023468       ??_C@_0N@MDEOEPFI@south?5africa?$AA@ 0064c468     LIBCMTD:getqloc.obj
 0003:00023478       ??_C@_06FKAPCJLB@slovak?$AA@ 0064c478     LIBCMTD:getqloc.obj
 0003:00023480       ??_C@_0M@EFJANOAL@puerto?9rico?$AA@ 0064c480     LIBCMTD:getqloc.obj
 0003:00023490       ??_C@_08PGOJKDAI@pr?9china?$AA@ 0064c490     LIBCMTD:getqloc.obj
 0003:0002349c       ??_C@_08JHDOMCMI@pr?5china?$AA@ 0064c49c     LIBCMTD:getqloc.obj
 0003:000234a8       ??_C@_02JHCHFBLL@nz?$AA@   0064c4a8     LIBCMTD:getqloc.obj
 0003:000234ac       ??_C@_0M@LINHDHKP@new?9zealand?$AA@ 0064c4ac     LIBCMTD:getqloc.obj
 0003:000234bc       ??_C@_09IIIPPBDB@hong?9kong?$AA@ 0064c4bc     LIBCMTD:getqloc.obj
 0003:000234c8       ??_C@_07HJLCKBG@holland?$AA@ 0064c4c8     LIBCMTD:getqloc.obj
 0003:000234d4       ??_C@_0O@LEHGMHAG@great?5britain?$AA@ 0064c4d4     LIBCMTD:getqloc.obj
 0003:000234e4       ??_C@_07FACOMELA@england?$AA@ 0064c4e4     LIBCMTD:getqloc.obj
 0003:000234f0       ??_C@_05JIHCEICB@czech?$AA@ 0064c4f0     LIBCMTD:getqloc.obj
 0003:000234f8       ??_C@_05BBJOBLGB@china?$AA@ 0064c4f8     LIBCMTD:getqloc.obj
 0003:00023500       ??_C@_07GPKPHICP@britain?$AA@ 0064c500     LIBCMTD:getqloc.obj
 0003:0002350c       ??_C@_07MHIPBHMG@america?$AA@ 0064c50c     LIBCMTD:getqloc.obj
 0003:00023518       ___rg_language             0064c518     LIBCMTD:getqloc.obj
 0003:00023788       ??_C@_03KIALPMKC@usa?$AA@  0064c788     LIBCMTD:getqloc.obj
 0003:0002378c       ??_C@_02FGJGKGGD@us?$AA@   0064c78c     LIBCMTD:getqloc.obj
 0003:00023790       ??_C@_02NEINDODK@uk?$AA@   0064c790     LIBCMTD:getqloc.obj
 0003:00023794       ??_C@_05JMPCFJFJ@swiss?$AA@ 0064c794     LIBCMTD:getqloc.obj
 0003:0002379c       ??_C@_0BA@HLOCPIOD@swedish?9finland?$AA@ 0064c79c     LIBCMTD:getqloc.obj
 0003:000237b0       ??_C@_0BC@PKCNIABK@spanish?9venezuela?$AA@ 0064c7b0     LIBCMTD:getqloc.obj
 0003:000237c8       ??_C@_0BA@GBHHMIJI@spanish?9uruguay?$AA@ 0064c7c8     LIBCMTD:getqloc.obj
 0003:000237dc       ??_C@_0BE@BHDOHPMC@spanish?9puerto?5rico?$AA@ 0064c7dc     LIBCMTD:getqloc.obj
 0003:000237f4       ??_C@_0N@KMOIDGGN@spanish?9peru?$AA@ 0064c7f4     LIBCMTD:getqloc.obj
 0003:00023804       ??_C@_0BB@HMHLPGPH@spanish?9paraguay?$AA@ 0064c804     LIBCMTD:getqloc.obj
 0003:00023818       ??_C@_0P@MCPKNGFD@spanish?9panama?$AA@ 0064c818     LIBCMTD:getqloc.obj
 0003:0002382c       ??_C@_0BC@IHOHGAIL@spanish?9nicaragua?$AA@ 0064c82c     LIBCMTD:getqloc.obj
 0003:00023844       ??_C@_0P@KLMJDNFJ@spanish?9modern?$AA@ 0064c844     LIBCMTD:getqloc.obj
 0003:00023858       ??_C@_0BA@BPAPGBCM@spanish?9mexican?$AA@ 0064c858     LIBCMTD:getqloc.obj
 0003:0002386c       ??_C@_0BB@PDECHHHE@spanish?9honduras?$AA@ 0064c86c     LIBCMTD:getqloc.obj
 0003:00023880       ??_C@_0BC@KLHKFGDB@spanish?9guatemala?$AA@ 0064c880     LIBCMTD:getqloc.obj
 0003:00023898       ??_C@_0BE@MFOOKJAI@spanish?9el?5salvador?$AA@ 0064c898     LIBCMTD:getqloc.obj
 0003:000238b0       ??_C@_0BA@FCOKFPFC@spanish?9ecuador?$AA@ 0064c8b0     LIBCMTD:getqloc.obj
 0003:000238c4       ??_C@_0BL@PLMGIMOO@spanish?9dominican?5republic?$AA@ 0064c8c4     LIBCMTD:getqloc.obj
 0003:000238e4       ??_C@_0BD@HLGDNMHB@spanish?9costa?5rica?$AA@ 0064c8e4     LIBCMTD:getqloc.obj
 0003:000238fc       ??_C@_0BB@PKCBKCPE@spanish?9colombia?$AA@ 0064c8fc     LIBCMTD:getqloc.obj
 0003:00023910       ??_C@_0O@MCBIJGNE@spanish?9chile?$AA@ 0064c910     LIBCMTD:getqloc.obj
 0003:00023920       ??_C@_0BA@BEFEIGJJ@spanish?9bolivia?$AA@ 0064c920     LIBCMTD:getqloc.obj
 0003:00023934       ??_C@_0BC@EMECMPD@spanish?9argentina?$AA@ 0064c934     LIBCMTD:getqloc.obj
 0003:0002394c       ??_C@_0BF@EALFLENP@portuguese?9brazilian?$AA@ 0064c94c     LIBCMTD:getqloc.obj
 0003:00023968       ??_C@_0BC@HBLEBLNN@norwegian?9nynorsk?$AA@ 0064c968     LIBCMTD:getqloc.obj
 0003:00023980       ??_C@_0BB@HMACDDCK@norwegian?9bokmal?$AA@ 0064c980     LIBCMTD:getqloc.obj
 0003:00023994       ??_C@_09BAFFPPHE@norwegian?$AA@ 0064c994     LIBCMTD:getqloc.obj
 0003:000239a0       ??_C@_0O@EAJFJDFG@italian?9swiss?$AA@ 0064c9a0     LIBCMTD:getqloc.obj
 0003:000239b0       ??_C@_0O@CNOMPGD@irish?9english?$AA@ 0064c9b0     LIBCMTD:getqloc.obj
 0003:000239c0       ??_C@_0N@EDHBGCKG@german?9swiss?$AA@ 0064c9c0     LIBCMTD:getqloc.obj
 0003:000239d0       ??_C@_0BC@JACMHNBP@german?9luxembourg?$AA@ 0064c9d0     LIBCMTD:getqloc.obj
 0003:000239e8       ??_C@_0BE@HBGMGFEG@german?9lichtenstein?$AA@ 0064c9e8     LIBCMTD:getqloc.obj
 0003:00023a00       ??_C@_0BA@HKKBIBKL@german?9austrian?$AA@ 0064ca00     LIBCMTD:getqloc.obj
 0003:00023a14       ??_C@_0N@GCAEPEBK@french?9swiss?$AA@ 0064ca14     LIBCMTD:getqloc.obj
 0003:00023a24       ??_C@_0BC@DJFJJCK@french?9luxembourg?$AA@ 0064ca24     LIBCMTD:getqloc.obj
 0003:00023a3c       ??_C@_0BA@NNCEDFIC@french?9canadian?$AA@ 0064ca3c     LIBCMTD:getqloc.obj
 0003:00023a50       ??_C@_0P@CMPOCLM@french?9belgian?$AA@ 0064ca50     LIBCMTD:getqloc.obj
 0003:00023a64       ??_C@_0M@GHHDJOK@english?9usa?$AA@ 0064ca64     LIBCMTD:getqloc.obj
 0003:00023a74       ??_C@_0L@PLDJKEIL@english?9us?$AA@ 0064ca74     LIBCMTD:getqloc.obj
 0003:00023a84       ??_C@_0L@HJCCDMNC@english?9uk?$AA@ 0064ca84     LIBCMTD:getqloc.obj
 0003:00023a94       ??_C@_0BK@CKLIAGJB@english?9trinidad?5y?5tobago?$AA@ 0064ca94     LIBCMTD:getqloc.obj
 0003:00023ab4       ??_C@_0BF@JMJMGNNF@english?9south?5africa?$AA@ 0064cab4     LIBCMTD:getqloc.obj
 0003:00023ad0       ??_C@_0L@DKIIFDFD@english?9nz?$AA@ 0064cad0     LIBCMTD:getqloc.obj
 0003:00023ae0       ??_C@_0BA@ONHGJCLH@english?9jamaica?$AA@ 0064cae0     LIBCMTD:getqloc.obj
 0003:00023af4       ??_C@_0M@HJBGHOPO@english?9ire?$AA@ 0064caf4     LIBCMTD:getqloc.obj
 0003:00023b04       ??_C@_0BC@LFEKMIFB@english?9caribbean?$AA@ 0064cb04     LIBCMTD:getqloc.obj
 0003:00023b1c       ??_C@_0M@OLDPFKHI@english?9can?$AA@ 0064cb1c     LIBCMTD:getqloc.obj
 0003:00023b2c       ??_C@_0P@OMDEHBMP@english?9belize?$AA@ 0064cb2c     LIBCMTD:getqloc.obj
 0003:00023b40       ??_C@_0M@KFHFPFED@english?9aus?$AA@ 0064cb40     LIBCMTD:getqloc.obj
 0003:00023b50       ??_C@_0BB@MNMBKDFE@english?9american?$AA@ 0064cb50     LIBCMTD:getqloc.obj
 0003:00023b64       ??_C@_0O@KIDLNNBA@dutch?9belgian?$AA@ 0064cb64     LIBCMTD:getqloc.obj
 0003:00023b74       ??_C@_0BE@JBKABBMH@chinese?9traditional?$AA@ 0064cb74     LIBCMTD:getqloc.obj
 0003:00023b8c       ??_C@_0BC@MJJMPKCG@chinese?9singapore?$AA@ 0064cb8c     LIBCMTD:getqloc.obj
 0003:00023ba4       ??_C@_0BD@FDKADDCP@chinese?9simplified?$AA@ 0064cba4     LIBCMTD:getqloc.obj
 0003:00023bbc       ??_C@_0BB@DBEFDDME@chinese?9hongkong?$AA@ 0064cbbc     LIBCMTD:getqloc.obj
 0003:00023bd0       ??_C@_07DHNMFMCI@chinese?$AA@ 0064cbd0     LIBCMTD:getqloc.obj
 0003:00023bdc       ??_C@_03FNDDCHI@chi?$AA@   0064cbdc     LIBCMTD:getqloc.obj
 0003:00023be0       ??_C@_03BMMIADDJ@chh?$AA@  0064cbe0     LIBCMTD:getqloc.obj
 0003:00023be4       ??_C@_08OAIPJDGI@canadian?$AA@ 0064cbe4     LIBCMTD:getqloc.obj
 0003:00023bf0       ??_C@_07HBPMNPNJ@belgian?$AA@ 0064cbf0     LIBCMTD:getqloc.obj
 0003:00023bfc       ??_C@_0L@OEKOPBEL@australian?$AA@ 0064cbfc     LIBCMTD:getqloc.obj
 0003:00023c0c       ??_C@_0BB@MEIMBEDG@american?9english?$AA@ 0064cc0c     LIBCMTD:getqloc.obj
 0003:00023c20       ??_C@_0BB@DFMDPDGB@american?5english?$AA@ 0064cc20     LIBCMTD:getqloc.obj
 0003:00023c34       ??_C@_08IJLOKOLL@american?$AA@ 0064cc34     LIBCMTD:getqloc.obj
 0003:00023c40       ??_C@_0BC@NFIEMBLL@Norwegian?9Nynorsk?$AA@ 0064cc40     LIBCMTD:getqloc.obj
 0003:00023c58       ??_C@_03NFKLAGEF@OCP?$AA@  0064cc58     LIBCMTD:getqloc.obj
 0003:00023c5c       ??_C@_03DFHEHBHG@ACP?$AA@  0064cc5c     LIBCMTD:getqloc.obj
 0003:00023c70       ??_C@_09KJLOAKHC@mbctype?4c?$AA@ 0064cc70     LIBCMTD:mbctype.obj
 0003:00023ca0       ??_C@_0KA@JEHFIFGP@A?5buffer?5overrun?5has?5been?5detect@ 0064cca0     LIBCMTD:secfail.obj
 0003:00023d60       ??_C@_0BJ@MDEKIEOJ@Buffer?5overrun?5detected?$CB?$AA@ 0064cd60     LIBCMTD:secfail.obj
 0003:00023d80       ??_C@_0LB@BPLHHLFD@A?5security?5error?5of?5unknown?5caus@ 0064cd80     LIBCMTD:secfail.obj
 0003:00023e54       ??_C@_0CD@GMKACBEK@Unknown?5security?5failure?5detecte@ 0064ce54     LIBCMTD:secfail.obj
 0003:00023e90       ??_C@_0L@KBNGFDKM@convrtcp?4c?$AA@ 0064ce90     LIBCMTD:convrtcp.obj
 0003:00023eb0       ??_C@_0CG@PKBDLMEO@InitializeCriticalSectionAndSpin@ 0064ceb0     LIBCMTD:initcrit.obj
 0003:00023ef0       ??_C@_07KLPPCEPH@a_cmp?4c?$AA@ 0064cef0     LIBCMTD:a_cmp.obj
 0003:00023efc       ??_C@_0DN@NFIMOOFE@cchCount1?$DN?$DN0?5?$CG?$CG?5cchCount2?$DN?$DN1?5?$HM?$HM?5@ 0064cefc     LIBCMTD:a_cmp.obj
 0003:00023f64       ??_C@_09PKAEMGHJ@_getbuf?4c?$AA@ 0064cf64     LIBCMTD:_getbuf.obj
 0003:00023f70       ??_C@_0CP@PEILCOHB@f?3?2vs70builds?23077?2vc?2crtbld?2crt@ 0064cf70     LIBCMTD:snprintf.obj
 0003:00023fa8       ??_C@_08NJPDFEGP@mbtowc?4c?$AA@ 0064cfa8     LIBCMTD:mbtowc.obj
 0003:00023fb4       ??_C@_0DD@FIIGOHOA@ptloci?9?$DOmb_cur_max?5?$DN?$DN?51?5?$HM?$HM?5ptloc@ 0064cfb4     LIBCMTD:mbtowc.obj
 0003:00023ff4       ??_C@_08CJEJHOKM@ungetc?4c?$AA@ 0064cff4     LIBCMTD:ungetc.obj
 0003:00024040       ??_C@_0L@BLANHEAB@mbtowenv?4c?$AA@ 0064d040     LIBCMTD:mbtowenv.obj
 0003:00024050       ??_C@_06IMKFLFPG@1?$CDQNAN?$AA@ 0064d050     LIBCMTD:x10fout.obj
 0003:00024058       ??_C@_05DNEBIAHO@1?$CDINF?$AA@ 0064d058     LIBCMTD:x10fout.obj
 0003:00024060       ??_C@_05PHHOCPM@1?$CDIND?$AA@ 0064d060     LIBCMTD:x10fout.obj
 0003:00024068       ??_C@_06PGGFOGJG@1?$CDSNAN?$AA@ 0064d068     LIBCMTD:x10fout.obj
 0003:00024070       ??_C@_0L@DILIPMN@inithelp?4c?$AA@ 0064d070     LIBCMTD:inithelp.obj
 0003:00024090       ??_C@_08EOPENFML@chsize?4c?$AA@ 0064d090     LIBCMTD:chsize.obj
 0003:0002409c       ??_C@_09OJCCCDEJ@size?5?$DO?$DN?50?$AA@ 0064d09c     LIBCMTD:chsize.obj
 0003:000240a8       ??_C@_07BBCLBMFL@w_cmp?4c?$AA@ 0064d0a8     LIBCMTD:w_cmp.obj
 0003:000240d4       ??_C@_07NIBBAFJP@w_loc?4c?$AA@ 0064d0d4     LIBCMTD:w_loc.obj
 0003:000240f0       ??_C@_07GCMFDNDD@a_loc?4c?$AA@ 0064d0f0     LIBCMTD:a_loc.obj
 0003:0002515c       ___rtc_iaa                 0064e15c     LIBCMTD:initsect.obj
 0003:00025504       ___rtc_izz                 0064e504     LIBCMTD:initsect.obj
 0003:00025608       ___rtc_taa                 0064e608     LIBCMTD:initsect.obj
 0003:000259b0       ___rtc_tzz                 0064e9b0     LIBCMTD:initsect.obj
 0004:00000000       ___xc_a                    0064f000     LIBCMTD:crt0init.obj
 0004:00000208       ___xc_z                    0064f208     LIBCMTD:crt0init.obj
 0004:0000030c       ___xi_a                    0064f30c     LIBCMTD:crt0init.obj
 0004:00000528       ___xi_z                    0064f528     LIBCMTD:crt0init.obj
 0004:0000062c       ___xp_a                    0064f62c     LIBCMTD:crt0init.obj
 0004:00000834       ___xp_z                    0064f834     LIBCMTD:crt0init.obj
 0004:00000938       ___xt_a                    0064f938     LIBCMTD:crt0init.obj
 0004:00000a3c       ___xt_z                    0064fa3c     LIBCMTD:crt0init.obj
 0004:00000b40       ?__LINE__Var@?1??CL_CgameSystemCalls@@9@9 0064fb40     cl_cgame.obj
 0004:00000b50       _g_console_field_width     0064fb50     cl_console.obj
 0004:00000b54       _console_color             0064fb54     cl_console.obj
 0004:00000b68       _keynames                  0064fb68     cl_keys.obj
 0004:00000f74       ?__LINE__Var@?1??CL_RefMalloc@@9@9 0064ff74     cl_main.obj
 0004:00000f78       _svc_strings               0064ff78     cl_parse.obj
 0004:00001444       ?__LINE__Var@?1??SCR_DrawNamedPic@@9@9 00650444     cl_scrn.obj
 0004:00001448       ?__LINE__Var@?1??CMod_LoadShaders@@9@9 00650448     cm_load.obj
 0004:0000144c       ?__LINE__Var@?1??CMod_LoadSubmodels@@9@9 0065044c     cm_load.obj
 0004:00001450       ?__LINE__Var@?1??CMod_LoadNodes@@9@9 00650450     cm_load.obj
 0004:00001454       ?__LINE__Var@?1??CMod_LoadBrushes@@9@9 00650454     cm_load.obj
 0004:00001458       ?__LINE__Var@?1??CMod_LoadLeafs@@9@9 00650458     cm_load.obj
 0004:0000145c       ?__LINE__Var@?1??CMod_LoadPlanes@@9@9 0065045c     cm_load.obj
 0004:00001460       ?__LINE__Var@?1??CMod_LoadLeafBrushes@@9@9 00650460     cm_load.obj
 0004:00001464       ?__LINE__Var@?1??CMod_LoadLeafSurfaces@@9@9 00650464     cm_load.obj
 0004:00001468       ?__LINE__Var@?1??CMod_LoadBrushSides@@9@9 00650468     cm_load.obj
 0004:0000146c       ?__LINE__Var@?1??CMod_LoadEntityString@@9@9 0065046c     cm_load.obj
 0004:00001470       ?__LINE__Var@?1??CMod_LoadVisibility@@9@9 00650470     cm_load.obj
 0004:00001474       ?__LINE__Var@?1??CMod_LoadPatches@@9@9 00650474     cm_load.obj
 0004:00001478       ?__LINE__Var@?1??CM_LoadMap@@9@9 00650478     cm_load.obj
 0004:0000147c       ?__LINE__Var@?1??CM_GeneratePatchCollide@@9@9 0065047c     cm_patch.obj
 0004:00001480       ?__LINE__Var@?1??CM_PatchCollideFromGrid@@9@9@119d9b8d 00650480     cm_patch.obj
 0004:00001484       ?__LINE__Var@?1??AllocWinding@@9@9 00650484     cm_polylib.obj
 0004:00001488       ?__LINE__Var@?1??CM_Trace@@9@9 00650488     cm_trace.obj
 0004:0000148c       ?__LINE__Var@?1??Cmd_AddCommand@@9@9 0065048c     cmd.obj
 0004:00001490       _demo_protocols            00650490     common.obj
 0004:000014a0       _emptystring               006504a0     common.obj
 0004:000014c8       _numberstring              006504c8     common.obj
 0004:00001658       _cl_cdkey                  00650658     common.obj
 0004:000016dc       ?__LINE__Var@?1??CopyString@@9@9 006506dc     common.obj
 0004:000016e0       ?__LINE__Var@?1??Hunk_AllocateTempMemory@@9@9 006506e0     common.obj
 0004:000016e4       ?__LINE__Var@?1??Com_GetRealEvent@@9@9 006506e4     common.obj
 0004:000016e8       ?__LINE__Var@?1??Cvar_Update@@9@9 006506e8     cvar.obj
 0004:000017a8       ?__LINE__Var@?1??FS_ListFilteredFiles@@9@9 006507a8     files.obj
 0004:000017ac       ?__LINE__Var@?1??Sys_ConcatenateFileLists@@9@9@c9599ae1 006507ac     files.obj
 0004:000017b0       ?__LINE__Var@?1??FS_SortFileList@@9@9 006507b0     files.obj
 0004:000017b4       ?__LINE__Var@?1??FS_AddGameDirectory@@9@9@c9599ae1 006507b4     files.obj
 0004:000017b8       ?__LINE__Var@?1??FS_LoadZipFile@@9@9@c9599ae1 006507b8     files.obj
 0004:00001810       _kbitmask                  00650810     msg.obj
 0004:00001890       _entityStateFields         00650890     msg.obj
 0004:00001af8       _playerStateFields         00650af8     msg.obj
 0004:00001d38       _msg_hData                 00650d38     msg.obj
 0004:0000230c       ?__LINE__Var@?1??MSG_WriteDeltaEntity@@9@9 0065130c     msg.obj
 0004:00002320       _axisDefault               00651320     q_math.obj
 0004:00002344       _colorBlack                00651344     q_math.obj
 0004:00002354       _colorRed                  00651354     q_math.obj
 0004:00002364       _colorGreen                00651364     q_math.obj
 0004:00002374       _colorBlue                 00651374     q_math.obj
 0004:00002384       _colorYellow               00651384     q_math.obj
 0004:00002394       _colorMagenta              00651394     q_math.obj
 0004:000023a4       _colorCyan                 006513a4     q_math.obj
 0004:000023b4       _colorWhite                006513b4     q_math.obj
 0004:000023c4       _colorLtGrey               006513c4     q_math.obj
 0004:000023d4       _colorMdGrey               006513d4     q_math.obj
 0004:000023e4       _colorDkGrey               006513e4     q_math.obj
 0004:000023f8       _g_color_table             006513f8     q_math.obj
 0004:00002478       _bytedirs                  00651478     q_math.obj
 0004:00002ddc       ?__LINE__Var@?1??ProjectPointOnPlane@@9@9 00651ddc     q_math.obj
 0004:0000311c       ?__LINE__Var@?1??BotImport_GetMemory@@9@9 0065211c     sv_bot.obj
 0004:00003120       ?__LINE__Var@?1??BotImport_HunkAlloc@@9@9 00652120     sv_bot.obj
 0004:00003124       ?__LINE__Var@?1??SV_BotInitBotLib@@9@9 00652124     sv_bot.obj
 0004:00003180       ?__LINE__Var@?1??SV_WriteDownloadToClient@@9@9 00652180     sv_client.obj
 0004:00003184       ?__LINE__Var@?1??SV_Startup@@9@9 00652184     sv_init.obj
 0004:00003188       ?__LINE__Var@?1??SV_ChangeMaxClients@@9@9 00652188     sv_init.obj
 0004:0000318c       ?__LINE__Var@?1??SV_SpawnServer@@9@9 0065218c     sv_init.obj
 0004:00003190       ?__LINE__Var@?1??SV_Netchan_Transmit@@9@9 00652190     sv_net_chan.obj
 0004:00004660       ?__LINE__Var@?1??unzlocal_SearchCentralDir@@9@9 00653660     unzip.obj
 0004:00004664       ?__LINE__Var@?1??unzReOpen@@9@9 00653664     unzip.obj
 0004:00004668       ?__LINE__Var@?1??unzOpen@@9@9 00653668     unzip.obj
 0004:0000466c       ?__LINE__Var@?1??unzOpenCurrentFile@@9@9 0065366c     unzip.obj
 0004:00004670       ?__LINE__Var@?1??zcalloc@@9@9@255a4fc9 00653670     unzip.obj
 0004:00004674       ?__LINE__Var@?1??VM_LoadSymbols@@9@9 00653674     vm.obj
 0004:00004678       ?__LINE__Var@?1??VM_Create@@9@9 00653678     vm.obj
 0004:0000467c       ?__LINE__Var@?1??VM_VmProfile_f@@9@9 0065367c     vm.obj
 0004:00004684       ?__LINE__Var@?1??VM_PrepareInterpreter@@9@9 00653684     vm_interpreted.obj
 0004:00004694       ?__LINE__Var@?1??VM_Compile@@9@9 00653694     vm_x86.obj
 0004:00004720       _joyDirectionKeys          00653720     win_input.obj
 0004:00004788       ?__LINE__Var@?1??Sys_ListFiles@@9@9 00653788     win_main.obj
 0004:0000478c       ?__LINE__Var@?1??Sys_GetClipboardData@@9@9 0065378c     win_main.obj
 0004:00004790       ?__LINE__Var@?1??Sys_GetEvent@@9@9 00653790     win_main.obj
 0004:00004838       _r_vidModes                00653838     renderer:tr_init.obj
 0004:0000492c       ?__LINE__Var@?1??R_Init@@9@9 0065392c     renderer:tr_init.obj
 0004:00004970       _entitySurface             00653970     renderer:tr_main.obj
 0004:00004984       ?__LINE__Var@?1??SurfIsOffscreen@@9@9@97d0f866 00653984     renderer:tr_main.obj
 0004:00004988       ?__LINE__Var@?1??QGL_Init@@9@9 00653988     renderer:win_qgl.obj
 0004:00004990       _gl_filter_min             00653990     renderer:tr_image.obj
 0004:00004994       _gl_filter_max             00653994     renderer:tr_image.obj
 0004:00004998       _modes                     00653998     renderer:tr_image.obj
 0004:000049e0       _mipBlendColors            006539e0     renderer:tr_image.obj
 0004:00004a3c       ?__LINE__Var@?1??R_CreateImage@@9@9 00653a3c     renderer:tr_image.obj
 0004:00004a40       ?__LINE__Var@?1??RE_RegisterSkin@@9@9 00653a40     renderer:tr_image.obj
 0004:00004a44       ?__LINE__Var@?1??R_InitSkins@@9@9 00653a44     renderer:tr_image.obj
 0004:00004a5c       ?__LINE__Var@?1??R_IssueRenderCommands@@9@9 00653a5c     renderer:tr_cmds.obj
 0004:00004aac       ?__LINE__Var@?1??GL_State@@9@9 00653aac     renderer:tr_backend.obj
 0004:00004ab0       ?__LINE__Var@?1??R_AllocModel@@9@9 00653ab0     renderer:tr_model.obj
 0004:00004ab4       ?__LINE__Var@?1??R_LoadMD3@@9@9@53af6e51 00653ab4     renderer:tr_model.obj
 0004:00004ab8       ?__LINE__Var@?1??R_LoadMD4@@9@9@53af6e51 00653ab8     renderer:tr_model.obj
 0004:00004ad8       _infoParms                 00653ad8     renderer:tr_shader.obj
 0004:00004df0       ?__LINE__Var@?1??GeneratePermanentShader@@9@9@54c6f26c 00653df0     renderer:tr_shader.obj
 0004:00004df4       ?__LINE__Var@?1??ScanAndLoadShaderFiles@@9@9@54c6f26c 00653df4     renderer:tr_shader.obj
 0004:00004df8       ?__LINE__Var@?1??R_DrawStripElements@@9@9@06c66ae0 00653df8     renderer:tr_shade.obj
 0004:00004e00       ?__LINE__Var@?1??R_MovePatchSurfacesToHunk@@9@9 00653e00     renderer:tr_bsp.obj
 0004:00004e04       ?__LINE__Var@?1??R_LoadLightGrid@@9@9 00653e04     renderer:tr_bsp.obj
 0004:00004e08       ?__LINE__Var@?1??R_LoadEntities@@9@9 00653e08     renderer:tr_bsp.obj
 0004:00004e0c       ?__LINE__Var@?1??RE_LoadWorldMap@@9@9 00653e0c     renderer:tr_bsp.obj
 0004:00004e10       ?__LINE__Var@?1??R_LoadVisibility@@9@9@91820c7a 00653e10     renderer:tr_bsp.obj
 0004:00004e14       ?__LINE__Var@?1??R_LoadSurfaces@@9@9@91820c7a 00653e14     renderer:tr_bsp.obj
 0004:00004e18       ?__LINE__Var@?1??ParseFace@@9@9@91820c7a 00653e18     renderer:tr_bsp.obj
 0004:00004e1c       ?__LINE__Var@?1??ParseTriSurf@@9@9@91820c7a 00653e1c     renderer:tr_bsp.obj
 0004:00004e20       ?__LINE__Var@?1??ParseFlare@@9@9@91820c7a 00653e20     renderer:tr_bsp.obj
 0004:00004e24       ?__LINE__Var@?1??R_LoadSubmodels@@9@9@91820c7a 00653e24     renderer:tr_bsp.obj
 0004:00004e28       ?__LINE__Var@?1??R_LoadNodesAndLeafs@@9@9@91820c7a 00653e28     renderer:tr_bsp.obj
 0004:00004e2c       ?__LINE__Var@?1??R_LoadShaders@@9@9@91820c7a 00653e2c     renderer:tr_bsp.obj
 0004:00004e30       ?__LINE__Var@?1??R_LoadMarksurfaces@@9@9@91820c7a 00653e30     renderer:tr_bsp.obj
 0004:00004e34       ?__LINE__Var@?1??R_LoadPlanes@@9@9@91820c7a 00653e34     renderer:tr_bsp.obj
 0004:00004e38       ?__LINE__Var@?1??R_LoadFogs@@9@9@91820c7a 00653e38     renderer:tr_bsp.obj
 0004:00004e3c       ?__LINE__Var@?1??R_SetupEntityLightingGrid@@9@9@847ed63d 00653e3c     renderer:tr_light.obj
 0004:00004e40       _rb_surfaceTable           00653e40     renderer:tr_surface.obj
 0004:00004f98       ?__LINE__Var@?1??R_BuildCloudData@@9@9 00653f98     renderer:tr_sky.obj
 0004:00004f9c       _edgeVerts                 00653f9c     renderer:tr_shade_calc.obj
 0004:00004fcc       _lightOrigin               00653fcc     renderer:tr_shade_calc.obj
 0004:00005038       ?__LINE__Var@?1??GetBotLibAPI@@9@9 00654038     botlib:be_interface.obj
 0004:0000503c       ?__LINE__Var@?1??StringsMatch@@9@9 0065403c     botlib:be_ai_chat.obj
 0004:00005040       ?__LINE__Var@?1??BotMatchVariable@@9@9 00654040     botlib:be_ai_chat.obj
 0004:00005044       ?__LINE__Var@?1??BotExpandChatMessage@@9@9 00654044     botlib:be_ai_chat.obj
 0004:00005048       _iteminfo_fields           00654048     botlib:be_ai_goal.obj
 0004:00005144       _iteminfo_struct           00654144     botlib:be_ai_goal.obj
 0004:00005698       _directives                00654698     botlib:l_precomp.obj
 0004:00005738       _dollardirectives          00654738     botlib:l_precomp.obj
 0004:00005858       _default_punctuations      00654858     botlib:l_script.obj
 0004:00005b54       _nofaceflood               00654b54     botlib:be_aas_cluster.obj
 0004:00005b58       _crctable                  00654b58     botlib:l_crc.obj
 0004:00005dc0       __fltused                  00654dc0     LIBCMTD:fpinit.obj
 0004:00005dc4       __ldused                   00654dc4     LIBCMTD:fpinit.obj
 0004:00005dc8       __FPinit                   00654dc8     LIBCMTD:fpinit.obj
 0004:00005dcc       __FPmtinit                 00654dcc     LIBCMTD:fpinit.obj
 0004:00005dd0       __FPmtterm                 00654dd0     LIBCMTD:fpinit.obj
 0004:00005e50       __crtDbgFlag               00654e50     LIBCMTD:dbgheap.obj
 0004:00005e58       __crtBreakAlloc            00654e58     LIBCMTD:dbgheap.obj
 0004:00005e90       __aexit_rtn                00654e90     LIBCMTD:wincrt0.obj
 0004:00005e94       ___app_type                00654e94     LIBCMTD:wincrt0.obj
 0004:00005eb0       __half                     00654eb0     LIBCMTD:pow.obj
 0004:00005ec0       ?_RTC_ErrorLevels@@3PAHA   00654ec0     LIBCMTD:error.obj
 0004:00005eec       __cfltcvt_tab              00654eec     LIBCMTD:cmiscdat.obj
 0004:00005f10       ___initiallocinfo          00654f10     LIBCMTD:setlocal.obj
 0004:00005f64       ___ptlocinfo               00654f64     LIBCMTD:setlocal.obj
 0004:000060f0       ___lc_category             006550f0     LIBCMTD:setlocal.obj
 0004:00006148       ___tlsindex                00655148     LIBCMTD:tidtable.obj
 0004:00006150       __iob                      00655150     LIBCMTD:_file.obj
 0004:00006450       ___security_cookie         00655450     LIBCMTD:seccook.obj
 0004:00006454       __pmatherr                 00655454     LIBCMTD:libm_error.obj
 0004:00006460       __indefinite               00655460     LIBCMTD:87disp.obj
 0004:0000646a       __piby2                    0065546a     LIBCMTD:87disp.obj
 0004:000064a0       __OP_ATAN2jmptab           006554a0     LIBCMTD:87triga.obj
 0004:0000665c       __NLG_Destination          0065565c     LIBCMTD:exsup.obj
 0004:00006670       ___nullstring              00655670     LIBCMTD:output.obj
 0004:00006674       ___wnullstring             00655674     LIBCMTD:output.obj
 0004:0000667c       __crtAssertBusy            0065567c     LIBCMTD:dbgrpt.obj
 0004:00006680       __CrtDbgMode               00655680     LIBCMTD:dbgrpt.obj
 0004:0000668c       __CrtDbgFile               0065568c     LIBCMTD:dbgrpt.obj
 0004:000067c8       __d_inf                    006557c8     LIBCMTD:util.obj
 0004:000067d0       __d_ind                    006557d0     LIBCMTD:util.obj
 0004:000067d8       __d_max                    006557d8     LIBCMTD:util.obj
 0004:000067e0       __d_min                    006557e0     LIBCMTD:util.obj
 0004:000067e8       __d_mzero                  006557e8     LIBCMTD:util.obj
 0004:00006818       __timezone                 00655818     LIBCMTD:timeset.obj
 0004:0000681c       __daylight                 0065581c     LIBCMTD:timeset.obj
 0004:00006820       __dstbias                  00655820     LIBCMTD:timeset.obj
 0004:000068a8       __tzname                   006558a8     LIBCMTD:timeset.obj
 0004:000068ec       __pfnAllocHook             006558ec     LIBCMTD:dbghook.obj
 0004:000068f0       __amblksiz                 006558f0     LIBCMTD:heapinit.obj
 0004:00006aa8       ___badioinfo               00655aa8     LIBCMTD:ioinit.obj
 0004:00006ad8       __XcptActTab               00655ad8     LIBCMTD:winxfltr.obj
 0004:00006b50       __First_FPE_Indx           00655b50     LIBCMTD:winxfltr.obj
 0004:00006b54       __Num_FPE                  00655b54     LIBCMTD:winxfltr.obj
 0004:00006b58       __XcptActTabSize           00655b58     LIBCMTD:winxfltr.obj
 0004:00006b5c       __XcptActTabCount          00655b5c     LIBCMTD:winxfltr.obj
 0004:00006c50       __infinity                 00655c50     LIBCMTD:87tran.obj
 0004:00006c5a       __minfinity                00655c5a     LIBCMTD:87tran.obj
 0004:00006c64       __logemax                  00655c64     LIBCMTD:87tran.obj
 0004:00006c8a       __OP_EXPjmptab             00655c8a     LIBCMTD:87tran.obj
 0004:00006cd0       ___mb_cur_max              00655cd0     LIBCMTD:nlsdata1.obj
 0004:00006cd4       ___decimal_point           00655cd4     LIBCMTD:nlsdata1.obj
 0004:00006cd8       ___decimal_point_length    00655cd8     LIBCMTD:nlsdata1.obj
 0004:00006d1c       __pctype                   00655d1c     LIBCMTD:ctype.obj
 0004:00006d20       __pwctype                  00655d20     LIBCMTD:ctype.obj
 0004:00006d28       ___lc_time_curr            00655d28     LIBCMTD:strftime.obj
 0004:00006d30       ___lc_time_c               00655d30     LIBCMTD:strftime.obj
 0004:00006e0c       ___lconv_static_decimal    00655e0c     LIBCMTD:lconv.obj
 0004:00006e10       ___lconv_c                 00655e10     LIBCMTD:lconv.obj
 0004:00006e40       ___lconv                   00655e40     LIBCMTD:lconv.obj
 0004:00006e50       ___lc_clike                00655e50     LIBCMTD:nlsdata2.obj
 0004:00006f90       __matherr_flag             00655f90     LIBCMTD:matherr.obj
 0004:00006f94       __lpdays                   00655f94     LIBCMTD:days.obj
 0004:00006fc8       __days                     00655fc8     LIBCMTD:days.obj
 0004:000071c0       __pow10pos                 006561c0     LIBCMTD:constpow.obj
 0004:00007320       __pow10neg                 00656320     LIBCMTD:constpow.obj
 0004:000096c0       _lastValidBase             006586c0     <common>
 0004:000097c0       _lastValidGame             006587c0     <common>
 0004:0039debc       _newsize                   009ecebc     cl_net_chan.obj
 0004:004b7f84       _oldsize                   00b06f84     msg.obj
 0004:004bb4f0       _vec3_origin               00b0a4f0     q_math.obj
 0004:004e409c       _s_numSfx                  00b3309c     snd_dma.obj
 0004:004e6e24       _sfxScratchBuffer          00b35e24     snd_mem.obj
 0004:004e6e28       _sfxScratchPointer         00b35e28     snd_mem.obj
 0004:004e6e2c       _sfxScratchIndex           00b35e2c     snd_mem.obj
 0004:004f0c74       _gvm                       00b3fc74     sv_main.obj
 0004:004f1178       _currentVM                 00b40178     vm.obj
 0004:004f117c       _lastVM                    00b4017c     vm.obj
 0004:004f1cc0       _fh                        00b40cc0     win_main.obj
 0004:00571ab4       _botlibsetup               00bc0ab4     botlib:be_interface.obj
 0004:00571ac0       _consolemessageheap        00bc0ac0     botlib:be_ai_chat.obj
 0004:00571ac4       _freeconsolemessages       00bc0ac4     botlib:be_ai_chat.obj
 0004:00571ac8       _matchtemplates            00bc0ac8     botlib:be_ai_chat.obj
 0004:00571acc       _synonyms                  00bc0acc     botlib:be_ai_chat.obj
 0004:00571ad0       _randomstrings             00bc0ad0     botlib:be_ai_chat.obj
 0004:00571ad4       _replychats                00bc0ad4     botlib:be_ai_chat.obj
 0004:00571adc       _itemconfig                00bc0adc     botlib:be_ai_goal.obj
 0004:00571ae0       _levelitemheap             00bc0ae0     botlib:be_ai_goal.obj
 0004:00571ae4       _freelevelitems            00bc0ae4     botlib:be_ai_goal.obj
 0004:00571ae8       _levelitems                00bc0ae8     botlib:be_ai_goal.obj
 0004:00571aec       _numlevelitems             00bc0aec     botlib:be_ai_goal.obj
 0004:00571af0       _maplocations              00bc0af0     botlib:be_ai_goal.obj
 0004:00571af4       _campspots                 00bc0af4     botlib:be_ai_goal.obj
 0004:00571af8       _g_gametype                00bc0af8     botlib:be_ai_goal.obj
 0004:00571afc       _droppedweight             00bc0afc     botlib:be_ai_goal.obj
 0004:0057bb14       ___fastflag                00bcab14     LIBCMTD:fpinit.obj
 0004:0057bb18       __adjust_fdiv              00bcab18     LIBCMTD:fpinit.obj
 0004:0057bb64       __umaskval                 00bcab64     LIBCMTD:crt0dat.obj
 0004:0057bb68       __osplatform               00bcab68     LIBCMTD:crt0dat.obj
 0004:0057bb6c       __osver                    00bcab6c     LIBCMTD:crt0dat.obj
 0004:0057bb70       __winver                   00bcab70     LIBCMTD:crt0dat.obj
 0004:0057bb74       __winmajor                 00bcab74     LIBCMTD:crt0dat.obj
 0004:0057bb78       __winminor                 00bcab78     LIBCMTD:crt0dat.obj
 0004:0057bb7c       ___argc                    00bcab7c     LIBCMTD:crt0dat.obj
 0004:0057bb80       ___argv                    00bcab80     LIBCMTD:crt0dat.obj
 0004:0057bb84       ___wargv                   00bcab84     LIBCMTD:crt0dat.obj
 0004:0057bb88       __environ                  00bcab88     LIBCMTD:crt0dat.obj
 0004:0057bb8c       ___initenv                 00bcab8c     LIBCMTD:crt0dat.obj
 0004:0057bb90       __wenviron                 00bcab90     LIBCMTD:crt0dat.obj
 0004:0057bb94       ___winitenv                00bcab94     LIBCMTD:crt0dat.obj
 0004:0057bb98       __pgmptr                   00bcab98     LIBCMTD:crt0dat.obj
 0004:0057bb9c       __wpgmptr                  00bcab9c     LIBCMTD:crt0dat.obj
 0004:0057bba0       __exitflag                 00bcaba0     LIBCMTD:crt0dat.obj
 0004:0057bba4       __C_Termination_Done       00bcaba4     LIBCMTD:crt0dat.obj
 0004:0057bba8       __C_Exit_Done              00bcaba8     LIBCMTD:crt0dat.obj
 0004:0057bbc0       __aenvptr                  00bcabc0     LIBCMTD:wincrt0.obj
 0004:0057bbc4       __wenvptr                  00bcabc4     LIBCMTD:wincrt0.obj
 0004:0057bbc8       ___error_mode              00bcabc8     LIBCMTD:wincrt0.obj
 0004:0057bc0c       _gpFlsAlloc                00bcac0c     LIBCMTD:tidtable.obj
 0004:0057bc10       _gpFlsGetValue             00bcac10     LIBCMTD:tidtable.obj
 0004:0057bc14       _gpFlsSetValue             00bcac14     LIBCMTD:tidtable.obj
 0004:0057bc18       _gpFlsFree                 00bcac18     LIBCMTD:tidtable.obj
 0004:0057bc50       __cflush                   00bcac50     LIBCMTD:_file.obj
 0004:0057bdf0       __stdbuf                   00bcadf0     LIBCMTD:_sftbuf.obj
 0004:0057bf08       __newmode                  00bcaf08     LIBCMTD:_newmode.obj
 0004:0057bf0c       ?_pnhHeap@@3P6AHI@ZA       00bcaf0c     LIBCMTD:handler.obj
 0004:0057c050       __adbgmsg                  00bcb050     LIBCMTD:crt0msg.obj
 0004:0057c0bc       ___lconv_static_null       00bcb0bc     LIBCMTD:lconv.obj
 0004:0057c0c0       ___lc_time_intl            00bcb0c0     LIBCMTD:inittime.obj
 0004:0057c0c4       ___lconv_intl              00bcb0c4     LIBCMTD:initmon.obj
 0004:0057c0c8       ___lc_handle               00bcb0c8     LIBCMTD:nlsdata2.obj
 0004:0057c0e0       ___lc_codepage             00bcb0e0     LIBCMTD:nlsdata2.obj
 0004:0057c0e4       ___lc_collate_cp           00bcb0e4     LIBCMTD:nlsdata2.obj
 0004:0057c0f0       ___lc_id                   00bcb0f0     LIBCMTD:nlsdata3.obj
 0004:0057c1b8       __commode                  00bcb1b8     LIBCMTD:ncommode.obj
 0004:0057c1c8       __fmode                    00bcb1c8     LIBCMTD:txtmode.obj
 0004:0057c1d8       _r_fullscreen              00bcb1d8     <common>
 0004:0057c220       _g_wv                      00bcb220     <common>
 0004:0057c2d0       _vid_ypos                  00bcb2d0     <common>
 0004:0057c2d4       _vid_xpos                  00bcb2d4     <common>
 0004:0057c2d8       _pDirectSoundCreate        00bcb2d8     <common>
 0004:0057c2e4       _sys_timeBase              00bcb2e4     <common>
 0004:0057c2f0       _recvfromCount             00bcb2f0     <common>
 0004:0057c2fc       _totalMsec                 00bcb2fc     <common>
 0004:0057d4a4       _eventHead                 00bcc4a4     <common>
 0004:0057d4c0       _eventQue                  00bcc4c0     <common>
 0004:0057ecc0       _countMsec                 00bcdcc0     <common>
 0004:0057ecc4       _eventTail                 00bcdcc4     <common>
 0004:0057ece0       _sys_packetReceived        00bcdce0     <common>
 0004:00582ce0       _in_midi                   00bd1ce0     <common>
 0004:00582cf8       _in_mouse                  00bd1cf8     <common>
 0004:00582cfc       _in_midichannel            00bd1cfc     <common>
 0004:00582d00       _in_joystick               00bd1d00     <common>
 0004:00582d04       _in_debugJoystick          00bd1d04     <common>
 0004:00582d08       _in_joyBallScale           00bd1d08     <common>
 0004:00582d0c       _pDirectInputCreate        00bd1d0c     <common>
 0004:00582d10       _joy_threshold             00bd1d10     <common>
 0004:00582d14       _in_mididevice             00bd1d14     <common>
 0004:00582d18       _in_logitechbug            00bd1d18     <common>
 0004:00582d1c       _in_midiport               00bd1d1c     <common>
 0004:00582d20       _in_appactive              00bd1d20     <common>
 0004:00582d40       _vmTable                   00bd1d40     <common>
 0004:00583028       _vm_debugLevel             00bd2028     <common>
 0004:00583040       _sv_worldSectors           00bd2040     <common>
 0004:00583648       _sv_numworldSectors        00bd2648     <common>
 0004:0058364c       _sv_maxPing                00bd264c     <common>
 0004:00594aa0       _sv                        00be3aa0     <common>
 0004:005e0ee0       _sv_pure                   00c2fee0     <common>
 0004:005e0ee4       _sv_rconPassword           00c2fee4     <common>
 0004:005e0f00       _svs                       00c2ff00     <common>
 0004:005eaf60       _sv_master                 00c39f60     <common>
 0004:005eaf74       _sv_privateClients         00c39f74     <common>
 0004:005eaf78       _sv_maxclients             00c39f78     <common>
 0004:005eaf7c       _sv_hostname               00c39f7c     <common>
 0004:005eaf80       _sv_showloss               00c39f80     <common>
 0004:005eaf84       _sv_reconnectlimit         00c39f84     <common>
 0004:005eaf88       _sv_floodProtect           00c39f88     <common>
 0004:005eaf8c       _sv_allowDownload          00c39f8c     <common>
 0004:005eaf90       _sv_killserver             00c39f90     <common>
 0004:005eaf94       _sv_gametype               00c39f94     <common>
 0004:005eaf98       _sv_mapname                00c39f98     <common>
 0004:005eaf9c       _sv_maxRate                00c39f9c     <common>
 0004:005eafa0       _sv_minPing                00c39fa0     <common>
 0004:005eafa4       _sv_zombietime             00c39fa4     <common>
 0004:005eafa8       _sv_privatePassword        00c39fa8     <common>
 0004:005eafac       _sv_mapChecksum            00c39fac     <common>
 0004:005eafb0       _sv_timeout                00c39fb0     <common>
 0004:005eafb4       _sv_padPackets             00c39fb4     <common>
 0004:005eafb8       _sv_lanForceRate           00c39fb8     <common>
 0004:005eafbc       _sv_fps                    00c39fbc     <common>
 0004:005eafc0       _sv_strictAuth             00c39fc0     <common>
 0004:005eafc4       _sv_serverid               00c39fc4     <common>
 0004:005eafc8       _botlib_export             00c39fc8     <common>
 0004:005eafd4       _bot_enable                00c39fd4     <common>
 0004:005eafe4       _bot_maxdebugpolys         00c39fe4     <common>
 0004:005eb000       _mulawToShort              00c3a000     <common>
 0004:005eb270       _snd_p                     00c3a270     <common>
 0004:005eb280       _snd_linear_count          00c3a280     <common>
 0004:005eb284       _snd_out                   00c3a284     <common>
 0004:005eb288       _s_rawend                  00c3a288     <common>
 0004:0060553c       _s_musicVolume             00c5453c     <common>
 0004:00605540       _s_volume                  00c54540     <common>
 0004:00605544       _s_separation              00c54544     <common>
 0004:00605560       _s_rawsamples              00c54560     <common>
 0004:00625560       _s_knownSfx                00c74560     <common>
 0004:00685560       _s_channels                00cd4560     <common>
 0004:00686be0       _loop_channels             00cd5be0     <common>
 0004:00688260       _s_soundtime               00cd7260     <common>
 0004:00688264       _s_mixahead                00cd7264     <common>
 0004:00688268       _s_paintedtime             00cd7268     <common>
 0004:0068826c       _numLoopChannels           00cd726c     <common>
 0004:00688270       _s_testsound               00cd7270     <common>
 0004:00688274       _s_doppler                 00cd7274     <common>
 0004:00688278       _s_khz                     00cd7278     <common>
 0004:0068827c       _s_show                    00cd727c     <common>
 0004:00688280       _s_mixPreStep              00cd7280     <common>
 0004:006882a0       _dma                       00cd72a0     <common>
 0004:006882b8       _showpackets               00cd72b8     <common>
 0004:0068a5e4       _qport                     00cd95e4     <common>
 0004:0068a600       _loopbacks                 00cd9600     <common>
 0004:00695590       _showdrop                  00ce4590     <common>
 0004:00695594       _overflows                 00ce4594     <common>
 0004:00695680       _pcount                    00ce4680     <common>
 0004:00695d00       _cvar_vars                 00ce4d00     <common>
 0004:00698044       _cvar_cheats               00ce7044     <common>
 0004:00698048       _cvar_modifiedFlags        00ce7048     <common>
 0004:00698060       _cvar_indexes              00ce7060     <common>
 0004:006a3060       _cvar_numIndexes           00cf2060     <common>
 0004:006a3064       _com_blood                 00cf2064     <common>
 0004:006a3410       _com_developer             00cf2410     <common>
 0004:006a3414       _com_cameraMode            00cf2414     <common>
 0004:006a3418       _com_viewlog               00cf2418     <common>
 0004:006a341c       _com_fixedtime             00cf241c     <common>
 0004:006a3420       _com_logfile               00cf2420     <common>
 0004:006a3424       _com_journalDataFile       00cf2424     <common>
 0004:006a3428       _cl_paused                 00cf2428     <common>
 0004:006a342c       _com_journalFile           00cf242c     <common>
 0004:006a3430       _com_timescale             00cf2430     <common>
 0004:006a3434       _time_backend              00cf2434     <common>
 0004:006a3438       _com_timedemo              00cf2438     <common>
 0004:006a343c       _com_buildScript           00cf243c     <common>
 0004:006a3440       _com_dedicated             00cf2440     <common>
 0004:006a3444       _com_sv_running            00cf2444     <common>
 0004:006a3460       _abortframe                00cf2460     <common>
 0004:006a34a0       _com_consoleLines          00cf24a0     <common>
 0004:006a3520       _com_noErrorInterrupt      00cf2520     <common>
 0004:006a3524       _debuglogfile              00cf2524     <common>
 0004:006a3528       _com_version               00cf2528     <common>
 0004:006a3540       _com_argv                  00cf2540     <common>
 0004:006a360c       _mainzone                  00cf260c     <common>
 0004:006a3620       _com_errorMessage          00cf2620     <common>
 0004:006a4620       _com_numConsoleLines       00cf3620     <common>
 0004:006a4624       _com_speeds                00cf3624     <common>
 0004:006a4628       _sv_paused                 00cf3628     <common>
 0004:006a462c       _time_game                 00cf362c     <common>
 0004:006a4630       _smallzone                 00cf3630     <common>
 0004:006a4634       _time_frontend             00cf3634     <common>
 0004:006a4638       _com_journal               00cf3638     <common>
 0004:006a463c       _com_dropsim               00cf363c     <common>
 0004:006a4640       _com_showtrace             00cf3640     <common>
 0004:006a4644       _com_frameMsec             00cf3644     <common>
 0004:006a4648       _com_cl_running            00cf3648     <common>
 0004:006a464c       _com_argc                  00cf364c     <common>
 0004:006a4650       _com_maxfps                00cf3650     <common>
 0004:006a4654       _com_frameTime             00cf3654     <common>
 0004:006a4658       _com_introPlayed           00cf3658     <common>
 0004:006a465c       _com_fullyInitialized      00cf365c     <common>
 0004:006a4660       _com_errorEntered          00cf3660     <common>
 0004:006a4664       _com_frameNumber           00cf3664     <common>
 0004:006a4668       _cmd_wait                  00cf3668     <common>
 0004:006a5360       _cmd_text_buf              00cf4360     <common>
 0004:006a9360       _cmd_text                  00cf8360     <common>
 0004:006a936c       _c_active_windings         00cf836c     <common>
 0004:006a937c       _c_removed                 00cf837c     <common>
 0004:006a9380       _c_peak_windings           00cf8380     <common>
 0004:006a9384       _c_winding_allocs          00cf8384     <common>
 0004:006a9388       _c_winding_points          00cf8388     <common>
 0004:006a938c       _c_totalPatchBlocks        00cf838c     <common>
 0004:006a939c       _c_totalPatchSurfaces      00cf839c     <common>
 0004:006a93a0       _c_totalPatchEdges         00cf83a0     <common>
 0004:006a93a4       _cm_noAreas                00cf83a4     <common>
 0004:006a93e8       _cm_noCurves               00cf83e8     <common>
 0004:006a93ec       _c_traces                  00cf83ec     <common>
 0004:006a9400       _box_model                 00cf8400     <common>
 0004:006a9440       _cm                        00cf8440     <common>
 0004:006a94fc       _c_brush_traces            00cf84fc     <common>
 0004:006a9500       _box_brush                 00cf8500     <common>
 0004:006a9504       _cmod_base                 00cf8504     <common>
 0004:006a9508       _cm_playerCurveClip        00cf8508     <common>
 0004:006a950c       _c_pointcontents           00cf850c     <common>
 0004:006a9510       _c_patch_traces            00cf8510     <common>
 0004:006a9514       _box_planes                00cf8514     <common>
 0004:006a9518       _uivm                      00cf8518     <common>
 0004:006a9524       _cl_debuggraph             00cf8524     <common>
 0004:006a9534       _cl_graphscale             00cf8534     <common>
 0004:006a9538       _cl_graphshift             00cf8538     <common>
 0004:006a953c       _cl_timegraph              00cf853c     <common>
 0004:006a9540       _cl_graphheight            00cf8540     <common>
 0004:006a9544       _scr_initialized           00cf8544     <common>
 0004:006a9548       _cl_connectedToPureServer  00cf8548     <common>
 0004:006a9554       _cl_conXOffset             00cf8554     <common>
 0004:006fdd64       _cl_allowDownload          00d4cd64     <common>
 0004:006fdd68       _cl_showSend               00d4cd68     <common>
 0004:006fdd6c       _rconAddress               00d4cd6c     <common>
 0004:006fdd70       _cl_avidemo                00d4cd70     <common>
 0004:006fdd80       _re                        00d4cd80     <common>
 0004:006fddf4       _cl_nodelta                00d4cdf4     <common>
 0004:006fddf8       _cl_trn                    00d4cdf8     <common>
 0004:006fde00       _cl                        00d4ce00     <common>
 0004:007a3a48       _cl_sensitivity            00df2a48     <common>
 0004:007a3a4c       _cl_forceavidemo           00df2a4c     <common>
 0004:007a3a50       _cl_timeout                00df2a50     <common>
 0004:007a3a54       _m_yaw                     00df2a54     <common>
 0004:007a3a58       _m_pitch                   00df2a58     <common>
 0004:007a3a5c       _cl_activeAction           00df2a5c     <common>
 0004:007a3a60       _cl_shownet                00df2a60     <common>
 0004:007a3a64       _serverStatusCount         00df2a64     <common>
 0004:007a3a80       _cls                       00df2a80     <common>
 0004:00853460       _cl_pinglist               00ea2460     <common>
 0004:0085b7e0       _cl_showMouseRate          00eaa7e0     <common>
 0004:0085b7e4       _m_forward                 00eaa7e4     <common>
 0004:0085b7e8       _cl_packetdup              00eaa7e8     <common>
 0004:0085b7ec       _cl_mouseAccel             00eaa7ec     <common>
 0004:0085b800       _clc                       00eaa800     <common>
 0004:008842fc       _cl_maxpackets             00ed32fc     <common>
 0004:00884300       _cl_motd                   00ed3300     <common>
 0004:00884304       _cl_timedemo               00ed3304     <common>
 0004:00884308       _cl_motdString             00ed3308     <common>
 0004:0088430c       _cl_freezeDemo             00ed330c     <common>
 0004:00884310       _cl_showTimeDelta          00ed3310     <common>
 0004:00884320       _cl_serverStatusList       00ed3320     <common>
 0004:008a45a0       _cl_timeNudge              00ef35a0     <common>
 0004:008a45a4       _cl_inGameVideo            00ef35a4     <common>
 0004:008a45a8       _cl_noprint                00ef35a8     <common>
 0004:008a45ac       _m_side                    00ef35ac     <common>
 0004:008a45b0       _cl_serverStatusResendTime 00ef35b0     <common>
 0004:008a45b4       _m_filter                  00ef35b4     <common>
 0004:008a45b8       _cl_debugMove              00ef35b8     <common>
 0004:008a45bc       _cgvm                      00ef35bc     <common>
 0004:008a45c0       _cl_freelook               00ef35c0     <common>
 0004:008a45c4       _rcon_client_password      00ef35c4     <common>
 0004:008a45c8       _historyLine               00ef35c8     <common>
 0004:008a4f60       _key_overstrikeMode        00ef3f60     <common>
 0004:008a4f64       _nextHistoryLine           00ef3f64     <common>
 0004:008a4f80       _g_consoleField            00ef3f80     <common>
 0004:008a508c       _anykeydown                00ef408c     <common>
 0004:008a5090       _chat_playerNum            00ef4090     <common>
 0004:008a50a0       _keys                      00ef40a0     <common>
 0004:008a5ca0       _chat_team                 00ef4ca0     <common>
 0004:008a5cc0       _chatField                 00ef4cc0     <common>
 0004:008a5de0       _historyEditLines          00ef4de0     <common>
 0004:008a7f60       _in_up                     00ef6f60     <common>
 0004:008a8020       _in_forward                00ef7020     <common>
 0004:008a8040       _in_buttons                00ef7040     <common>
 0004:008a81c0       _in_right                  00ef71c0     <common>
 0004:008a81d8       _cl_yawspeed               00ef71d8     <common>
 0004:008a81e0       _in_lookdown               00ef71e0     <common>
 0004:008a8200       _in_left                   00ef7200     <common>
 0004:008a8220       _in_moveleft               00ef7220     <common>
 0004:008a8238       _cl_upspeed                00ef7238     <common>
 0004:008a823c       _cl_sidespeed              00ef723c     <common>
 0004:008a8240       _old_com_frameTime         00ef7240     <common>
 0004:008a8260       _in_down                   00ef7260     <common>
 0004:008a8280       _in_strafe                 00ef7280     <common>
 0004:008a8298       _frame_msec                00ef7298     <common>
 0004:008a829c       _in_mlooking               00ef729c     <common>
 0004:008a82a0       _in_speed                  00ef72a0     <common>
 0004:008a82b8       _cl_pitchspeed             00ef72b8     <common>
 0004:008a82c0       _in_lookup                 00ef72c0     <common>
 0004:008a82d8       _cl_run                    00ef72d8     <common>
 0004:008a82dc       _cl_forwardspeed           00ef72dc     <common>
 0004:008a82e0       _in_moveright              00ef72e0     <common>
 0004:008a82f8       _cl_anglespeedkey          00ef72f8     <common>
 0004:008a8300       _in_back                   00ef7300     <common>
 0004:008a8318       _con_notifytime            00ef7318     <common>
 0004:008ab680       _con                       00efa680     <common>
 0004:008bb6c8       _con_conspeed              00f0a6c8     <common>
 0004:008bb6cc       _r_activeFlares            00f0a6cc     <common>
 0004:008bbce0       _r_flareStructs            00f0ace0     <common>
 0004:008bdae0       _r_inactiveFlares          00f0cae0     <common>
 0004:008bdae4       _c_gridVerts               00f0cae4     <common>
 0004:008bdaf4       _c_subdivisions            00f0caf4     <common>
 0004:008bdaf8       _glimpRenderThread         00f0caf8     <common>
 0004:008bdb14       _renderThreadHandle        00f0cb14     <common>
 0004:008bdb18       _renderActiveEvent         00f0cb18     <common>
 0004:008bdb1c       _r_maskMinidriver          00f0cb1c     <common>
 0004:008bdb20       _renderCommandsEvent       00f0cb20     <common>
 0004:008bdb24       _r_allowSoftwareGL         00f0cb24     <common>
 0004:008bdb40       _glw_state                 00f0cb40     <common>
 0004:008bdb6c       _renderThreadId            00f0cb6c     <common>
 0004:008bdb70       _renderCompletedEvent      00f0cb70     <common>
 0004:008bdb80       _tess                      00f0cb80     <common>
 0004:008dc334       _r_numentities             00f2b334     <common>
 0004:008dc348       _r_numdlights              00f2b348     <common>
 0004:008dc34c       _r_firstSceneDlight        00f2b34c     <common>
 0004:008dc350       _r_numpolyverts            00f2b350     <common>
 0004:008dc354       _r_firstScenePoly          00f2b354     <common>
 0004:008dc358       _r_firstSceneDrawSurf      00f2b358     <common>
 0004:008dc35c       _r_firstSceneEntity        00f2b35c     <common>
 0004:008dc360       _r_numpolys                00f2b360     <common>
 0004:008dc364       _loadmodel                 00f2b364     <common>
 0004:008dc370       _backEndData               00f2b370     <common>
 0004:008dc4a0       _backEnd                   00f2b4a0     <common>
 0004:008dc9ac       _renderCommandList         00f2b9ac     <common>
 0004:008dc9bc       _c_blockedOnMain           00f2b9bc     <common>
 0004:008dc9c0       _renderThreadActive        00f2b9c0     <common>
 0004:008dc9c4       _c_blockedOnRender         00f2b9c4     <common>
 0004:008dc9c8       _qglLoadIdentity           00f2b9c8     <common>
 0004:008dcafc       _qglEvalCoord2f            00f2bafc     <common>
 0004:008dcb00       _qglGetPointerv            00f2bb00     <common>
 0004:008dcb04       _qglGetError               00f2bb04     <common>
 0004:008dcb08       _qglTexCoord4d             00f2bb08     <common>
 0004:008dcb0c       _qglDepthFunc              00f2bb0c     <common>
 0004:008dcb10       _qglLighti                 00f2bb10     <common>
 0004:008dcb14       _qglCopyTexSubImage1D      00f2bb14     <common>
 0004:008dcb18       _qglVertex3s               00f2bb18     <common>
 0004:008dcb1c       _qglLightModelf            00f2bb1c     <common>
 0004:008dcb20       _qglInitNames              00f2bb20     <common>
 0004:008dcb24       _qwglUseFontBitmaps        00f2bb24     <common>
 0004:008dcb28       _qglShadeModel             00f2bb28     <common>
 0004:008dcb2c       _qglGetMaterialiv          00f2bb2c     <common>
 0004:008dcb30       _qglTexCoord3iv            00f2bb30     <common>
 0004:008dcb34       _qglMapGrid1d              00f2bb34     <common>
 0004:008dcb38       _qglListBase               00f2bb38     <common>
 0004:008dcb3c       _qglNormal3d               00f2bb3c     <common>
 0004:008dcb40       _qglRasterPos4dv           00f2bb40     <common>
 0004:008dcb44       _qglGetMapiv               00f2bb44     <common>
 0004:008dcb48       _qglVertex3i               00f2bb48     <common>
 0004:008dcb4c       _qglTexCoord4iv            00f2bb4c     <common>
 0004:008dcb50       _qglEvalCoord1d            00f2bb50     <common>
 0004:008dcb54       _qglMaterialfv             00f2bb54     <common>
 0004:008dcb58       _qglEnableClientState      00f2bb58     <common>
 0004:008dcb5c       _qglEdgeFlagv              00f2bb5c     <common>
 0004:008dcb60       _qglMaterialiv             00f2bb60     <common>
 0004:008dcb64       _qglNormal3bv              00f2bb64     <common>
 0004:008dcb68       _qglDisableClientState     00f2bb68     <common>
 0004:008dcb6c       _qwglSwapBuffers           00f2bb6c     <common>
 0004:008dcb70       _qglRectd                  00f2bb70     <common>
 0004:008dcb74       _qglColor4bv               00f2bb74     <common>
 0004:008dcb78       _qwglUseFontOutlines       00f2bb78     <common>
 0004:008dcb7c       _qglGetTexEnviv            00f2bb7c     <common>
 0004:008dcb80       _qglTexCoord3d             00f2bb80     <common>
 0004:008dcb84       _qglVertex3f               00f2bb84     <common>
 0004:008dcb88       _qglEndList                00f2bb88     <common>
 0004:008dcb8c       _qglTexCoordPointer        00f2bb8c     <common>
 0004:008dcb90       _qglTexCoord3i             00f2bb90     <common>
 0004:008dcb94       _qglTexEnvf                00f2bb94     <common>
 0004:008dcb98       _qglFogiv                  00f2bb98     <common>
 0004:008dcb9c       _qglRasterPos3f            00f2bb9c     <common>
 0004:008dcba0       _qglMap2f                  00f2bba0     <common>
 0004:008dcba4       _qglTexCoord4dv            00f2bba4     <common>
 0004:008dcba8       _qglDisable                00f2bba8     <common>
 0004:008dcbac       _qglColor4uiv              00f2bbac     <common>
 0004:008dcbb0       _qglRasterPos2d            00f2bbb0     <common>
 0004:008dcbb4       _qglFogfv                  00f2bbb4     <common>
 0004:008dcbb8       _qwglSwapLayerBuffers      00f2bbb8     <common>
 0004:008dcbbc       _qwglShareLists            00f2bbbc     <common>
 0004:008dcbc0       _qglTexEnvfv               00f2bbc0     <common>
 0004:008dcbc4       _qglPrioritizeTextures     00f2bbc4     <common>
 0004:008dcbc8       _qglLoadName               00f2bbc8     <common>
 0004:008dcbcc       _qglColor3ub               00f2bbcc     <common>
 0004:008dcbd0       _qglTexSubImage1D          00f2bbd0     <common>
 0004:008dcbd4       _qglColor4ub               00f2bbd4     <common>
 0004:008dcbd8       _qglRecti                  00f2bbd8     <common>
 0004:008dcbdc       _qglTexParameteriv         00f2bbdc     <common>
 0004:008dcbe0       _qglTexCoord3dv            00f2bbe0     <common>
 0004:008dcbe4       _dllGetString              00f2bbe4     <common>
 0004:008dcbe8       _qglColor3d                00f2bbe8     <common>
 0004:008dcbec       _qglLineStipple            00f2bbec     <common>
 0004:008dcbf0       _qglGetTexParameterfv      00f2bbf0     <common>
 0004:008dcbf4       _qglGetPixelMapfv          00f2bbf4     <common>
 0004:008dcbf8       _qglNormal3iv              00f2bbf8     <common>
 0004:008dcbfc       _qglTexCoord1iv            00f2bbfc     <common>
 0004:008dcc00       _qglTexCoord4f             00f2bc00     <common>
 0004:008dcc04       _qglTexCoord1f             00f2bc04     <common>
 0004:008dcc08       _qglOrtho                  00f2bc08     <common>
 0004:008dcc0c       _qglVertex3fv              00f2bc0c     <common>
 0004:008dcc10       _qglRasterPos2f            00f2bc10     <common>
 0004:008dcc14       _qglColor4b                00f2bc14     <common>
 0004:008dcc18       _qglPixelStoref            00f2bc18     <common>
 0004:008dcc1c       _qglBlendFunc              00f2bc1c     <common>
 0004:008dcc20       _qglRasterPos3sv           00f2bc20     <common>
 0004:008dcc24       _qglIndexsv                00f2bc24     <common>
 0004:008dcc28       _qwglCopyContext           00f2bc28     <common>
 0004:008dcc2c       _qglSelectBuffer           00f2bc2c     <common>
 0004:008dcc30       _qglPixelTransferf         00f2bc30     <common>
 0004:008dcc34       _qglVertex2s               00f2bc34     <common>
 0004:008dcc38       _qwglDescribePixelFormat   00f2bc38     <common>
 0004:008dcc3c       _qglTexGend                00f2bc3c     <common>
 0004:008dcc40       _qglNormal3dv              00f2bc40     <common>
 0004:008dcc44       _qglVertex3dv              00f2bc44     <common>
 0004:008dcc48       _qglGetBooleanv            00f2bc48     <common>
 0004:008dcc4c       _qglRasterPos2dv           00f2bc4c     <common>
 0004:008dcc50       _qglVertex2dv              00f2bc50     <common>
 0004:008dcc54       _qwglCreateLayerContext    00f2bc54     <common>
 0004:008dcc58       _qglClipPlane              00f2bc58     <common>
 0004:008dcc5c       _qglPixelZoom              00f2bc5c     <common>
 0004:008dcc60       _qglTexCoord4fv            00f2bc60     <common>
 0004:008dcc64       _qglGetString              00f2bc64     <common>
 0004:008dcc68       _qglRasterPos2fv           00f2bc68     <common>
 0004:008dcc6c       _qglRasterPos3d            00f2bc6c     <common>
 0004:008dcc70       _qwglChoosePixelFormat     00f2bc70     <common>
 0004:008dcc74       _qglColor4i                00f2bc74     <common>
 0004:008dcc78       _qglIndexs                 00f2bc78     <common>
 0004:008dcc7c       _qglLightModelfv           00f2bc7c     <common>
 0004:008dcc80       _qglColor3iv               00f2bc80     <common>
 0004:008dcc84       _qglPushClientAttrib       00f2bc84     <common>
 0004:008dcc88       _qglTexCoord1sv            00f2bc88     <common>
 0004:008dcc8c       _qglRotated                00f2bc8c     <common>
 0004:008dcc90       _qwglGetCurrentContext     00f2bc90     <common>
 0004:008dcc94       _qglScaled                 00f2bc94     <common>
 0004:008dcc98       _qglColor3s                00f2bc98     <common>
 0004:008dcc9c       _qglRectsv                 00f2bc9c     <common>
 0004:008dcca0       _qglPixelStorei            00f2bca0     <common>
 0004:008dcca4       _qglRasterPos3iv           00f2bca4     <common>
 0004:008dcca8       _qglFogi                   00f2bca8     <common>
 0004:008dccac       _qglCallLists              00f2bcac     <common>
 0004:008dccb0       _qglTexCoord3s             00f2bcb0     <common>
 0004:008dccb4       _qglGenLists               00f2bcb4     <common>
 0004:008dccb8       _qglMap1f                  00f2bcb8     <common>
 0004:008dccbc       _qglVertex4sv              00f2bcbc     <common>
 0004:008dccc0       _qglTexImage2D             00f2bcc0     <common>
 0004:008dccc4       _qglGetMapfv               00f2bcc4     <common>
 0004:008dccc8       _qglEdgeFlagPointer        00f2bcc8     <common>
 0004:008dcccc       _qglGetDoublev             00f2bccc     <common>
 0004:008dccd0       _qglClearIndex             00f2bcd0     <common>
 0004:008dccd4       _qglColorMaterial          00f2bcd4     <common>
 0004:008dccd8       _qglLoadMatrixf            00f2bcd8     <common>
 0004:008dccdc       _qglPixelMapuiv            00f2bcdc     <common>
 0004:008dcce0       _qglLightModeliv           00f2bce0     <common>
 0004:008dcce4       _qglGetTexGeniv            00f2bce4     <common>
 0004:008dcce8       _qglRectf                  00f2bce8     <common>
 0004:008dccec       _qglTexCoord2f             00f2bcec     <common>
 0004:008dccf0       _qglGetIntegerv            00f2bcf0     <common>
 0004:008dccf4       _qglVertex2d               00f2bcf4     <common>
 0004:008dccf8       _qglGetMapdv               00f2bcf8     <common>
 0004:008dccfc       _qglIsTexture              00f2bcfc     <common>
 0004:008dcd00       _qglGetPixelMapusv         00f2bd00     <common>
 0004:008dcd04       _qglDepthMask              00f2bd04     <common>
 0004:008dcd08       _qglMatrixMode             00f2bd08     <common>
 0004:008dcd0c       _qglPolygonMode            00f2bd0c     <common>
 0004:008dcd10       _qglTexCoord4s             00f2bd10     <common>
 0004:008dcd14       _qglPushMatrix             00f2bd14     <common>
 0004:008dcd18       _qwglGetProcAddress        00f2bd18     <common>
 0004:008dcd1c       _qglVertex2i               00f2bd1c     <common>
 0004:008dcd20       _qglRasterPos3s            00f2bd20     <common>
 0004:008dcd24       _qglNormal3f               00f2bd24     <common>
 0004:008dcd28       _qglIndexPointer           00f2bd28     <common>
 0004:008dcd2c       _qglAreTexturesResident    00f2bd2c     <common>
 0004:008dcd30       _qglIndexfv                00f2bd30     <common>
 0004:008dcd34       _qglColorMask              00f2bd34     <common>
 0004:008dcd38       _qglIndexd                 00f2bd38     <common>
 0004:008dcd3c       _qglGetLightfv             00f2bd3c     <common>
 0004:008dcd40       _qglColor4usv              00f2bd40     <common>
 0004:008dcd44       _qglRasterPos4s            00f2bd44     <common>
 0004:008dcd48       _qglLogicOp                00f2bd48     <common>
 0004:008dcd4c       _qglPushName               00f2bd4c     <common>
 0004:008dcd50       _qglTexSubImage2D          00f2bd50     <common>
 0004:008dcd54       _qglEvalCoord2dv           00f2bd54     <common>
 0004:008dcd58       _qglRectiv                 00f2bd58     <common>
 0004:008dcd5c       _qglStencilFunc            00f2bd5c     <common>
 0004:008dcd60       _qglPopAttrib              00f2bd60     <common>
 0004:008dcd64       _qglTexCoord2fv            00f2bd64     <common>
 0004:008dcd68       _qglRasterPos4i            00f2bd68     <common>
 0004:008dcd6c       _qglColor3b                00f2bd6c     <common>
 0004:008dcd70       _qglPixelMapfv             00f2bd70     <common>
 0004:008dcd74       _qglColor4ubv              00f2bd74     <common>
 0004:008dcd78       _dllIsList                 00f2bd78     <common>
 0004:008dcd7c       _qglFlush                  00f2bd7c     <common>
 0004:008dcd80       _qglColor3ui               00f2bd80     <common>
 0004:008dcd84       _qglEnd                    00f2bd84     <common>
 0004:008dcd88       _qglColor3dv               00f2bd88     <common>
 0004:008dcd8c       _qglTranslated             00f2bd8c     <common>
 0004:008dcd90       _qglNewList                00f2bd90     <common>
 0004:008dcd94       _qglGetTexLevelParameteriv 00f2bd94     <common>
 0004:008dcd98       _qglTexGenfv               00f2bd98     <common>
 0004:008dcd9c       _qglReadPixels             00f2bd9c     <common>
 0004:008dcda0       _qglGenTextures            00f2bda0     <common>
 0004:008dcda4       _qglRasterPos2sv           00f2bda4     <common>
 0004:008dcda8       _qglTexCoord1d             00f2bda8     <common>
 0004:008dcdac       _qglAccum                  00f2bdac     <common>
 0004:008dcdb0       _qglColor4ui               00f2bdb0     <common>
 0004:008dcdb4       _qglScalef                 00f2bdb4     <common>
 0004:008dcdb8       _qglRasterPos4iv           00f2bdb8     <common>
 0004:008dcdbc       _qglIndexubv               00f2bdbc     <common>
 0004:008dcdc0       _qglEnable                 00f2bdc0     <common>
 0004:008dcdc4       _qglVertex3sv              00f2bdc4     <common>
 0004:008dcdc8       _qglRasterPos2i            00f2bdc8     <common>
 0004:008dcdcc       _qglTexGenf                00f2bdcc     <common>
 0004:008dcdd0       _qglNormal3b               00f2bdd0     <common>
 0004:008dcdd4       _qglIndexf                 00f2bdd4     <common>
 0004:008dcdd8       _qglPushAttrib             00f2bdd8     <common>
 0004:008dcddc       _qglTexCoord2d             00f2bddc     <common>
 0004:008dcde0       _qglLightiv                00f2bde0     <common>
 0004:008dcde4       _qglPassThrough            00f2bde4     <common>
 0004:008dcde8       _qglCopyPixels             00f2bde8     <common>
 0004:008dcdec       _qglMap2d                  00f2bdec     <common>
 0004:008dcdf0       _qglIndexi                 00f2bdf0     <common>
 0004:008dcdf4       _qglColor3sv               00f2bdf4     <common>
 0004:008dcdf8       _qglVertex4i               00f2bdf8     <common>
 0004:008dcdfc       _qglDrawArrays             00f2bdfc     <common>
 0004:008dce00       _qglEvalMesh1              00f2be00     <common>
 0004:008dce04       _qglColor3usv              00f2be04     <common>
 0004:008dce08       _qglNormalPointer          00f2be08     <common>
 0004:008dce0c       _qglRasterPos3dv           00f2be0c     <common>
 0004:008dce10       _qglColor3f                00f2be10     <common>
 0004:008dce14       _qglLoadMatrixd            00f2be14     <common>
 0004:008dce18       _qglEvalPoint1             00f2be18     <common>
 0004:008dce1c       _qglReadBuffer             00f2be1c     <common>
 0004:008dce20       _qglBindTexture            00f2be20     <common>
 0004:008dce24       _dllRenderMode             00f2be24     <common>
 0004:008dce28       _qglEvalCoord1dv           00f2be28     <common>
 0004:008dce2c       _qglTexCoord2iv            00f2be2c     <common>
 0004:008dce30       _qglPolygonOffset          00f2be30     <common>
 0004:008dce34       _qglRasterPos4fv           00f2be34     <common>
 0004:008dce38       _qglTexCoord1dv            00f2be38     <common>
 0004:008dce3c       _qglIndexub                00f2be3c     <common>
 0004:008dce40       _qglArrayElement           00f2be40     <common>
 0004:008dce44       _qglVertex4dv              00f2be44     <common>
 0004:008dce48       _qglColor3fv               00f2be48     <common>
 0004:008dce4c       _qglNormal3i               00f2be4c     <common>
 0004:008dce50       _qglMultMatrixd            00f2be50     <common>
 0004:008dce54       _qglDrawElements           00f2be54     <common>
 0004:008dce58       _qglTexEnvi                00f2be58     <common>
 0004:008dce5c       _qglVertex2f               00f2be5c     <common>
 0004:008dce60       _qglColor4d                00f2be60     <common>
 0004:008dce64       _qglEvalPoint2             00f2be64     <common>
 0004:008dce68       _qglGetTexLevelParameterfv 00f2be68     <common>
 0004:008dce6c       _qglHint                   00f2be6c     <common>
 0004:008dce70       _qglPopName                00f2be70     <common>
 0004:008dce74       _dllGetError               00f2be74     <common>
 0004:008dce78       _qglVertex2iv              00f2be78     <common>
 0004:008dce7c       _qglRectfv                 00f2be7c     <common>
 0004:008dce80       _qwglGetCurrentDC          00f2be80     <common>
 0004:008dce84       _qglColor4dv               00f2be84     <common>
 0004:008dce88       _qglColor3bv               00f2be88     <common>
 0004:008dce8c       _qglLightfv                00f2be8c     <common>
 0004:008dce90       _qglIndexiv                00f2be90     <common>
 0004:008dce94       _qglTexCoord4sv            00f2be94     <common>
 0004:008dce98       _qglPixelTransferi         00f2be98     <common>
 0004:008dce9c       _qglAlphaFunc              00f2be9c     <common>
 0004:008dcea0       _qglScissor                00f2bea0     <common>
 0004:008dcea4       _qglRotatef                00f2bea4     <common>
 0004:008dcea8       _qglTranslatef             00f2bea8     <common>
 0004:008dceac       _qwglGetLayerPaletteEntries 00f2beac     <common>
 0004:008dceb0       _qglTexCoord2dv            00f2beb0     <common>
 0004:008dceb4       _qglTexImage1D             00f2beb4     <common>
 0004:008dceb8       _qglColor4iv               00f2beb8     <common>
 0004:008dcebc       _qglGetTexParameteriv      00f2bebc     <common>
 0004:008dcec0       _qglDrawBuffer             00f2bec0     <common>
 0004:008dcec4       _qglCullFace               00f2bec4     <common>
 0004:008dcec8       _qglRasterPos4d            00f2bec8     <common>
 0004:008dcecc       _qglVertex4iv              00f2becc     <common>
 0004:008dced0       _qglVertex2sv              00f2bed0     <common>
 0004:008dced4       _qglCopyTexImage1D         00f2bed4     <common>
 0004:008dced8       _qwglDescribeLayerPlane    00f2bed8     <common>
 0004:008dcedc       _qglTexParameterfv         00f2bedc     <common>
 0004:008dcee0       _qglRenderMode             00f2bee0     <common>
 0004:008dcee4       _qglRasterPos4f            00f2bee4     <common>
 0004:008dcee8       _qglPopClientAttrib        00f2bee8     <common>
 0004:008dceec       _qwglDeleteContext         00f2beec     <common>
 0004:008dcef0       _qglFinish                 00f2bef0     <common>
 0004:008dcef4       _qglGetTexEnvfv            00f2bef4     <common>
 0004:008dcef8       _qglEvalCoord1f            00f2bef8     <common>
 0004:008dcefc       _qglBegin                  00f2befc     <common>
 0004:008dcf00       _qglDeleteLists            00f2bf00     <common>
 0004:008dcf04       _qglFeedbackBuffer         00f2bf04     <common>
 0004:008dcf08       _qglRasterPos3fv           00f2bf08     <common>
 0004:008dcf0c       _qwglSetPixelFormat        00f2bf0c     <common>
 0004:008dcf10       _qglEvalCoord1fv           00f2bf10     <common>
 0004:008dcf14       _qglClear                  00f2bf14     <common>
 0004:008dcf18       _qglPointSize              00f2bf18     <common>
 0004:008dcf1c       _qglDepthRange             00f2bf1c     <common>
 0004:008dcf20       _qglPopMatrix              00f2bf20     <common>
 0004:008dcf24       _qglMapGrid2f              00f2bf24     <common>
 0004:008dcf28       _qglGetTexGendv            00f2bf28     <common>
 0004:008dcf2c       _qglGetTexImage            00f2bf2c     <common>
 0004:008dcf30       _qglVertex2fv              00f2bf30     <common>
 0004:008dcf34       _qglVertex3d               00f2bf34     <common>
 0004:008dcf38       _qglNormal3fv              00f2bf38     <common>
 0004:008dcf3c       _qglTexCoord3sv            00f2bf3c     <common>
 0004:008dcf40       _qglColor3ubv              00f2bf40     <common>
 0004:008dcf44       _qglEvalCoord2fv           00f2bf44     <common>
 0004:008dcf48       _qglDrawPixels             00f2bf48     <common>
 0004:008dcf4c       _qwglGetPixelFormat        00f2bf4c     <common>
 0004:008dcf50       _qglGetPixelMapuiv         00f2bf50     <common>
 0004:008dcf54       _qglColor3uiv              00f2bf54     <common>
 0004:008dcf58       _qglStencilOp              00f2bf58     <common>
 0004:008dcf5c       _qglColorPointer           00f2bf5c     <common>
 0004:008dcf60       _qglGetLightiv             00f2bf60     <common>
 0004:008dcf64       _qglFrontFace              00f2bf64     <common>
 0004:008dcf68       _dllGenLists               00f2bf68     <common>
 0004:008dcf6c       _qglMaterialf              00f2bf6c     <common>
 0004:008dcf70       _qwglSetLayerPaletteEntries 00f2bf70     <common>
 0004:008dcf74       _qglClearAccum             00f2bf74     <common>
 0004:008dcf78       _qglColor3us               00f2bf78     <common>
 0004:008dcf7c       _qglEvalMesh2              00f2bf7c     <common>
 0004:008dcf80       _qwglRealizeLayerPalette   00f2bf80     <common>
 0004:008dcf84       _qglColor3i                00f2bf84     <common>
 0004:008dcf88       _qglViewport               00f2bf88     <common>
 0004:008dcf8c       _qglVertex3iv              00f2bf8c     <common>
 0004:008dcf90       _qglGetTexGenfv            00f2bf90     <common>
 0004:008dcf94       _qglIndexMask              00f2bf94     <common>
 0004:008dcf98       _qglVertex4d               00f2bf98     <common>
 0004:008dcf9c       _qwglSwapIntervalEXT       00f2bf9c     <common>
 0004:008dcfa0       _qglEdgeFlag               00f2bfa0     <common>
 0004:008dcfa4       _qglRasterPos2iv           00f2bfa4     <common>
 0004:008dcfa8       _qglTexEnviv               00f2bfa8     <common>
 0004:008dcfac       _qglVertexPointer          00f2bfac     <common>
 0004:008dcfb0       _qglDeleteTextures         00f2bfb0     <common>
 0004:008dcfb4       _qglCopyTexImage2D         00f2bfb4     <common>
 0004:008dcfb8       _qglClearColor             00f2bfb8     <common>
 0004:008dcfbc       _qglFrustum                00f2bfbc     <common>
 0004:008dcfc0       _qglColor4sv               00f2bfc0     <common>
 0004:008dcfc4       _dllIsTexture              00f2bfc4     <common>
 0004:008dcfc8       _qglLightf                 00f2bfc8     <common>
 0004:008dcfcc       _qglBitmap                 00f2bfcc     <common>
 0004:008dcfd0       _qglColor4s                00f2bfd0     <common>
 0004:008dcfd4       _qglIsEnabled              00f2bfd4     <common>
 0004:008dcfd8       _qglGetMaterialfv          00f2bfd8     <common>
 0004:008dcfdc       _qglColor4f                00f2bfdc     <common>
 0004:008dcfe0       _qglTexCoord2sv            00f2bfe0     <common>
 0004:008dcfe4       _qglMapGrid2d              00f2bfe4     <common>
 0004:008dcfe8       _qglRectdv                 00f2bfe8     <common>
 0004:008dcfec       _qglFogf                   00f2bfec     <common>
 0004:008dcff0       _qglGetClipPlane           00f2bff0     <common>
 0004:008dcff4       _qglTexGendv               00f2bff4     <common>
 0004:008dcff8       _qglRasterPos2s            00f2bff8     <common>
 0004:008dcffc       _qglInterleavedArrays      00f2bffc     <common>
 0004:008dd000       _qglTexCoord4i             00f2c000     <common>
 0004:008dd004       _qglTexCoord1i             00f2c004     <common>
 0004:008dd008       _qglStencilMask            00f2c008     <common>
 0004:008dd00c       _qglTexGeniv               00f2c00c     <common>
 0004:008dd010       _qglTexGeni                00f2c010     <common>
 0004:008dd014       _qglVertex4f               00f2c014     <common>
 0004:008dd018       _qglTexCoord2s             00f2c018     <common>
 0004:008dd01c       _qglTexCoord3f             00f2c01c     <common>
 0004:008dd020       _qglEvalCoord2d            00f2c020     <common>
 0004:008dd024       _qglMapGrid1f              00f2c024     <common>
 0004:008dd028       _qglTexCoord2i             00f2c028     <common>
 0004:008dd02c       _qglPixelMapusv            00f2c02c     <common>
 0004:008dd030       _qwglGetDeviceGammaRamp3DFX 00f2c030     <common>
 0004:008dd034       _qglTexCoord1fv            00f2c034     <common>
 0004:008dd038       _qwglCreateContext         00f2c038     <common>
 0004:008dd03c       _qglPolygonStipple         00f2c03c     <common>
 0004:008dd040       _qglCallList               00f2c040     <common>
 0004:008dd044       _qglClearDepth             00f2c044     <common>
 0004:008dd048       _qglColor4us               00f2c048     <common>
 0004:008dd04c       _qglTexParameteri          00f2c04c     <common>
 0004:008dd050       _qglGetFloatv              00f2c050     <common>
 0004:008dd054       _dllIsEnabled              00f2c054     <common>
 0004:008dd058       _qglIndexdv                00f2c058     <common>
 0004:008dd05c       _qglVertex4fv              00f2c05c     <common>
 0004:008dd060       _qglTexParameterf          00f2c060     <common>
 0004:008dd064       _qglRasterPos3i            00f2c064     <common>
 0004:008dd068       _qglLightModeli            00f2c068     <common>
 0004:008dd06c       _qglRects                  00f2c06c     <common>
 0004:008dd070       _qwglMakeCurrent           00f2c070     <common>
 0004:008dd074       _qglMultMatrixf            00f2c074     <common>
 0004:008dd078       _qglMap1d                  00f2c078     <common>
 0004:008dd07c       _qglLineWidth              00f2c07c     <common>
 0004:008dd080       _qglMateriali              00f2c080     <common>
 0004:008dd084       _qglClearStencil           00f2c084     <common>
 0004:008dd088       _qglNormal3s               00f2c088     <common>
 0004:008dd08c       _dllAreTexturesResident    00f2c08c     <common>
 0004:008dd090       _qwglSetDeviceGammaRamp3DFX 00f2c090     <common>
 0004:008dd094       _qglTexCoord1s             00f2c094     <common>
 0004:008dd098       _qglRasterPos4sv           00f2c098     <common>
 0004:008dd09c       _qglTexCoord3fv            00f2c09c     <common>
 0004:008dd0a0       _qglIsList                 00f2c0a0     <common>
 0004:008dd0a4       _qglColor4fv               00f2c0a4     <common>
 0004:008dd0a8       _qglVertex4s               00f2c0a8     <common>
 0004:008dd0ac       _qglNormal3sv              00f2c0ac     <common>
 0004:008dd0b0       _qglGetPolygonStipple      00f2c0b0     <common>
 0004:008dd0b4       _qglCopyTexSubImage2D      00f2c0b4     <common>
 0004:008dd0c0       _tr                        00f2c0c0     <common>
 0004:0090f520       _ri                        00f5e520     <common>
 0004:0090f588       _r_nocurves                00f5e588     <common>
 0004:0090fec4       _r_verbose                 00f5eec4     <common>
 0004:0090fec8       _r_picmip                  00f5eec8     <common>
 0004:0090fecc       _r_showImages              00f5eecc     <common>
 0004:0090fed0       _r_norefresh               00f5eed0     <common>
 0004:0090fed4       _r_colorbits               00f5eed4     <common>
 0004:0090fed8       _r_flares                  00f5eed8     <common>
 0004:0090fedc       _r_lightmap                00f5eedc     <common>
 0004:0090fee0       _r_intensity               00f5eee0     <common>
 0004:0090fee4       _r_ext_multitexture        00f5eee4     <common>
 0004:0090fee8       _r_colorMipLevels          00f5eee8     <common>
 0004:0090feec       _r_drawentities            00f5eeec     <common>
 0004:0090fef0       _r_shadows                 00f5eef0     <common>
 0004:0090fef4       _r_printShaders            00f5eef4     <common>
 0004:0090fef8       _r_showtris                00f5eef8     <common>
 0004:0090fefc       _r_measureOverdraw         00f5eefc     <common>
 0004:0090ff00       _r_allowExtensions         00f5ef00     <common>
 0004:0090ff04       _r_gamma                   00f5ef04     <common>
 0004:0090ff08       _r_portalOnly              00f5ef08     <common>
 0004:0090ff0c       _r_textureMode             00f5ef0c     <common>
 0004:0090ff10       _r_dlightBacks             00f5ef10     <common>
 0004:0090ff14       _r_maxpolyverts            00f5ef14     <common>
 0004:0090ff18       _r_lodbias                 00f5ef18     <common>
 0004:0090ff1c       _r_lodCurveError           00f5ef1c     <common>
 0004:0090ff20       _r_stencilbits             00f5ef20     <common>
 0004:0090ff24       _r_customwidth             00f5ef24     <common>
 0004:0090ff28       _qglClientActiveTextureARB 00f5ef28     <common>
 0004:0090ff2c       _r_ignore                  00f5ef2c     <common>
 0004:0090ff30       _r_flareSize               00f5ef30     <common>
 0004:0090ff34       _r_maxpolys                00f5ef34     <common>
 0004:0090ff38       _r_drawSun                 00f5ef38     <common>
 0004:0090ff3c       _qglActiveTextureARB       00f5ef3c     <common>
 0004:0090ff40       _r_nobind                  00f5ef40     <common>
 0004:0090ff44       _r_mode                    00f5ef44     <common>
 0004:0090ff48       _qglUnlockArraysEXT        00f5ef48     <common>
 0004:0090ff4c       _r_debugLight              00f5ef4c     <common>
 0004:0090ff50       _r_railSegmentLength       00f5ef50     <common>
 0004:0090ff54       _r_offsetFactor            00f5ef54     <common>
 0004:0090ff58       _r_lodscale                00f5ef58     <common>
 0004:0090ff5c       _r_drawworld               00f5ef5c     <common>
 0004:0090ff60       _r_railCoreWidth           00f5ef60     <common>
 0004:0090ff64       _r_customaspect            00f5ef64     <common>
 0004:0090ff68       _r_glDriver                00f5ef68     <common>
 0004:0090ff6c       _r_showcluster             00f5ef6c     <common>
 0004:0090ff70       _qglLockArraysEXT          00f5ef70     <common>
 0004:0090ff74       _r_stereo                  00f5ef74     <common>
 0004:0090ff78       _r_facePlaneCull           00f5ef78     <common>
 0004:0090ff7c       _r_fullbright              00f5ef7c     <common>
 0004:0090ff80       _r_uiFullScreen            00f5ef80     <common>
 0004:0090ff84       _r_drawBuffer              00f5ef84     <common>
 0004:0090ff88       _r_clear                   00f5ef88     <common>
 0004:0090ff8c       _qglMultiTexCoord2fARB     00f5ef8c     <common>
 0004:0090ff90       _r_nocull                  00f5ef90     <common>
 0004:0090ff94       _max_polyverts             00f5ef94     <common>
 0004:0090ff98       _max_polys                 00f5ef98     <common>
 0004:0090ff9c       _r_lockpvs                 00f5ef9c     <common>
 0004:0090ffa0       _r_noportals               00f5efa0     <common>
 0004:0090ffa4       _r_mapOverBrightBits       00f5efa4     <common>
 0004:0090ffa8       _r_vertexLight             00f5efa8     <common>
 0004:0090ffac       _r_offsetUnits             00f5efac     <common>
 0004:0090ffb0       _r_railWidth               00f5efb0     <common>
 0004:0090ffb4       _r_flareFade               00f5efb4     <common>
 0004:0090ffb8       _r_novis                   00f5efb8     <common>
 0004:0090ffbc       _r_dynamiclight            00f5efbc     <common>
 0004:0090ffc0       _r_ignoreFastPath          00f5efc0     <common>
 0004:0090ffc4       _r_ext_compressed_textures 00f5efc4     <common>
 0004:0090ffc8       _r_skipBackEnd             00f5efc8     <common>
 0004:0090ffcc       _r_overBrightBits          00f5efcc     <common>
 0004:0090ffd0       _r_fastsky                 00f5efd0     <common>
 0004:0090ffd4       _r_saveFontData            00f5efd4     <common>
 0004:0090ffd8       _r_singleShader            00f5efd8     <common>
 0004:0090ffdc       _r_ext_gamma_control       00f5efdc     <common>
 0004:0090ffe0       _glState                   00f5efe0     <common>
 0004:00910000       _r_debugSort               00f5f000     <common>
 0004:00910004       _r_ignoreGLErrors          00f5f004     <common>
 0004:00910008       _r_showSmp                 00f5f008     <common>
 0004:0091000c       _r_shownormals             00f5f00c     <common>
 0004:00910010       _r_inGameVideo             00f5f010     <common>
 0004:00910014       _r_primitives              00f5f014     <common>
 0004:00910018       _r_finish                  00f5f018     <common>
 0004:0091001c       _r_showsky                 00f5f01c     <common>
 0004:00910020       _r_texturebits             00f5f020     <common>
 0004:00910024       _r_roundImagesDown         00f5f024     <common>
 0004:00910028       _r_speeds                  00f5f028     <common>
 0004:0091002c       _r_customheight            00f5f02c     <common>
 0004:00910030       _r_ignorehwgamma           00f5f030     <common>
 0004:00910034       _r_swapInterval            00f5f034     <common>
 0004:00910038       _r_logFile                 00f5f038     <common>
 0004:0091003c       _r_ambientScale            00f5f03c     <common>
 0004:00910040       _r_displayRefresh          00f5f040     <common>
 0004:00910044       _r_smp                     00f5f044     <common>
 0004:00910048       _r_simpleMipMaps           00f5f048     <common>
 0004:0091004c       _r_subdivisions            00f5f04c     <common>
 0004:00910060       _glConfig                  00f5f060     <common>
 0004:00912ca4       _r_znear                   00f61ca4     <common>
 0004:00912ca8       _r_debugSurface            00f61ca8     <common>
 0004:00912cac       _r_ext_texture_env_add     00f61cac     <common>
 0004:00912cb0       _r_depthbits               00f61cb0     <common>
 0004:00912cb4       _r_directedScale           00f61cb4     <common>
 0004:00912cb8       _r_ext_compiled_vertex_array 00f61cb8     <common>
 0004:00912cbc       _r_detailTextures          00f61cbc     <common>
 0004:00912cc0       _basefolder                00f61cc0     <common>
 0004:00912d20       _bspworld                  00f61d20     <common>
 0004:009153a4       _calcgrapplereach          00f643a4     <common>
 0004:009153c4       _reach_equalfloor          00f643c4     <common>
 0004:009153c8       _reach_bfgjump             00f643c8     <common>
 0004:009153cc       _numlreachabilities        00f643cc     <common>
 0004:009153d0       _reach_elevator            00f643d0     <common>
 0004:009153d4       _reach_swim                00f643d4     <common>
 0004:009153d8       _reach_rocketjump          00f643d8     <common>
 0004:009153dc       _reach_funcbob             00f643dc     <common>
 0004:009153e0       _reachabilityheap          00f643e0     <common>
 0004:009153e4       _reach_waterjump           00f643e4     <common>
 0004:009153e8       _reach_walkoffledge        00f643e8     <common>
 0004:009153ec       _areareachability          00f643ec     <common>
 0004:009153f0       _reach_jumppad             00f643f0     <common>
 0004:009153f4       _reach_rampjump            00f643f4     <common>
 0004:009153f8       _reach_step                00f643f8     <common>
 0004:009153fc       _reach_doublejump          00f643fc     <common>
 0004:00915400       _reach_strafejump          00f64400     <common>
 0004:00915404       _reach_jump                00f64404     <common>
 0004:00915408       _reach_ladder              00f64408     <common>
 0004:0091540c       _reach_barrier             00f6440c     <common>
 0004:00915410       _reach_walk                00f64410     <common>
 0004:00915414       _reach_grapple             00f64414     <common>
 0004:00915418       _nextreachability          00f64418     <common>
 0004:0091541c       _reach_teleport            00f6441c     <common>
 0004:00915420       _midrangeareas             00f64420     <common>
 0004:00915430       _numclusterareas           00f64430     <common>
 0004:00915434       _clusterareas              00f64434     <common>
 0004:00915440       _aassettings               00f64440     <common>
 0004:00915504       _numaaslinks               00f64504     <common>
 0004:00915510       _numareacacheupdates       00f64510     <common>
 0004:00915520       _max_routingcachesize      00f64520     <common>
 0004:00915524       _routingcachesize          00f64524     <common>
 0004:00915528       _numportalcacheupdates     00f64528     <common>
 0004:0091552c       _numdebuglines             00f6452c     <common>
 0004:00915ba0       _debuglines                00f64ba0     <common>
 0004:00916ba0       _debuglinevisible          00f65ba0     <common>
 0004:00917ba0       _weightFileList            00f66ba0     <common>
 0004:00917e20       _botcharacters             00f66e20     <common>
 0004:00917f60       _allocatedmemory           00f66f60     <common>
 0004:00917f70       _numblocks                 00f66f70     <common>
 0004:00917f74       _totalmemorysize           00f66f74     <common>
 0004:00917f80       _sourceFiles               00f66f80     <common>
 0004:009180bc       _globaldefines             00f670bc     <common>
 0004:009180c0       _numtokens                 00f670c0     <common>
 0004:009180c4       _libvarlist                00f670c4     <common>
 0004:009180d0       _saveroutingcache          00f670d0     <common>
 0004:00918480       _aasworld                  00f67480     <common>
 0004:00919664       _botinputs                 00f68664     <common>
 0004:00919680       _botgoalstates             00f68680     <common>
 0004:009197c0       _botchatstates             00f687c0     <common>
 0004:00919940       _ichatdata                 00f68940     <common>
 0004:00919a40       _weapindex_bfg10k          00f68a40     <common>
 0004:00919b60       _modeltypes                00f68b60     <common>
 0004:00919f60       _weapindex_rocketlauncher  00f68f60     <common>
 0004:00919f64       _cmd_grappleoff            00f68f64     <common>
 0004:00919f68       _sv_gravity                00f68f68     <common>
 0004:00919f6c       _sv_maxstep                00f68f6c     <common>
 0004:00919f70       _cmd_grappleon             00f68f70     <common>
 0004:00919f74       _entitytypemissile         00f68f74     <common>
 0004:00919f78       _weapindex_grapple         00f68f78     <common>
 0004:00919f7c       _offhandgrapple            00f68f7c     <common>
 0004:00919f80       _botmovestates             00f68f80     <common>
 0004:0091a084       _sv_maxbarrier             00f69084     <common>
 0004:0091a0a0       _botimport                 00f690a0     <common>
 0004:0091a1a0       _be_botlib_export          00f691a0     <common>
 0004:0091a3c0       _botlibglobals             00f693c0     <common>
 0004:0091a3e8       _bot_developer             00f693e8     <common>
 0004:0091a3ec       ___mblcid                  00f693ec     <common>
 0004:0091a464       ___ptmbcinfo               00f69464     <common>
 0004:0091a468       ___ismbcodepage            00f69468     <common>
 0004:0091a480       __mbctype                  00f69480     <common>
 0004:0091a584       ___mbcodepage              00f69584     <common>
 0004:0091a590       ___mbulinfo                00f69590     <common>
 0004:0091a5a0       __mbcasemap                00f695a0     <common>
 0004:0091a6a0       ___ctype1                  00f696a0     <common>
 0004:0091a6b0       ___ctype1_refcount         00f696b0     <common>
 0004:0091a6b4       ___lconv_mon_refcount      00f696b4     <common>
 0004:0091a6c4       ___lconv_intl_refcount     00f696c4     <common>
 0004:0091a6c8       ___lconv_num_refcount      00f696c8     <common>
 0004:0091a6d4       __nhandle                  00f696d4     <common>
 0004:0091a720       ___pioinfo                 00f69720     <common>
 0004:0091a820       ___sbh_initialized         00f69820     <common>
 0004:0091a834       ___sbh_pHeaderDefer        00f69834     <common>
 0004:0091a838       ___sbh_cntHeaderList       00f69838     <common>
 0004:0091a83c       ___sbh_pHeaderList         00f6983c     <common>
 0004:0091a840       ___sbh_threshold           00f69840     <common>
 0004:0091a844       ___sbh_pHeaderScan         00f69844     <common>
 0004:0091a848       ___sbh_sizeHeaderList      00f69848     <common>
 0004:0091a84c       ___sbh_indGroupDefer       00f6984c     <common>
 0004:0091a850       __crtheap                  00f69850     <common>
 0004:0091a860       ___active_heap             00f69860     <common>
 0004:0091a864       __pfnReportHook            00f69864     <common>
 0004:0091a874       __pReportHookList          00f69874     <common>
 0004:0091a878       ___use_sse2_mathfcns       00f69878     <common>
 0004:0091a888       ___sse2_available          00f69888     <common>
 0004:0091a88c       ___piob                    00f6988c     <common>
 0004:0091abe0       __bufin                    00f69be0     <common>
 0004:0091bbe0       __nstream                  00f6abe0     <common>
 0004:0091bbe4       ___setlc_active            00f6abe4     <common>
 0004:0091bbf4       ___unguarded_readlc_active 00f6abf4     <common>
 0004:0091bbf8       __acmdln                   00f6abf8     <common>
 0004:0091bc04       ___env_initialized         00f6ac04     <common>
 0004:0091bc14       ___onexitend               00f6ac14     <common>
 0004:0091bc18       ___onexitbegin             00f6ac18     <common>
 0004:0091bc1c       ___mbctype_initialized     00f6ac1c     <common>
 0004:0091bc20       __pfnDumpClient            00f6ac20     <common>
 0004:0091bc2c       __setjmpexused             00f6ac2c     <common>
 0005:00000000       __IMPORT_DESCRIPTOR_WINMM  00f6b000     winmm:WINMM.dll
 0005:00000014       __IMPORT_DESCRIPTOR_WSOCK32 00f6b014     wsock32:WSOCK32.dll
 0005:00000028       __IMPORT_DESCRIPTOR_KERNEL32 00f6b028     kernel32:KERNEL32.dll
 0005:0000003c       __IMPORT_DESCRIPTOR_USER32 00f6b03c     user32:USER32.dll
 0005:00000050       __IMPORT_DESCRIPTOR_GDI32  00f6b050     gdi32:GDI32.dll
 0005:00000064       __IMPORT_DESCRIPTOR_ADVAPI32 00f6b064     advapi32:ADVAPI32.dll
 0005:00000078       __IMPORT_DESCRIPTOR_ole32  00f6b078     ole32:ole32.dll
 0005:0000008c       __NULL_IMPORT_DESCRIPTOR   00f6b08c     winmm:WINMM.dll
 0005:00000590       __imp__GetUserNameA@8      00f6b590     advapi32:ADVAPI32.dll
 0005:00000594       \177ADVAPI32_NULL_THUNK_DATA 00f6b594     advapi32:ADVAPI32.dll
 0005:000005c0       __imp__SetPixelFormat@12   00f6b5c0     gdi32:GDI32.dll
 0005:000005c4       __imp__SwapBuffers@4       00f6b5c4     gdi32:GDI32.dll
 0005:000005c8       __imp__DescribePixelFormat@16 00f6b5c8     gdi32:GDI32.dll
 0005:000005cc       __imp__GetDeviceGammaRamp@8 00f6b5cc     gdi32:GDI32.dll
 0005:000005d0       __imp__SetBkColor@8        00f6b5d0     gdi32:GDI32.dll
 0005:000005d4       __imp__SetTextColor@8      00f6b5d4     gdi32:GDI32.dll
 0005:000005d8       __imp__CreateSolidBrush@4  00f6b5d8     gdi32:GDI32.dll
 0005:000005dc       __imp__GetDeviceCaps@8     00f6b5dc     gdi32:GDI32.dll
 0005:000005e0       __imp__CreateFontA@56      00f6b5e0     gdi32:GDI32.dll
 0005:000005e4       __imp__SetDeviceGammaRamp@8 00f6b5e4     gdi32:GDI32.dll
 0005:000005e8       \177GDI32_NULL_THUNK_DATA  00f6b5e8     gdi32:GDI32.dll
 0005:0000061c       __imp__GetSystemInfo@4     00f6b61c     kernel32:KERNEL32.dll
 0005:00000620       __imp__VirtualProtect@16   00f6b620     kernel32:KERNEL32.dll
 0005:00000624       __imp__GetCurrentProcessId@0 00f6b624     kernel32:KERNEL32.dll
 0005:00000628       __imp__GetTickCount@0      00f6b628     kernel32:KERNEL32.dll
 0005:0000062c       __imp__QueryPerformanceCounter@4 00f6b62c     kernel32:KERNEL32.dll
 0005:00000630       __imp__GetOEMCP@0          00f6b630     kernel32:KERNEL32.dll
 0005:00000634       __imp__GetACP@0            00f6b634     kernel32:KERNEL32.dll
 0005:00000638       __imp__GetUserDefaultLCID@0 00f6b638     kernel32:KERNEL32.dll
 0005:0000063c       __imp__EnumSystemLocalesA@8 00f6b63c     kernel32:KERNEL32.dll
 0005:00000640       __imp__GetLocaleInfoA@16   00f6b640     kernel32:KERNEL32.dll
 0005:00000644       __imp__IsValidCodePage@4   00f6b644     kernel32:KERNEL32.dll
 0005:00000648       __imp__IsValidLocale@8     00f6b648     kernel32:KERNEL32.dll
 0005:0000064c       __imp__GetCPInfo@8         00f6b64c     kernel32:KERNEL32.dll
 0005:00000650       __imp__GetDateFormatA@24   00f6b650     kernel32:KERNEL32.dll
 0005:00000654       __imp__GetTimeFormatA@24   00f6b654     kernel32:KERNEL32.dll
 0005:00000658       __imp__GetStringTypeW@16   00f6b658     kernel32:KERNEL32.dll
 0005:0000065c       __imp__GetStringTypeA@20   00f6b65c     kernel32:KERNEL32.dll
 0005:00000660       __imp__SetEnvironmentVariableW@8 00f6b660     kernel32:KERNEL32.dll
 0005:00000664       __imp__GetProcAddress@8    00f6b664     kernel32:KERNEL32.dll
 0005:00000668       __imp__LoadLibraryA@4      00f6b668     kernel32:KERNEL32.dll
 0005:0000066c       __imp__GlobalMemoryStatus@4 00f6b66c     kernel32:KERNEL32.dll
 0005:00000670       __imp__GetDriveTypeA@4     00f6b670     kernel32:KERNEL32.dll
 0005:00000674       __imp__GlobalUnlock@4      00f6b674     kernel32:KERNEL32.dll
 0005:00000678       __imp__GlobalSize@4        00f6b678     kernel32:KERNEL32.dll
 0005:0000067c       __imp__GlobalLock@4        00f6b67c     kernel32:KERNEL32.dll
 0005:00000680       __imp__FreeLibrary@4       00f6b680     kernel32:KERNEL32.dll
 0005:00000684       __imp__GetVersionExA@4     00f6b684     kernel32:KERNEL32.dll
 0005:00000688       __imp__Sleep@4             00f6b688     kernel32:KERNEL32.dll
 0005:0000068c       __imp__SetErrorMode@4      00f6b68c     kernel32:KERNEL32.dll
 0005:00000690       __imp__MulDiv@12           00f6b690     kernel32:KERNEL32.dll
 0005:00000694       __imp__SetEnvironmentVariableA@8 00f6b694     kernel32:KERNEL32.dll
 0005:00000698       __imp__GetProcessHeap@0    00f6b698     kernel32:KERNEL32.dll
 0005:0000069c       __imp__GetEnvironmentStringsW@0 00f6b69c     kernel32:KERNEL32.dll
 0005:000006a0       __imp__FreeEnvironmentStringsW@4 00f6b6a0     kernel32:KERNEL32.dll
 0005:000006a4       __imp__VirtualQuery@12     00f6b6a4     kernel32:KERNEL32.dll
 0005:000006a8       __imp__FreeEnvironmentStringsA@4 00f6b6a8     kernel32:KERNEL32.dll
 0005:000006ac       __imp__UnhandledExceptionFilter@4 00f6b6ac     kernel32:KERNEL32.dll
 0005:000006b0       __imp__SetStdHandle@8      00f6b6b0     kernel32:KERNEL32.dll
 0005:000006b4       __imp__ReadFile@20         00f6b6b4     kernel32:KERNEL32.dll
 0005:000006b8       __imp__CloseHandle@4       00f6b6b8     kernel32:KERNEL32.dll
 0005:000006bc       __imp__GetFileType@4       00f6b6bc     kernel32:KERNEL32.dll
 0005:000006c0       __imp__SetHandleCount@4    00f6b6c0     kernel32:KERNEL32.dll
 0005:000006c4       __imp__SetFilePointer@16   00f6b6c4     kernel32:KERNEL32.dll
 0005:000006c8       __imp__VirtualAlloc@16     00f6b6c8     kernel32:KERNEL32.dll
 0005:000006cc       __imp__VirtualFree@12      00f6b6cc     kernel32:KERNEL32.dll
 0005:000006d0       __imp__HeapCreate@12       00f6b6d0     kernel32:KERNEL32.dll
 0005:000006d4       __imp__HeapDestroy@4       00f6b6d4     kernel32:KERNEL32.dll
 0005:000006d8       __imp__HeapFree@12         00f6b6d8     kernel32:KERNEL32.dll
 0005:000006dc       __imp__HeapReAlloc@16      00f6b6dc     kernel32:KERNEL32.dll
 0005:000006e0       __imp__HeapAlloc@12        00f6b6e0     kernel32:KERNEL32.dll
 0005:000006e4       __imp__GetTimeZoneInformation@4 00f6b6e4     kernel32:KERNEL32.dll
 0005:000006e8       __imp__InterlockedIncrement@4 00f6b6e8     kernel32:KERNEL32.dll
 0005:000006ec       __imp__OutputDebugStringA@4 00f6b6ec     kernel32:KERNEL32.dll
 0005:000006f0       __imp__InterlockedDecrement@4 00f6b6f0     kernel32:KERNEL32.dll
 0005:000006f4       __imp__WriteFile@20        00f6b6f4     kernel32:KERNEL32.dll
 0005:000006f8       __imp__GetStdHandle@4      00f6b6f8     kernel32:KERNEL32.dll
 0005:000006fc       __imp__RtlUnwind@16        00f6b6fc     kernel32:KERNEL32.dll
 0005:00000700       __imp__FatalAppExitA@8     00f6b700     kernel32:KERNEL32.dll
 0005:00000704       __imp__DeleteCriticalSection@4 00f6b704     kernel32:KERNEL32.dll
 0005:00000708       __imp__LCMapStringW@24     00f6b708     kernel32:KERNEL32.dll
 0005:0000070c       __imp__LCMapStringA@24     00f6b70c     kernel32:KERNEL32.dll
 0005:00000710       __imp__WideCharToMultiByte@32 00f6b710     kernel32:KERNEL32.dll
 0005:00000714       __imp__LeaveCriticalSection@4 00f6b714     kernel32:KERNEL32.dll
 0005:00000718       __imp__EnterCriticalSection@4 00f6b718     kernel32:KERNEL32.dll
 0005:0000071c       __imp__SetConsoleCtrlHandler@8 00f6b71c     kernel32:KERNEL32.dll
 0005:00000720       __imp__GetCurrentThread@0  00f6b720     kernel32:KERNEL32.dll
 0005:00000724       __imp__SetLastError@4      00f6b724     kernel32:KERNEL32.dll
 0005:00000728       __imp__TlsGetValue@4       00f6b728     kernel32:KERNEL32.dll
 0005:0000072c       __imp__TlsSetValue@8       00f6b72c     kernel32:KERNEL32.dll
 0005:00000730       __imp__TlsFree@4           00f6b730     kernel32:KERNEL32.dll
 0005:00000734       __imp__GetCurrentThreadId@0 00f6b734     kernel32:KERNEL32.dll
 0005:00000738       __imp__TlsAlloc@0          00f6b738     kernel32:KERNEL32.dll
 0005:0000073c       __imp__MultiByteToWideChar@24 00f6b73c     kernel32:KERNEL32.dll
 0005:00000740       __imp__RaiseException@16   00f6b740     kernel32:KERNEL32.dll
 0005:00000744       __imp__InitializeCriticalSection@4 00f6b744     kernel32:KERNEL32.dll
 0005:00000748       __imp__InterlockedExchange@8 00f6b748     kernel32:KERNEL32.dll
 0005:0000074c       __imp__CompareStringA@24   00f6b74c     kernel32:KERNEL32.dll
 0005:00000750       __imp__CompareStringW@24   00f6b750     kernel32:KERNEL32.dll
 0005:00000754       __imp__CreateFileA@28      00f6b754     kernel32:KERNEL32.dll
 0005:00000758       __imp__SetEndOfFile@4      00f6b758     kernel32:KERNEL32.dll
 0005:0000075c       __imp__GetLocaleInfoW@16   00f6b75c     kernel32:KERNEL32.dll
 0005:00000760       __imp__GetEnvironmentStrings@0 00f6b760     kernel32:KERNEL32.dll
 0005:00000764       __imp__DebugBreak@0        00f6b764     kernel32:KERNEL32.dll
 0005:00000768       __imp__GetCommandLineA@0   00f6b768     kernel32:KERNEL32.dll
 0005:0000076c       __imp__GetStartupInfoA@4   00f6b76c     kernel32:KERNEL32.dll
 0005:00000770       __imp__FileTimeToLocalFileTime@8 00f6b770     kernel32:KERNEL32.dll
 0005:00000774       __imp__GetSystemDirectoryA@8 00f6b774     kernel32:KERNEL32.dll
 0005:00000778       __imp__CreateThread@24     00f6b778     kernel32:KERNEL32.dll
 0005:0000077c       __imp__CreateEventA@16     00f6b77c     kernel32:KERNEL32.dll
 0005:00000780       __imp__WaitForSingleObject@8 00f6b780     kernel32:KERNEL32.dll
 0005:00000784       __imp__SetEvent@4          00f6b784     kernel32:KERNEL32.dll
 0005:00000788       __imp__ResetEvent@4        00f6b788     kernel32:KERNEL32.dll
 0005:0000078c       __imp__GetModuleFileNameA@12 00f6b78c     kernel32:KERNEL32.dll
 0005:00000790       __imp__GetSystemTimeAsFileTime@4 00f6b790     kernel32:KERNEL32.dll
 0005:00000794       __imp__IsBadWritePtr@8     00f6b794     kernel32:KERNEL32.dll
 0005:00000798       __imp__IsBadReadPtr@8      00f6b798     kernel32:KERNEL32.dll
 0005:0000079c       __imp__HeapValidate@12     00f6b79c     kernel32:KERNEL32.dll
 0005:000007a0       __imp__GetLastError@0      00f6b7a0     kernel32:KERNEL32.dll
 0005:000007a4       __imp__MoveFileA@8         00f6b7a4     kernel32:KERNEL32.dll
 0005:000007a8       __imp__DeleteFileA@4       00f6b7a8     kernel32:KERNEL32.dll
 0005:000007ac       __imp__FlushFileBuffers@4  00f6b7ac     kernel32:KERNEL32.dll
 0005:000007b0       __imp__TerminateProcess@8  00f6b7b0     kernel32:KERNEL32.dll
 0005:000007b4       __imp__GetCurrentProcess@0 00f6b7b4     kernel32:KERNEL32.dll
 0005:000007b8       __imp__ExitProcess@4       00f6b7b8     kernel32:KERNEL32.dll
 0005:000007bc       __imp__GetModuleHandleA@4  00f6b7bc     kernel32:KERNEL32.dll
 0005:000007c0       __imp__CreateDirectoryA@8  00f6b7c0     kernel32:KERNEL32.dll
 0005:000007c4       __imp__GetCurrentDirectoryA@8 00f6b7c4     kernel32:KERNEL32.dll
 0005:000007c8       __imp__GetFullPathNameA@16 00f6b7c8     kernel32:KERNEL32.dll
 0005:000007cc       __imp__FindFirstFileA@8    00f6b7cc     kernel32:KERNEL32.dll
 0005:000007d0       __imp__FindNextFileA@8     00f6b7d0     kernel32:KERNEL32.dll
 0005:000007d4       __imp__FindClose@4         00f6b7d4     kernel32:KERNEL32.dll
 0005:000007d8       __imp__FileTimeToSystemTime@8 00f6b7d8     kernel32:KERNEL32.dll
 0005:000007dc       \177KERNEL32_NULL_THUNK_DATA 00f6b7dc     kernel32:KERNEL32.dll
 0005:00000860       __imp__ReleaseCapture@0    00f6b860     user32:USER32.dll
 0005:00000864       __imp__ChangeDisplaySettingsA@8 00f6b864     user32:USER32.dll
 0005:00000868       __imp__MessageBoxA@16      00f6b868     user32:USER32.dll
 0005:0000086c       __imp__ShowCursor@4        00f6b86c     user32:USER32.dll
 0005:00000870       __imp__UnregisterHotKey@8  00f6b870     user32:USER32.dll
 0005:00000874       __imp__RegisterHotKey@16   00f6b874     user32:USER32.dll
 0005:00000878       __imp__SystemParametersInfoA@16 00f6b878     user32:USER32.dll
 0005:0000087c       __imp__RegisterWindowMessageA@4 00f6b87c     user32:USER32.dll
 0005:00000880       __imp__GetWindowLongA@8    00f6b880     user32:USER32.dll
 0005:00000884       __imp__CloseWindow@4       00f6b884     user32:USER32.dll
 0005:00000888       __imp__DestroyWindow@4     00f6b888     user32:USER32.dll
 0005:0000088c       __imp__PostQuitMessage@4   00f6b88c     user32:USER32.dll
 0005:00000890       __imp__SetTimer@16         00f6b890     user32:USER32.dll
 0005:00000894       __imp__DefWindowProcA@16   00f6b894     user32:USER32.dll
 0005:00000898       __imp__InvalidateRect@12   00f6b898     user32:USER32.dll
 0005:0000089c       __imp__LoadIconA@8         00f6b89c     user32:USER32.dll
 0005:000008a0       __imp__LoadCursorA@8       00f6b8a0     user32:USER32.dll
 0005:000008a4       __imp__RegisterClassA@4    00f6b8a4     user32:USER32.dll
 0005:000008a8       __imp__AdjustWindowRect@12 00f6b8a8     user32:USER32.dll
 0005:000008ac       __imp__GetDesktopWindow@0  00f6b8ac     user32:USER32.dll
 0005:000008b0       __imp__GetDC@4             00f6b8b0     user32:USER32.dll
 0005:000008b4       __imp__ReleaseDC@8         00f6b8b4     user32:USER32.dll
 0005:000008b8       __imp__CreateWindowExA@48  00f6b8b8     user32:USER32.dll
 0005:000008bc       __imp__SendMessageA@16     00f6b8bc     user32:USER32.dll
 0005:000008c0       __imp__SetWindowLongA@12   00f6b8c0     user32:USER32.dll
 0005:000008c4       __imp__ShowWindow@8        00f6b8c4     user32:USER32.dll
 0005:000008c8       __imp__UpdateWindow@4      00f6b8c8     user32:USER32.dll
 0005:000008cc       __imp__SetForegroundWindow@4 00f6b8cc     user32:USER32.dll
 0005:000008d0       __imp__SetFocus@4          00f6b8d0     user32:USER32.dll
 0005:000008d4       __imp__GetWindowTextA@12   00f6b8d4     user32:USER32.dll
 0005:000008d8       __imp__SetWindowTextA@8    00f6b8d8     user32:USER32.dll
 0005:000008dc       __imp__CallWindowProcA@20  00f6b8dc     user32:USER32.dll
 0005:000008e0       __imp__PeekMessageA@20     00f6b8e0     user32:USER32.dll
 0005:000008e4       __imp__OpenClipboard@4     00f6b8e4     user32:USER32.dll
 0005:000008e8       __imp__GetClipboardData@4  00f6b8e8     user32:USER32.dll
 0005:000008ec       __imp__CloseClipboard@0    00f6b8ec     user32:USER32.dll
 0005:000008f0       __imp__GetMessageA@16      00f6b8f0     user32:USER32.dll
 0005:000008f4       __imp__TranslateMessage@4  00f6b8f4     user32:USER32.dll
 0005:000008f8       __imp__DispatchMessageA@4  00f6b8f8     user32:USER32.dll
 0005:000008fc       __imp__GetCursorPos@4      00f6b8fc     user32:USER32.dll
 0005:00000900       __imp__ClipCursor@4        00f6b900     user32:USER32.dll
 0005:00000904       __imp__GetSystemMetrics@4  00f6b904     user32:USER32.dll
 0005:00000908       __imp__GetWindowRect@8     00f6b908     user32:USER32.dll
 0005:0000090c       __imp__SetCursorPos@8      00f6b90c     user32:USER32.dll
 0005:00000910       __imp__SetCapture@4        00f6b910     user32:USER32.dll
 0005:00000914       __imp__EnumDisplaySettingsA@12 00f6b914     user32:USER32.dll
 0005:00000918       \177USER32_NULL_THUNK_DATA 00f6b918     user32:USER32.dll
 0005:00000968       __imp__midiInOpen@20       00f6b968     winmm:WINMM.dll
 0005:0000096c       __imp__joyGetNumDevs@0     00f6b96c     winmm:WINMM.dll
 0005:00000970       __imp__joyGetPosEx@8       00f6b970     winmm:WINMM.dll
 0005:00000974       __imp__midiInStart@4       00f6b974     winmm:WINMM.dll
 0005:00000978       __imp__joyGetDevCapsA@12   00f6b978     winmm:WINMM.dll
 0005:0000097c       __imp__midiInGetDevCapsA@12 00f6b97c     winmm:WINMM.dll
 0005:00000980       __imp__midiInGetNumDevs@0  00f6b980     winmm:WINMM.dll
 0005:00000984       __imp__midiInClose@4       00f6b984     winmm:WINMM.dll
 0005:00000988       __imp__timeEndPeriod@4     00f6b988     winmm:WINMM.dll
 0005:0000098c       __imp__timeGetTime@0       00f6b98c     winmm:WINMM.dll
 0005:00000990       __imp__timeBeginPeriod@4   00f6b990     winmm:WINMM.dll
 0005:00000994       \177WINMM_NULL_THUNK_DATA  00f6b994     winmm:WINMM.dll
 0005:000009c8       __imp__htons@4             00f6b9c8     wsock32:WSOCK32.dll
 0005:000009cc       __imp__bind@12             00f6b9cc     wsock32:WSOCK32.dll
 0005:000009d0       __imp__closesocket@4       00f6b9d0     wsock32:WSOCK32.dll
 0005:000009d4       __imp__sendto@24           00f6b9d4     wsock32:WSOCK32.dll
 0005:000009d8       __imp__recvfrom@24         00f6b9d8     wsock32:WSOCK32.dll
 0005:000009dc       __imp__inet_addr@4         00f6b9dc     wsock32:WSOCK32.dll
 0005:000009e0       __imp__gethostbyname@4     00f6b9e0     wsock32:WSOCK32.dll
 0005:000009e4       __imp__WSAGetLastError@0   00f6b9e4     wsock32:WSOCK32.dll
 0005:000009e8       __imp__setsockopt@20       00f6b9e8     wsock32:WSOCK32.dll
 0005:000009ec       __imp__ioctlsocket@12      00f6b9ec     wsock32:WSOCK32.dll
 0005:000009f0       __imp__socket@12           00f6b9f0     wsock32:WSOCK32.dll
 0005:000009f4       __imp__recv@16             00f6b9f4     wsock32:WSOCK32.dll
 0005:000009f8       __imp__send@16             00f6b9f8     wsock32:WSOCK32.dll
 0005:000009fc       __imp__connect@12          00f6b9fc     wsock32:WSOCK32.dll
 0005:00000a00       __imp__ntohl@4             00f6ba00     wsock32:WSOCK32.dll
 0005:00000a04       __imp__gethostname@8       00f6ba04     wsock32:WSOCK32.dll
 0005:00000a08       __imp__WSAStartup@8        00f6ba08     wsock32:WSOCK32.dll
 0005:00000a0c       __imp__WSACleanup@0        00f6ba0c     wsock32:WSOCK32.dll
 0005:00000a10       \177WSOCK32_NULL_THUNK_DATA 00f6ba10     wsock32:WSOCK32.dll
 0005:00000a48       __imp__CoInitialize@4      00f6ba48     ole32:ole32.dll
 0005:00000a4c       __imp__CoCreateInstance@20 00f6ba4c     ole32:ole32.dll
 0005:00000a50       __imp__CoUninitialize@0    00f6ba50     ole32:ole32.dll
 0005:00000a54       \177ole32_NULL_THUNK_DATA  00f6ba54     ole32:ole32.dll

 entry point at        0002:00003480

