 uix86

 Timestamp is 48822561 (Sat Jul 19 13:33:21 2008)

 Preferred load address is 40000000

 Start         Length     Name                   Class
 0001:00000000 0004b610H .text                   CODE
 0002:00000000 00000154H .idata$5                DATA
 0002:00000160 0000849aH .rdata                  DATA
 0002:000085fc 0000003fH .rdata$debug            DATA
 0002:0000863c 00000004H .rtc$IAA                DATA
 0002:00008640 000000a8H .rtc$IMZ                DATA
 0002:000086e8 00000004H .rtc$IZZ                DATA
 0002:000086ec 00000004H .rtc$TAA                DATA
 0002:000086f0 000000a8H .rtc$TMZ                DATA
 0002:00008798 00000004H .rtc$TZZ                DATA
 0002:0000879c 00000014H .idata$2                DATA
 0002:000087b0 00000014H .idata$3                DATA
 0002:000087c4 00000154H .idata$4                DATA
 0002:00008918 00000612H .idata$6                DATA
 0002:00008f30 00000056H .edata                  DATA
 0003:00000000 00000004H .CRT$XCA                DATA
 0003:00000004 00000004H .CRT$XCAA               DATA
 0003:00000008 00000004H .CRT$XCZ                DATA
 0003:0000000c 00000004H .CRT$XIA                DATA
 0003:00000010 0000000cH .CRT$XIC                DATA
 0003:0000001c 00000004H .CRT$XIZ                DATA
 0003:00000020 00000004H .CRT$XPA                DATA
 0003:00000024 00000004H .CRT$XPX                DATA
 0003:00000028 00000004H .CRT$XPZ                DATA
 0003:0000002c 00000004H .CRT$XTA                DATA
 0003:00000030 00000004H .CRT$XTZ                DATA
 0003:00000040 00003980H .data                   DATA
 0003:000039c0 0006fc7cH .bss                    DATA

  Address         Publics by Value              Rva+Base     Lib:Object

 0000:00000000       ___safe_se_handler_count   00000000     <absolute>
 0000:00000000       ___safe_se_handler_table   00000000     <absolute>
 0000:00000000       __except_list              00000000     <absolute>
 0001:00000000       _BG_FindItemForPowerup     40001000 f   bg_misc.obj
 0001:000000a0       _BG_FindItemForHoldable    400010a0 f   bg_misc.obj
 0001:00000130       _BG_FindItemForWeapon      40001130 f   bg_misc.obj
 0001:000001b0       _BG_FindItem               400011b0 f   bg_misc.obj
 0001:00000220       _BG_PlayerTouchesItem      40001220 f   bg_misc.obj
 0001:00000330       _BG_CanItemBeGrabbed       40001330 f   bg_misc.obj
 0001:00000590       _BG_EvaluateTrajectory     40001590 f   bg_misc.obj
 0001:00000830       _BG_EvaluateTrajectoryDelta 40001830 f   bg_misc.obj
 0001:00000a30       _BG_AddPredictableEventToPlayerstate 40001a30 f   bg_misc.obj
 0001:00000b30       _BG_TouchJumpPad           40001b30 f   bg_misc.obj
 0001:00000c60       _BG_PlayerStateToEntityState 40001c60 f   bg_misc.obj
 0001:00000ff0       _BG_PlayerStateToEntityStateExtraPolate 40001ff0 f   bg_misc.obj
 0001:00001390       _Q_rand                    40002390 f   q_math.obj
 0001:000013d0       _Q_random                  400023d0 f   q_math.obj
 0001:00001430       _Q_crandom                 40002430 f   q_math.obj
 0001:00001480       _ClampChar                 40002480 f   q_math.obj
 0001:000014c0       _ClampShort                400024c0 f   q_math.obj
 0001:00001510       _DirToByte                 40002510 f   q_math.obj
 0001:000015d0       _ByteToDir                 400025d0 f   q_math.obj
 0001:00001660       _ColorBytes3               40002660 f   q_math.obj
 0001:000016c0       _ColorBytes4               400026c0 f   q_math.obj
 0001:00001730       _NormalizeColor            40002730 f   q_math.obj
 0001:000017f0       _PlaneFromPoints           400027f0 f   q_math.obj
 0001:000019a0       _RotatePointAroundVector   400029a0 f   q_math.obj
 0001:00001c90       _RotateAroundDirection     40002c90 f   q_math.obj
 0001:00001d70       _vectoangles               40002d70 f   q_math.obj
 0001:00001f10       _AnglesToAxis              40002f10 f   q_math.obj
 0001:00001fc0       _AxisClear                 40002fc0 f   q_math.obj
 0001:00002040       _AxisCopy                  40003040 f   q_math.obj
 0001:000020d0       _ProjectPointOnPlane       400030d0 f   q_math.obj
 0001:00002220       _MakeNormalVectors         40003220 f   q_math.obj
 0001:00002310       _VectorRotate              40003310 f   q_math.obj
 0001:000023c0       _Q_rsqrt                   400033c0 f   q_math.obj
 0001:00002430       _Q_fabs                    40003430 f   q_math.obj
 0001:00002470       _LerpAngle                 40003470 f   q_math.obj
 0001:000024f0       _AngleSubtract             400034f0 f   q_math.obj
 0001:00002560       _AnglesSubtract            40003560 f   q_math.obj
 0001:000025f0       _AngleMod                  400035f0 f   q_math.obj
 0001:00002640       _AngleNormalize360         40003640 f   q_math.obj
 0001:00002690       _AngleNormalize180         40003690 f   q_math.obj
 0001:000026f0       _AngleDelta                400036f0 f   q_math.obj
 0001:00002740       _SetPlaneSignbits          40003740 f   q_math.obj
 0001:000027c0       _BoxOnPlaneSide            400037c0 f   q_math.obj
 0001:00002a00       _RadiusFromBounds          40003a00 f   q_math.obj
 0001:00002b60       _ClearBounds               40003b60 f   q_math.obj
 0001:00002bc0       _AddPointToBounds          40003bc0 f   q_math.obj
 0001:00002ca0       _VectorNormalize           40003ca0 f   q_math.obj
 0001:00002d60       _VectorNormalize2          40003d60 f   q_math.obj
 0001:00002e40       __VectorMA                 40003e40 f   q_math.obj
 0001:00002eb0       __DotProduct               40003eb0 f   q_math.obj
 0001:00002f00       __VectorSubtract           40003f00 f   q_math.obj
 0001:00002f60       __VectorAdd                40003f60 f   q_math.obj
 0001:00002fc0       __VectorCopy               40003fc0 f   q_math.obj
 0001:00003010       __VectorScale              40004010 f   q_math.obj
 0001:00003060       _Vector4Scale              40004060 f   q_math.obj
 0001:000030c0       _Q_log2                    400040c0 f   q_math.obj
 0001:00003110       _MatrixMultiply            40004110 f   q_math.obj
 0001:000032d0       _AngleVectors              400042d0 f   q_math.obj
 0001:000034e0       _PerpendicularVector       400044e0 f   q_math.obj
 0001:000035f0       _Com_Clamp                 400045f0 f   q_shared.obj
 0001:00003640       _COM_SkipPath              40004640 f   q_shared.obj
 0001:000036a0       _COM_StripExtension        400046a0 f   q_shared.obj
 0001:00003700       _COM_DefaultExtension      40004700 f   q_shared.obj
 0001:000037d0       _ShortSwap                 400047d0 f   q_shared.obj
 0001:00003820       _ShortNoSwap               40004820 f   q_shared.obj
 0001:00003850       _LongSwap                  40004850 f   q_shared.obj
 0001:000038d0       _LongNoSwap                400048d0 f   q_shared.obj
 0001:00003900       _Long64Swap                40004900 f   q_shared.obj
 0001:00003990       _Long64NoSwap              40004990 f   q_shared.obj
 0001:000039c0       _FloatSwap                 400049c0 f   q_shared.obj
 0001:00003a40       _FloatNoSwap               40004a40 f   q_shared.obj
 0001:00003a70       _COM_BeginParseSession     40004a70 f   q_shared.obj
 0001:00003ad0       _COM_GetCurrentParseLine   40004ad0 f   q_shared.obj
 0001:00003b00       _COM_Parse                 40004b00 f   q_shared.obj
 0001:00003b40       _COM_ParseError            40004b40 f   q_shared.obj
 0001:00003bc0       _COM_ParseWarning          40004bc0 f   q_shared.obj
 0001:00003c40       _COM_Compress              40004c40 f   q_shared.obj
 0001:00003e60       _COM_ParseExt              40004e60 f   q_shared.obj
 0001:00004160       _COM_MatchToken            40005160 f   q_shared.obj
 0001:000041d0       _SkipBracedSection         400051d0 f   q_shared.obj
 0001:00004260       _SkipRestOfLine            40005260 f   q_shared.obj
 0001:000042f0       _Parse1DMatrix             400052f0 f   q_shared.obj
 0001:00004390       _Parse2DMatrix             40005390 f   q_shared.obj
 0001:00004420       _Parse3DMatrix             40005420 f   q_shared.obj
 0001:000044c0       _Q_isprint                 400054c0 f   q_shared.obj
 0001:00004500       _Q_islower                 40005500 f   q_shared.obj
 0001:00004540       _Q_isupper                 40005540 f   q_shared.obj
 0001:00004580       _Q_isalpha                 40005580 f   q_shared.obj
 0001:000045d0       _Q_strrchr                 400055d0 f   q_shared.obj
 0001:00004650       _Q_strncpyz                40005650 f   q_shared.obj
 0001:000046f0       _Q_stricmpn                400056f0 f   q_shared.obj
 0001:000047e0       _Q_strncmp                 400057e0 f   q_shared.obj
 0001:00004870       _Q_stricmp                 40005870 f   q_shared.obj
 0001:000048e0       _Q_strlwr                  400058e0 f   q_shared.obj
 0001:00004950       _Q_strupr                  40005950 f   q_shared.obj
 0001:000049c0       _Q_strcat                  400059c0 f   q_shared.obj
 0001:00004a40       _Q_PrintStrlen             40005a40 f   q_shared.obj
 0001:00004ad0       _Q_CleanStr                40005ad0 f   q_shared.obj
 0001:00004b80       _Com_sprintf               40005b80 f   q_shared.obj
 0001:00004c60       _va                        40005c60 f   q_shared.obj
 0001:00004ce0       _Info_ValueForKey          40005ce0 f   q_shared.obj
 0001:00004eb0       _Info_NextPair             40005eb0 f   q_shared.obj
 0001:00004fa0       _Info_RemoveKey            40005fa0 f   q_shared.obj
 0001:00005170       _Info_RemoveKey_Big        40006170 f   q_shared.obj
 0001:00005340       _Info_Validate             40006340 f   q_shared.obj
 0001:000053b0       _Info_SetValueForKey       400063b0 f   q_shared.obj
 0001:00005580       _Info_SetValueForKey_Big   40006580 f   q_shared.obj
 0001:00005740       _UI_AddBots_Cache          40006740 f   ui_addbots.obj
 0001:000057e0       _UI_AddBotsMenu            400067e0 f   ui_addbots.obj
 0001:000061d0       _Com_Error                 400071d0 f   ui_atoms.obj
 0001:00006270       _Com_Printf                40007270 f   ui_atoms.obj
 0001:00006310       _UI_ClampCvar              40007310 f   ui_atoms.obj
 0001:00006360       _UI_StartDemoLoop          40007360 f   ui_atoms.obj
 0001:000063b0       _UI_PushMenu               400073b0 f   ui_atoms.obj
 0001:000064f0       _UI_PopMenu                400074f0 f   ui_atoms.obj
 0001:00006580       _UI_ForceMenuOff           40007580 f   ui_atoms.obj
 0001:000065f0       _UI_LerpColor              400075f0 f   ui_atoms.obj
 0001:000066a0       _UI_DrawBannerString       400076a0 f   ui_atoms.obj
 0001:000069b0       _UI_ProportionalStringWidth 400079b0 f   ui_atoms.obj
 0001:00006a40       _UI_ProportionalSizeScale  40007a40 f   ui_atoms.obj
 0001:00006a80       _UI_DrawProportionalString 40007a80 f   ui_atoms.obj
 0001:00006ec0       _UI_DrawProportionalString_AutoWrapped 40007ec0 f   ui_atoms.obj
 0001:000070a0       _UI_DrawString             400080a0 f   ui_atoms.obj
 0001:00007520       _UI_DrawChar               40008520 f   ui_atoms.obj
 0001:000075b0       _UI_IsFullscreen           400085b0 f   ui_atoms.obj
 0001:00007610       _UI_SetActiveMenu          40008610 f   ui_atoms.obj
 0001:00007780       _UI_KeyEvent               40008780 f   ui_atoms.obj
 0001:00007830       _UI_MouseEvent             40008830 f   ui_atoms.obj
 0001:00007a40       _UI_Argv                   40008a40 f   ui_atoms.obj
 0001:00007a90       _UI_Cvar_VariableString    40008a90 f   ui_atoms.obj
 0001:00007ae0       _UI_Cache_f                40008ae0 f   ui_atoms.obj
 0001:00007bb0       _UI_ConsoleCommand         40008bb0 f   ui_atoms.obj
 0001:00007d10       _UI_Shutdown               40008d10 f   ui_atoms.obj
 0001:00007d40       _UI_Init                   40008d40 f   ui_atoms.obj
 0001:00007e00       _UI_AdjustFrom640          40008e00 f   ui_atoms.obj
 0001:00007e70       _UI_DrawNamedPic           40008e70 f   ui_atoms.obj
 0001:00007f00       _UI_DrawHandlePic          40008f00 f   ui_atoms.obj
 0001:00007ff0       _UI_FillRect               40008ff0 f   ui_atoms.obj
 0001:00008080       _UI_DrawRect               40009080 f   ui_atoms.obj
 0001:000081a0       _UI_SetColor               400091a0 f   ui_atoms.obj
 0001:000081e0       _UI_UpdateScreen           400091e0 f   ui_atoms.obj
 0001:00008220       _UI_Refresh                40009220 f   ui_atoms.obj
 0001:000083e0       _UI_DrawTextBox            400093e0 f   ui_atoms.obj
 0001:000084f0       _UI_CursorInRect           400094f0 f   ui_atoms.obj
 0001:00008550       _UI_CDKeyMenu_Cache        40009550 f   ui_cdkey.obj
 0001:000085d0       _UI_CDKeyMenu              400095d0 f   ui_cdkey.obj
 0001:00008bd0       _UI_CDKeyMenu_f            40009bd0 f   ui_cdkey.obj
 0001:00008c10       _UI_CinematicsMenu_Cache   40009c10 f   ui_cinematics.obj
 0001:00008c80       _UI_CinematicsMenu         40009c80 f   ui_cinematics.obj
 0001:00009510       _UI_CinematicsMenu_f       4000a510 f   ui_cinematics.obj
 0001:00009580       _ConfirmMenu_Cache         4000a580 f   ui_confirm.obj
 0001:000095c0       _UI_ConfirmMenu_Style      4000a5c0 f   ui_confirm.obj
 0001:00009a80       _UI_ConfirmMenu            4000aa80 f   ui_confirm.obj
 0001:00009ad0       _UI_Message                4000aad0 f   ui_confirm.obj
 0001:00009d40       _UI_DrawConnectScreen      4000ad40 f   ui_connect.obj
 0001:0000a7a0       _UI_KeyConnect             4000b7a0 f   ui_connect.obj
 0001:0000a7f0       _Controls_Cache            4000b7f0 f   ui_controls2.obj
 0001:0000a860       _UI_ControlsMenu           4000b860 f   ui_controls2.obj
 0001:0000d330       _UI_CreditMenu             4000e330 f   ui_credits.obj
 0001:0000d7d0       _Demos_Cache               4000e7d0 f   ui_demo2.obj
 0001:0000d880       _UI_DemosMenu              4000e880 f   ui_demo2.obj
 0001:0000df50       _UI_DisplayOptionsMenu_Cache 4000ef50 f   ui_display.obj
 0001:0000dfc0       _UI_DisplayOptionsMenu     4000efc0 f   ui_display.obj
 0001:0000e5e0       _UI_Alloc                  4000f5e0 f   ui_gameinfo.obj
 0001:0000e650       _UI_InitMemory             4000f650 f   ui_gameinfo.obj
 0001:0000e690       _UI_ParseInfos             4000f690 f   ui_gameinfo.obj
 0001:0000e8b0       _UI_GetArenaInfoByNumber   4000f8b0 f   ui_gameinfo.obj
 0001:0000e980       _UI_GetArenaInfoByMap      4000f980 f   ui_gameinfo.obj
 0001:0000ea10       _UI_GetSpecialArenaInfo    4000fa10 f   ui_gameinfo.obj
 0001:0000eaa0       _UI_GetBotInfoByNumber     4000faa0 f   ui_gameinfo.obj
 0001:0000eb10       _UI_GetBotInfoByName       4000fb10 f   ui_gameinfo.obj
 0001:0000eba0       _UI_GetBestScore           4000fba0 f   ui_gameinfo.obj
 0001:0000ed00       _UI_SetBestScore           4000fd00 f   ui_gameinfo.obj
 0001:0000ee60       _UI_LogAwardData           4000fe60 f   ui_gameinfo.obj
 0001:0000efa0       _UI_GetAwardLevel          4000ffa0 f   ui_gameinfo.obj
 0001:0000f060       _UI_TierCompleted          40010060 f   ui_gameinfo.obj
 0001:0000f1c0       _UI_ShowTierVideo          400101c0 f   ui_gameinfo.obj
 0001:0000f2d0       _UI_CanShowTierVideo       400102d0 f   ui_gameinfo.obj
 0001:0000f3c0       _UI_GetCurrentGame         400103c0 f   ui_gameinfo.obj
 0001:0000f500       _UI_NewGame                40010500 f   ui_gameinfo.obj
 0001:0000f5b0       _UI_GetNumArenas           400105b0 f   ui_gameinfo.obj
 0001:0000f5e0       _UI_GetNumSPArenas         400105e0 f   ui_gameinfo.obj
 0001:0000f610       _UI_GetNumSPTiers          40010610 f   ui_gameinfo.obj
 0001:0000f650       _UI_GetNumBots             40010650 f   ui_gameinfo.obj
 0001:0000f680       _UI_SPUnlock_f             40010680 f   ui_gameinfo.obj
 0001:0000f7d0       _UI_SPUnlockMedals_f       400107d0 f   ui_gameinfo.obj
 0001:0000f8d0       _UI_InitGameinfo           400108d0 f   ui_gameinfo.obj
 0001:000102e0       _InGame_Event              400112e0 f   ui_ingame.obj
 0001:00010490       _InGame_MenuInit           40011490 f   ui_ingame.obj
 0001:00010b90       _InGame_Cache              40011b90 f   ui_ingame.obj
 0001:00010bd0       _UI_InGameMenu             40011bd0 f   ui_ingame.obj
 0001:00010c40       _vmMain                    40011c40 f   ui_main.obj
 0001:00010d60       _UI_RegisterCvars          40011d60 f   ui_main.obj
 0001:00010df0       _UI_UpdateCvars            40011df0 f   ui_main.obj
 0001:00010e60       _Main_MenuEvent            40011e60 f   ui_menu.obj
 0001:00010fa0       _MainMenu_Cache            40011fa0 f   ui_menu.obj
 0001:00010ff0       _ErrorMessage_Key          40011ff0 f   ui_menu.obj
 0001:00011040       _UI_MainMenu               40012040 f   ui_menu.obj
 0001:00011ae0       _MField_Draw               40012ae0 f   ui_mfield.obj
 0001:00011d00       _MField_Paste              40012d00 f   ui_mfield.obj
 0001:00011dc0       _MField_KeyDownEvent       40012dc0 f   ui_mfield.obj
 0001:00012000       _MField_CharEvent          40013000 f   ui_mfield.obj
 0001:00012240       _MField_Clear              40013240 f   ui_mfield.obj
 0001:00012280       _MenuField_Init            40013280 f   ui_mfield.obj
 0001:00012360       _MenuField_Draw            40013360 f   ui_mfield.obj
 0001:00012510       _MenuField_Key             40013510 f   ui_mfield.obj
 0001:00012710       _UI_ModsMenu_Cache         40013710 f   ui_mods.obj
 0001:00012790       _UI_ModsMenu               40013790 f   ui_mods.obj
 0001:00012da0       _UI_NetworkOptionsMenu_Cache 40013da0 f   ui_network.obj
 0001:00012e10       _UI_NetworkOptionsMenu     40013e10 f   ui_network.obj
 0001:00013430       _SystemConfig_Cache        40014430 f   ui_options.obj
 0001:000134a0       _Options_MenuInit          400144a0 f   ui_options.obj
 0001:00013940       _UI_SystemConfigMenu       40014940 f   ui_options.obj
 0001:00013990       _PlayerModel_Cache         40014990 f   ui_playermodel.obj
 0001:00013d60       _UI_PlayerModelMenu        40014d60 f   ui_playermodel.obj
 0001:00015000       _UI_MachinegunSpinAngle    40016000 f   ui_players.obj
 0001:00015120       _UI_DrawPlayer             40016120 f   ui_players.obj
 0001:00017120       _UI_RegisterClientModelname 40018120 f   ui_players.obj
 0001:000178b0       _UI_PlayerInfo_SetModel    400188b0 f   ui_players.obj
 0001:00017980       _UI_PlayerInfo_SetInfo     40018980 f   ui_players.obj
 0001:00017d40       _PlayerSettings_Cache      40018d40 f   ui_playersettings.obj
 0001:00017e50       _UI_PlayerSettingsMenu     40018e50 f   ui_playersettings.obj
 0001:00018be0       _Preferences_Cache         40019be0 f   ui_preferences.obj
 0001:00018c90       _UI_PreferencesMenu        40019c90 f   ui_preferences.obj
 0001:000199c0       _Bitmap_Init               4001a9c0 f   ui_qmenu.obj
 0001:00019aa0       _Bitmap_Draw               4001aaa0 f   ui_qmenu.obj
 0001:00019dc0       _ScrollList_Key            4001adc0 f   ui_qmenu.obj
 0001:0001a610       _ScrollList_Draw           4001b610 f   ui_qmenu.obj
 0001:0001a7e0       _Menu_AddItem              4001b7e0 f   ui_qmenu.obj
 0001:0001af30       _Menu_CursorMoved          4001bf30 f   ui_qmenu.obj
 0001:0001b010       _Menu_SetCursor            4001c010 f   ui_qmenu.obj
 0001:0001b080       _Menu_SetCursorToItem      4001c080 f   ui_qmenu.obj
 0001:0001b100       _Menu_AdjustCursor         4001c100 f   ui_qmenu.obj
 0001:0001b220       _Menu_Draw                 4001c220 f   ui_qmenu.obj
 0001:0001be00       _Menu_ItemAtCursor         4001ce00 f   ui_qmenu.obj
 0001:0001be50       _Menu_ActivateItem         4001ce50 f   ui_qmenu.obj
 0001:0001bec0       _Menu_DefaultKey           4001cec0 f   ui_qmenu.obj
 0001:0001c780       _Menu_Cache                4001d780 f   ui_qmenu.obj
 0001:0001c930       _UI_RemoveBots_Cache       4001d930 f   ui_removebots.obj
 0001:0001c9b0       _UI_RemoveBotsMenu         4001d9b0 f   ui_removebots.obj
 0001:0001d270       _Favorites_Add             4001e270 f   ui_serverinfo.obj
 0001:0001d3f0       _ServerInfo_Cache          4001e3f0 f   ui_serverinfo.obj
 0001:0001d460       _UI_ServerInfoMenu         4001e460 f   ui_serverinfo.obj
 0001:0001d9d0       _ArenaServers_InsertFavorites 4001e9d0 f   ui_servers2.obj
 0001:0001de00       _ArenaServers_LoadFavorites 4001ee00 f   ui_servers2.obj
 0001:0001e060       _ArenaServers_SaveChanges  4001f060 f   ui_servers2.obj
 0001:0001e110       _ArenaServers_Sort         4001f110 f   ui_servers2.obj
 0001:0001e330       _ArenaServers_SetType      4001f330 f   ui_servers2.obj
 0001:0001ed20       _ArenaServers_Cache        4001fd20 f   ui_servers2.obj
 0001:0001ee20       _UI_ArenaServersMenu       4001fe20 f   ui_servers2.obj
 0001:00020350       _UI_SetupMenu_Cache        40021350 f   ui_setup.obj
 0001:000203c0       _UI_SetupMenu              400213c0 f   ui_setup.obj
 0001:00020a80       _UI_SoundOptionsMenu_Cache 40021a80 f   ui_sound.obj
 0001:00020af0       _UI_SoundOptionsMenu       40021af0 f   ui_sound.obj
 0001:00021210       _UI_SPArena_Start          40022210 f   ui_sparena.obj
 0001:00021330       _SpecifyServer_MenuInit    40022330 f   ui_specifyserver.obj
 0001:00021770       _SpecifyServer_Cache       40022770 f   ui_specifyserver.obj
 0001:000217e0       _UI_SpecifyServerMenu      400227e0 f   ui_specifyserver.obj
 0001:00021830       _UI_SPLevelMenu_Cache      40022830 f   ui_splevel.obj
 0001:00021a20       _UI_SPLevelMenu            40022a20 f   ui_splevel.obj
 0001:00023880       _UI_SPLevelMenu_f          40024880 f   ui_splevel.obj
 0001:000238d0       _UI_SPLevelMenu_ReInit     400248d0 f   ui_splevel.obj
 0001:00023900       _UI_SPPostgameMenu_Cache   40024900 f   ui_sppostgame.obj
 0001:00023a10       _UI_SPPostgameMenu_f       40024a10 f   ui_sppostgame.obj
 0001:00024cd0       _Reset_MenuEvent           40025cd0 f   ui_spreset.obj
 0001:00024d40       _Reset_Cache               40025d40 f   ui_spreset.obj
 0001:00024d80       _UI_ResetMenu              40025d80 f   ui_spreset.obj
 0001:00025200       _UI_SPSkillMenu_Cache      40026200 f   ui_spskill.obj
 0001:00025300       _UI_SPSkillMenu            40026300 f   ui_spskill.obj
 0001:00025ab0       _StartServer_Cache         40026ab0 f   ui_startserver.obj
 0001:00025e00       _UI_StartServerMenu        40026e00 f   ui_startserver.obj
 0001:00026c40       _ServerOptions_Cache       40027c40 f   ui_startserver.obj
 0001:00028820       _UI_BotSelectMenu_Cache    40029820 f   ui_startserver.obj
 0001:000288d0       _UI_BotSelectMenu          400298d0 f   ui_startserver.obj
 0001:00029810       _dllEntry                  4002a810 f   ui_syscalls.obj
 0001:00029840       _PASSFLOAT                 4002a840 f   ui_syscalls.obj
 0001:00029870       _trap_Print                4002a870 f   ui_syscalls.obj
 0001:000298c0       _trap_Error                4002a8c0 f   ui_syscalls.obj
 0001:00029910       _trap_Milliseconds         4002a910 f   ui_syscalls.obj
 0001:00029960       _trap_Cvar_Register        4002a960 f   ui_syscalls.obj
 0001:000299c0       _trap_Cvar_Update          4002a9c0 f   ui_syscalls.obj
 0001:00029a10       _trap_Cvar_Set             4002aa10 f   ui_syscalls.obj
 0001:00029a60       _trap_Cvar_VariableValue   4002aa60 f   ui_syscalls.obj
 0001:00029ab0       _trap_Cvar_VariableStringBuffer 4002aab0 f   ui_syscalls.obj
 0001:00029b10       _trap_Cvar_SetValue        4002ab10 f   ui_syscalls.obj
 0001:00029b70       _trap_Cvar_Reset           4002ab70 f   ui_syscalls.obj
 0001:00029bc0       _trap_Cvar_Create          4002abc0 f   ui_syscalls.obj
 0001:00029c20       _trap_Cvar_InfoStringBuffer 4002ac20 f   ui_syscalls.obj
 0001:00029c80       _trap_Argc                 4002ac80 f   ui_syscalls.obj
 0001:00029cd0       _trap_Argv                 4002acd0 f   ui_syscalls.obj
 0001:00029d30       _trap_Cmd_ExecuteText      4002ad30 f   ui_syscalls.obj
 0001:00029d80       _trap_FS_FOpenFile         4002ad80 f   ui_syscalls.obj
 0001:00029de0       _trap_FS_Read              4002ade0 f   ui_syscalls.obj
 0001:00029e40       _trap_FS_Write             4002ae40 f   ui_syscalls.obj
 0001:00029ea0       _trap_FS_FCloseFile        4002aea0 f   ui_syscalls.obj
 0001:00029ef0       _trap_FS_GetFileList       4002aef0 f   ui_syscalls.obj
 0001:00029f50       _trap_FS_Seek              4002af50 f   ui_syscalls.obj
 0001:00029fb0       _trap_R_RegisterModel      4002afb0 f   ui_syscalls.obj
 0001:0002a000       _trap_R_RegisterSkin       4002b000 f   ui_syscalls.obj
 0001:0002a050       _trap_R_RegisterFont       4002b050 f   ui_syscalls.obj
 0001:0002a0b0       _trap_R_RegisterShaderNoMip 4002b0b0 f   ui_syscalls.obj
 0001:0002a100       _trap_R_ClearScene         4002b100 f   ui_syscalls.obj
 0001:0002a150       _trap_R_AddRefEntityToScene 4002b150 f   ui_syscalls.obj
 0001:0002a1a0       _trap_R_AddPolyToScene     4002b1a0 f   ui_syscalls.obj
 0001:0002a200       _trap_R_AddLightToScene    4002b200 f   ui_syscalls.obj
 0001:0002a280       _trap_R_RenderScene        4002b280 f   ui_syscalls.obj
 0001:0002a2d0       _trap_R_SetColor           4002b2d0 f   ui_syscalls.obj
 0001:0002a320       _trap_R_DrawStretchPic     4002b320 f   ui_syscalls.obj
 0001:0002a3e0       _trap_R_ModelBounds        4002b3e0 f   ui_syscalls.obj
 0001:0002a440       _trap_UpdateScreen         4002b440 f   ui_syscalls.obj
 0001:0002a490       _trap_CM_LerpTag           4002b490 f   ui_syscalls.obj
 0001:0002a500       _trap_S_StartLocalSound    4002b500 f   ui_syscalls.obj
 0001:0002a550       _trap_S_RegisterSound      4002b550 f   ui_syscalls.obj
 0001:0002a5a0       _trap_Key_KeynumToStringBuf 4002b5a0 f   ui_syscalls.obj
 0001:0002a600       _trap_Key_GetBindingBuf    4002b600 f   ui_syscalls.obj
 0001:0002a660       _trap_Key_SetBinding       4002b660 f   ui_syscalls.obj
 0001:0002a6b0       _trap_Key_IsDown           4002b6b0 f   ui_syscalls.obj
 0001:0002a700       _trap_Key_GetOverstrikeMode 4002b700 f   ui_syscalls.obj
 0001:0002a750       _trap_Key_SetOverstrikeMode 4002b750 f   ui_syscalls.obj
 0001:0002a7a0       _trap_Key_ClearStates      4002b7a0 f   ui_syscalls.obj
 0001:0002a7f0       _trap_Key_GetCatcher       4002b7f0 f   ui_syscalls.obj
 0001:0002a840       _trap_Key_SetCatcher       4002b840 f   ui_syscalls.obj
 0001:0002a890       _trap_GetClipboardData     4002b890 f   ui_syscalls.obj
 0001:0002a8e0       _trap_GetClientState       4002b8e0 f   ui_syscalls.obj
 0001:0002a930       _trap_GetGlconfig          4002b930 f   ui_syscalls.obj
 0001:0002a980       _trap_GetConfigString      4002b980 f   ui_syscalls.obj
 0001:0002a9e0       _trap_LAN_GetServerCount   4002b9e0 f   ui_syscalls.obj
 0001:0002aa30       _trap_LAN_GetServerAddressString 4002ba30 f   ui_syscalls.obj
 0001:0002aa90       _trap_LAN_GetServerInfo    4002ba90 f   ui_syscalls.obj
 0001:0002aaf0       _trap_LAN_GetServerPing    4002baf0 f   ui_syscalls.obj
 0001:0002ab40       _trap_LAN_GetPingQueueCount 4002bb40 f   ui_syscalls.obj
 0001:0002ab90       _trap_LAN_ServerStatus     4002bb90 f   ui_syscalls.obj
 0001:0002abf0       _trap_LAN_SaveCachedServers 4002bbf0 f   ui_syscalls.obj
 0001:0002ac40       _trap_LAN_LoadCachedServers 4002bc40 f   ui_syscalls.obj
 0001:0002ac90       _trap_LAN_ResetPings       4002bc90 f   ui_syscalls.obj
 0001:0002ace0       _trap_LAN_ClearPing        4002bce0 f   ui_syscalls.obj
 0001:0002ad30       _trap_LAN_GetPing          4002bd30 f   ui_syscalls.obj
 0001:0002ad90       _trap_LAN_GetPingInfo      4002bd90 f   ui_syscalls.obj
 0001:0002adf0       _trap_LAN_MarkServerVisible 4002bdf0 f   ui_syscalls.obj
 0001:0002ae50       _trap_LAN_ServerIsVisible  4002be50 f   ui_syscalls.obj
 0001:0002aea0       _trap_LAN_UpdateVisiblePings 4002bea0 f   ui_syscalls.obj
 0001:0002aef0       _trap_LAN_AddServer        4002bef0 f   ui_syscalls.obj
 0001:0002af50       _trap_LAN_RemoveServer     4002bf50 f   ui_syscalls.obj
 0001:0002afa0       _trap_LAN_CompareServers   4002bfa0 f   ui_syscalls.obj
 0001:0002b000       _trap_MemoryRemaining      4002c000 f   ui_syscalls.obj
 0001:0002b050       _trap_GetCDKey             4002c050 f   ui_syscalls.obj
 0001:0002b0a0       _trap_SetCDKey             4002c0a0 f   ui_syscalls.obj
 0001:0002b0f0       _trap_PC_AddGlobalDefine   4002c0f0 f   ui_syscalls.obj
 0001:0002b140       _trap_PC_LoadSource        4002c140 f   ui_syscalls.obj
 0001:0002b190       _trap_PC_FreeSource        4002c190 f   ui_syscalls.obj
 0001:0002b1e0       _trap_PC_ReadToken         4002c1e0 f   ui_syscalls.obj
 0001:0002b230       _trap_PC_SourceFileAndLine 4002c230 f   ui_syscalls.obj
 0001:0002b290       _trap_S_StopBackgroundTrack 4002c290 f   ui_syscalls.obj
 0001:0002b2e0       _trap_S_StartBackgroundTrack 4002c2e0 f   ui_syscalls.obj
 0001:0002b330       _trap_RealTime             4002c330 f   ui_syscalls.obj
 0001:0002b380       _trap_CIN_PlayCinematic    4002c380 f   ui_syscalls.obj
 0001:0002b3e0       _trap_CIN_StopCinematic    4002c3e0 f   ui_syscalls.obj
 0001:0002b430       _trap_CIN_RunCinematic     4002c430 f   ui_syscalls.obj
 0001:0002b480       _trap_CIN_DrawCinematic    4002c480 f   ui_syscalls.obj
 0001:0002b4d0       _trap_CIN_SetExtents       4002c4d0 f   ui_syscalls.obj
 0001:0002b530       _trap_R_RemapShader        4002c530 f   ui_syscalls.obj
 0001:0002b590       _trap_VerifyCDKey          4002c590 f   ui_syscalls.obj
 0001:0002b5e0       _trap_SetPbClStatus        4002c5e0 f   ui_syscalls.obj
 0001:0002b630       _TeamMain_MenuInit         4002c630 f   ui_team.obj
 0001:0002ba50       _TeamMain_Cache            4002ca50 f   ui_team.obj
 0001:0002ba90       _UI_TeamMainMenu           4002ca90 f   ui_team.obj
 0001:0002bae0       _UI_TeamOrdersMenu_Key     4002cae0 f   ui_teamorders.obj
 0001:0002bce0       _UI_TeamOrdersMenu_Cache   4002cce0 f   ui_teamorders.obj
 0001:0002bd40       _UI_TeamOrdersMenu         4002cd40 f   ui_teamorders.obj
 0001:0002c520       _UI_TeamOrdersMenu_f       4002d520 f   ui_teamorders.obj
 0001:0002c640       _DriverInfo_Cache          4002d640 f   ui_video.obj
 0001:0002c6b0       _GraphicsOptions_MenuDraw  4002d6b0 f   ui_video.obj
 0001:0002ca20       _GraphicsOptions_MenuInit  4002da20 f   ui_video.obj
 0001:0002df60       _GraphicsOptions_Cache     4002ef60 f   ui_video.obj
 0001:0002dfe0       _UI_GraphicsOptionsMenu    4002efe0 f   ui_video.obj
 0001:0002e040       __RTC_InitBase             4002f040 f   LIBCMTD:init.obj
 0001:0002e070       __RTC_Shutdown             4002f070 f   LIBCMTD:init.obj
 0001:0002e090       __RTC_CheckEsp             4002f090 f   LIBCMTD:stack.obj
 0001:0002e0c0       @_RTC_CheckStackVars@8     4002f0c0 f   LIBCMTD:stack.obj
 0001:0002e130       __fpmath                   4002f130 f   LIBCMTD:fpinit.obj
 0001:0002e160       __fpclear                  4002f160 f   LIBCMTD:fpinit.obj
 0001:0002e170       __cfltcvt_init             4002f170 f   LIBCMTD:fpinit.obj
 0001:0002e1c0       ___setfflag                4002f1c0 f   LIBCMTD:fpinit.obj
 0001:0002e1e0       __CIsin                    4002f1e0 f   LIBCMTD:sin.obj
 0001:0002e1f4       _sin                       4002f1f4     LIBCMTD:sin.obj
 0001:0002e290       __CIcos                    4002f290 f   LIBCMTD:cos.obj
 0001:0002e2a4       _cos                       4002f2a4     LIBCMTD:cos.obj
 0001:0002e340       _atof                      4002f340 f   LIBCMTD:atof.obj
 0001:0002e390       _fabs                      4002f390 f   LIBCMTD:fabs.obj
 0001:0002e488       __ftol2                    4002f488 f   LIBCMTD:ftol2.obj
 0001:0002e500       _memset                    4002f500 f   LIBCMTD:memset.obj
 0001:0002e560       _memcpy                    4002f560 f   LIBCMTD:memcpy.obj
 0001:0002e8a0       __CIsqrt                   4002f8a0 f   LIBCMTD:sqrt.obj
 0001:0002e8b4       _sqrt                      4002f8b4     LIBCMTD:sqrt.obj
 0001:0002e960       _atan2                     4002f960 f   LIBCMTD:87ctriga.obj
 0001:0002e96a       __CIatan2                  4002f96a f   LIBCMTD:87ctriga.obj
 0001:0002e980       __assert                   4002f980 f   LIBCMTD:assert.obj
 0001:0002ef80       _strlen                    4002ff80 f   LIBCMTD:strlen.obj
 0001:0002f010       _vsprintf                  40030010 f   LIBCMTD:vsprintf.obj
 0001:0002f100       __vscprintf                40030100 f   LIBCMTD:vsprintf.obj
 0001:0002f180       _strcmp                    40030180 f   LIBCMTD:strcmp.obj
 0001:0002f210       _strncpy                   40030210 f   LIBCMTD:strncpy.obj
 0001:0002f340       __tolower                  40030340 f   LIBCMTD:tolower.obj
 0001:0002f350       _tolower                   40030350 f   LIBCMTD:tolower.obj
 0001:0002f390       ___tolower_mt              40030390 f   LIBCMTD:tolower.obj
 0001:0002f4d0       __toupper                  400304d0 f   LIBCMTD:toupper.obj
 0001:0002f4e0       _toupper                   400304e0 f   LIBCMTD:toupper.obj
 0001:0002f520       ___toupper_mt              40030520 f   LIBCMTD:toupper.obj
 0001:0002f660       __chkstk                   40030660 f   LIBCMTD:chkstk.obj
 0001:0002f660       __alloca_probe             40030660     LIBCMTD:chkstk.obj
 0001:0002f6a0       _strcpy                    400306a0 f   LIBCMTD:strcat.obj
 0001:0002f6b0       _strcat                    400306b0 f   LIBCMTD:strcat.obj
 0001:0002f7b0       _strchr                    400307b0 f   LIBCMTD:strchr.obj
 0001:0002f7b6       ___from_strstr_to_strchr   400307b6     LIBCMTD:strchr.obj
 0001:0002f870       _atol                      40030870 f   LIBCMTD:atox.obj
 0001:0002f980       _atoi                      40030980 f   LIBCMTD:atox.obj
 0001:0002f9a0       __atoi64                   400309a0 f   LIBCMTD:atox.obj
 0001:0002fae0       _qsort                     40030ae0 f   LIBCMTD:qsort.obj
 0001:0002ff40       _strstr                    40030f40 f   LIBCMTD:strstr.obj
 0001:0002ffd0       _memmove                   40030fd0 f   LIBCMTD:memmove.obj
 0001:00030310       _srand                     40031310 f   LIBCMTD:rand.obj
 0001:00030320       _rand                      40031320 f   LIBCMTD:rand.obj
 0001:00030360       __CItan                    40031360 f   LIBCMTD:tan.obj
 0001:00030374       _tan                       40031374     LIBCMTD:tan.obj
 0001:00030420       __CRT_INIT@12              40031420 f   LIBCMTD:dllcrt0.obj
 0001:00030670       __DllMainCRTStartup@12     40031670 f   LIBCMTD:dllcrt0.obj
 0001:000307f0       __amsg_exit                400317f0 f   LIBCMTD:dllcrt0.obj
 0001:00030830       __RTC_NumErrors            40031830 f   LIBCMTD:userapi.obj
 0001:00030840       __RTC_GetErrDesc           40031840 f   LIBCMTD:userapi.obj
 0001:00030860       __RTC_SetErrorType         40031860 f   LIBCMTD:userapi.obj
 0001:00030890       __RTC_SetErrorFunc         40031890 f   LIBCMTD:userapi.obj
 0001:000308b0       ?_RTC_GetErrorFunc@@YAP6AHHPBDH00ZZPBX@Z 400318b0 f   LIBCMTD:userapi.obj
 0001:000308c0       __chkesp                   400318c0 f   LIBCMTD:chkesp.obj
 0001:00030900       __CRT_RTC_INIT             40031900 f   LIBCMTD:chkesp.obj
 0001:00030910       ?_RTC_Failure@@YAXPAXH@Z   40031910 f   LIBCMTD:error.obj
 0001:00030b70       ?_RTC_MemFailure@@YAXPAXHPBX@Z 40031b70 f   LIBCMTD:error.obj
 0001:00030dc0       ?_RTC_StackFailure@@YAXPAXPBD@Z 40031dc0 f   LIBCMTD:error.obj
 0001:00030e80       __RTC_UninitUse            40031e80 f   LIBCMTD:error.obj
 0001:00031040       __setdefaultprecision      40032040 f   LIBCMTD:fp8.obj
 0001:00031060       __ms_p5_test_fdiv          40032060 f   LIBCMTD:testfdiv.obj
 0001:000310b0       __ms_p5_mp_test_fdiv       400320b0 f   LIBCMTD:testfdiv.obj
 0001:00031100       __forcdecpt                40032100 f   LIBCMTD:cvt.obj
 0001:00031180       __cropzeros                40032180 f   LIBCMTD:cvt.obj
 0001:00031260       __positive                 40032260 f   LIBCMTD:cvt.obj
 0001:00031290       __fassign                  40032290 f   LIBCMTD:cvt.obj
 0001:000312e0       __cftoe                    400322e0 f   LIBCMTD:cvt.obj
 0001:000314e0       __cftof                    400324e0 f   LIBCMTD:cvt.obj
 0001:000316a0       __cftog                    400326a0 f   LIBCMTD:cvt.obj
 0001:000317a0       __cfltcvt                  400327a0 f   LIBCMTD:cvt.obj
 0001:00031830       __trandisp1                40032830 f   LIBCMTD:87disp.obj
 0001:00031897       __trandisp2                40032897 f   LIBCMTD:87disp.obj
 0001:00031923       __rttospopde               40032923     LIBCMTD:87disp.obj
 0001:00031928       __rttospop                 40032928     LIBCMTD:87disp.obj
 0001:0003192a       __rtnospop                 4003292a     LIBCMTD:87disp.obj
 0001:0003192c       __rttosnpop                4003292c     LIBCMTD:87disp.obj
 0001:0003192d       __rtnospopde               4003292d     LIBCMTD:87disp.obj
 0001:00031934       __rtzeropop                40032934     LIBCMTD:87disp.obj
 0001:00031936       __rtzeronpop               40032936     LIBCMTD:87disp.obj
 0001:0003193b       __rtonepop                 4003293b     LIBCMTD:87disp.obj
 0001:0003193d       __rtonenpop                4003293d     LIBCMTD:87disp.obj
 0001:00031942       __tosnan1                  40032942     LIBCMTD:87disp.obj
 0001:0003196d       __nosnan2                  4003296d     LIBCMTD:87disp.obj
 0001:0003196f       __tosnan2                  4003296f     LIBCMTD:87disp.obj
 0001:00031997       __nan2                     40032997     LIBCMTD:87disp.obj
 0001:000319d6       __rtindfpop                400329d6     LIBCMTD:87disp.obj
 0001:000319d8       __rtindfnpop               400329d8     LIBCMTD:87disp.obj
 0001:000319e9       __rttosnpopde              400329e9     LIBCMTD:87disp.obj
 0001:000319f3       __rtchsifneg               400329f3     LIBCMTD:87disp.obj
 0001:00031a00       __twoToTOS                 40032a00 f   LIBCMTD:common.obj
 0001:00031a15       __load_CW                  40032a15 f   LIBCMTD:common.obj
 0001:00031a2c       __convertTOStoQNaN         40032a2c f   LIBCMTD:common.obj
 0001:00031a45       __fload_withFB             40032a45 f   LIBCMTD:common.obj
 0001:00031a88       __checkTOS_withFB          40032a88 f   LIBCMTD:common.obj
 0001:00031a9e       __fast_exit                40032a9e f   LIBCMTD:common.obj
 0001:00031aab       __math_exit                40032aab f   LIBCMTD:common.obj
 0001:00031ad5       __check_overflow_exit      40032ad5 f   LIBCMTD:common.obj
 0001:00031ae9       __check_range_exit         40032ae9 f   LIBCMTD:common.obj
 0001:00031b90       __startTwoArgErrorHandling 40032b90 f   LIBCMTD:genexcep.obj
 0001:00031ba7       __startOneArgErrorHandling 40032ba7 f   LIBCMTD:genexcep.obj
 0001:00031bf0       __fltin2                   40032bf0 f   LIBCMTD:cfin.obj
 0001:00031cd0       _isalpha                   40032cd0 f   LIBCMTD:_ctype.obj
 0001:00031d40       _isupper                   40032d40 f   LIBCMTD:_ctype.obj
 0001:00031da0       _islower                   40032da0 f   LIBCMTD:_ctype.obj
 0001:00031e00       _isdigit                   40032e00 f   LIBCMTD:_ctype.obj
 0001:00031e60       _isxdigit                  40032e60 f   LIBCMTD:_ctype.obj
 0001:00031ed0       _isspace                   40032ed0 f   LIBCMTD:_ctype.obj
 0001:00031f30       _ispunct                   40032f30 f   LIBCMTD:_ctype.obj
 0001:00031f90       _isalnum                   40032f90 f   LIBCMTD:_ctype.obj
 0001:00032000       _isprint                   40033000 f   LIBCMTD:_ctype.obj
 0001:00032070       _isgraph                   40033070 f   LIBCMTD:_ctype.obj
 0001:000320e0       _iscntrl                   400330e0 f   LIBCMTD:_ctype.obj
 0001:00032140       ___isascii                 40033140 f   LIBCMTD:_ctype.obj
 0001:00032150       ___toascii                 40033150 f   LIBCMTD:_ctype.obj
 0001:00032160       ___iscsymf                 40033160 f   LIBCMTD:_ctype.obj
 0001:000321a0       ___iscsym                  400331a0 f   LIBCMTD:_ctype.obj
 0001:000321e0       __handle_qnan1             400331e0 f   LIBCMTD:fpexcept.obj
 0001:00032240       __handle_qnan2             40033240 f   LIBCMTD:fpexcept.obj
 0001:000322b0       __except1                  400332b0 f   LIBCMTD:fpexcept.obj
 0001:000323b0       __except2                  400333b0 f   LIBCMTD:fpexcept.obj
 0001:000324c0       __raise_exc                400334c0 f   LIBCMTD:fpexcept.obj
 0001:00032970       __handle_exc               40033970 f   LIBCMTD:fpexcept.obj
 0001:00032c90       __umatherr                 40033c90 f   LIBCMTD:fpexcept.obj
 0001:00032d30       __set_errno                40033d30 f   LIBCMTD:fpexcept.obj
 0001:00032db0       __errcode                  40033db0 f   LIBCMTD:fpexcept.obj
 0001:00032e20       __set_exp                  40033e20 f   LIBCMTD:util.obj
 0001:00032e60       __get_exp                  40033e60 f   LIBCMTD:util.obj
 0001:00032e90       __add_exp                  40033e90 f   LIBCMTD:util.obj
 0001:00032ec0       __set_bexp                 40033ec0 f   LIBCMTD:util.obj
 0001:00032ef0       __sptype                   40033ef0 f   LIBCMTD:util.obj
 0001:00032f70       __decomp                   40033f70 f   LIBCMTD:util.obj
 0001:000330a0       __statfp                   400340a0 f   LIBCMTD:fpctrl.obj
 0001:000330b0       __clrfp                    400340b0 f   LIBCMTD:fpctrl.obj
 0001:000330d0       __ctrlfp                   400340d0 f   LIBCMTD:fpctrl.obj
 0001:00033100       __set_statfp               40034100 f   LIBCMTD:fpctrl.obj
 0001:0003318c       __fFATN2                   4003418c     LIBCMTD:87triga.obj
 0001:000331dc       __rtpiby2                  400341dc     LIBCMTD:87triga.obj
 0001:00033220       __cintrindisp2             40034220 f   LIBCMTD:87cdisp.obj
 0001:0003325e       __cintrindisp1             4003425e f   LIBCMTD:87cdisp.obj
 0001:0003329b       __ctrandisp2               4003429b f   LIBCMTD:87cdisp.obj
 0001:00033431       __ctrandisp1               40034431 f   LIBCMTD:87cdisp.obj
 0001:00033464       __fload                    40034464 f   LIBCMTD:87cdisp.obj
 0001:000334a0       _abort                     400344a0 f   LIBCMTD:abort.obj
 0001:000334c0       __cinit                    400344c0 f   LIBCMTD:crt0dat.obj
 0001:00033520       _exit                      40034520 f   LIBCMTD:crt0dat.obj
 0001:00033540       __exit                     40034540 f   LIBCMTD:crt0dat.obj
 0001:00033560       __cexit                    40034560 f   LIBCMTD:crt0dat.obj
 0001:00033580       __c_exit                   40034580 f   LIBCMTD:crt0dat.obj
 0001:000336d0       ___crtExitProcess          400346d0 f   LIBCMTD:crt0dat.obj
 0001:00033720       __lockexit                 40034720 f   LIBCMTD:crt0dat.obj
 0001:00033730       __unlockexit               40034730 f   LIBCMTD:crt0dat.obj
 0001:000337b0       _signal                    400347b0 f   LIBCMTD:winsig.obj
 0001:00033af0       _raise                     40034af0 f   LIBCMTD:winsig.obj
 0001:00033db0       ___fpecode                 40034db0 f   LIBCMTD:winsig.obj
 0001:00033dc0       ___pxcptinfoptrs           40034dc0 f   LIBCMTD:winsig.obj
 0001:00033dd0       ___crtMessageBoxA          40034dd0 f   LIBCMTD:crtmbox.obj
 0001:00033f40       __itoa                     40034f40 f   LIBCMTD:xtoa.obj
 0001:00034060       __ltoa                     40035060 f   LIBCMTD:xtoa.obj
 0001:000340a0       __ultoa                    400350a0 f   LIBCMTD:xtoa.obj
 0001:000340c0       __i64toa                   400350c0 f   LIBCMTD:xtoa.obj
 0001:00034210       __ui64toa                  40035210 f   LIBCMTD:xtoa.obj
 0001:00034230       _strncat                   40035230 f   LIBCMTD:strncat.obj
 0001:00034370       _fflush                    40035370 f   LIBCMTD:fflush.obj
 0001:00034400       __fflush_lk                40035400 f   LIBCMTD:fflush.obj
 0001:00034440       __flush                    40035440 f   LIBCMTD:fflush.obj
 0001:00034500       __flushall                 40035500 f   LIBCMTD:fflush.obj
 0001:000346a0       _fprintf                   400356a0 f   LIBCMTD:fprintf.obj
 0001:00034790       _setvbuf                   40035790 f   LIBCMTD:setvbuf.obj
 0001:00034930       ___iob_func                40035930 f   LIBCMTD:_file.obj
 0001:00034940       ___initstdio               40035940 f   LIBCMTD:_file.obj
 0001:00034a70       ___endstdio                40035a70 f   LIBCMTD:_file.obj
 0001:00034a90       __lock_file                40035a90 f   LIBCMTD:_file.obj
 0001:00034ad0       __lock_file2               40035ad0 f   LIBCMTD:_file.obj
 0001:00034b00       __unlock_file              40035b00 f   LIBCMTD:_file.obj
 0001:00034b40       __unlock_file2             40035b40 f   LIBCMTD:_file.obj
 0001:00034b70       @__security_check_cookie@4 40035b70 f   LIBCMTD:secchk.obj
 0001:00034bf0       __flsbuf                   40035bf0 f   LIBCMTD:_flsbuf.obj
 0001:00034e50       __output                   40035e50 f   LIBCMTD:output.obj
 0001:00035dd0       __CrtDbgBreak              40036dd0 f   LIBCMTD:dbgrpt.obj
 0001:00035de0       __CrtSetReportMode         40036de0 f   LIBCMTD:dbgrpt.obj
 0001:00035e40       __CrtSetReportFile         40036e40 f   LIBCMTD:dbgrpt.obj
 0001:00035ec0       __CrtSetReportHook         40036ec0 f   LIBCMTD:dbgrpt.obj
 0001:00035ee0       __CrtSetReportHook2        40036ee0 f   LIBCMTD:dbgrpt.obj
 0001:00036130       __CrtDbgReport             40037130 f   LIBCMTD:dbgrpt.obj
 0001:000368a0       ____setlc_active_func      400378a0 f   LIBCMTD:setlocal.obj
 0001:000368b0       ____unguarded_readlc_active_add_func 400378b0 f   LIBCMTD:setlocal.obj
 0001:000368c0       ___freetlocinfo            400378c0 f   LIBCMTD:setlocal.obj
 0001:00036a40       ___updatetlocinfo          40037a40 f   LIBCMTD:setlocal.obj
 0001:00036c80       _setlocale                 40037c80 f   LIBCMTD:setlocal.obj
 0001:00037730       __expandlocale             40038730 f   LIBCMTD:setlocal.obj
 0001:00037910       ___init_dummy              40038910 f   LIBCMTD:setlocal.obj
 0001:00037920       __strcats                  40038920 f   LIBCMTD:setlocal.obj
 0001:00037970       ___lc_strtolc              40038970 f   LIBCMTD:setlocal.obj
 0001:00037ae0       ___lc_lctostr              40038ae0 f   LIBCMTD:setlocal.obj
 0001:00037b50       ___crtTlsAlloc@4           40038b50 f   LIBCMTD:tidtable.obj
 0001:00037b60       __mtinit                   40038b60 f   LIBCMTD:tidtable.obj
 0001:00037cb0       __mtterm                   40038cb0 f   LIBCMTD:tidtable.obj
 0001:00037ce0       __initptd                  40038ce0 f   LIBCMTD:tidtable.obj
 0001:00037d00       __getptd                   40038d00 f   LIBCMTD:tidtable.obj
 0001:00037da0       __freefls@4                40038da0 f   LIBCMTD:tidtable.obj
 0001:00038020       __freeptd                  40039020 f   LIBCMTD:tidtable.obj
 0001:00038060       ___threadid                40039060 f   LIBCMTD:tidtable.obj
 0001:00038070       ___threadhandle            40039070 f   LIBCMTD:tidtable.obj
 0001:00038080       ___crtLCMapStringA         40039080 f   LIBCMTD:a_map.obj
 0001:00038640       __chvalidator              40039640 f   LIBCMTD:isctype.obj
 0001:00038680       __chvalidator_mt           40039680 f   LIBCMTD:isctype.obj
 0001:000386c0       __isctype                  400396c0 f   LIBCMTD:isctype.obj
 0001:00038700       ___isctype_mt              40039700 f   LIBCMTD:isctype.obj
 0001:000387c0       __allmul                   400397c0 f   LIBCMTD:llmul.obj
 0001:00038800       _malloc                    40039800 f   LIBCMTD:dbgheap.obj
 0001:00038830       __malloc_dbg               40039830 f   LIBCMTD:dbgheap.obj
 0001:00038860       __nh_malloc                40039860 f   LIBCMTD:dbgheap.obj
 0001:00038880       __nh_malloc_dbg            40039880 f   LIBCMTD:dbgheap.obj
 0001:00038920       __heap_alloc               40039920 f   LIBCMTD:dbgheap.obj
 0001:00038940       __heap_alloc_dbg           40039940 f   LIBCMTD:dbgheap.obj
 0001:00038c60       _calloc                    40039c60 f   LIBCMTD:dbgheap.obj
 0001:00038c90       __calloc_dbg               40039c90 f   LIBCMTD:dbgheap.obj
 0001:00038cf0       _realloc                   40039cf0 f   LIBCMTD:dbgheap.obj
 0001:00038d20       __realloc_dbg              40039d20 f   LIBCMTD:dbgheap.obj
 0001:000392c0       __expand                   4003a2c0 f   LIBCMTD:dbgheap.obj
 0001:000392f0       __expand_dbg               4003a2f0 f   LIBCMTD:dbgheap.obj
 0001:00039380       _free                      4003a380 f   LIBCMTD:dbgheap.obj
 0001:000393a0       __free_lk                  4003a3a0 f   LIBCMTD:dbgheap.obj
 0001:000393c0       __free_dbg                 4003a3c0 f   LIBCMTD:dbgheap.obj
 0001:00039430       __free_dbg_lk              4003a430 f   LIBCMTD:dbgheap.obj
 0001:00039840       __msize                    4003a840 f   LIBCMTD:dbgheap.obj
 0001:00039860       __msize_dbg                4003a860 f   LIBCMTD:dbgheap.obj
 0001:000399d0       __CrtSetBreakAlloc         4003a9d0 f   LIBCMTD:dbgheap.obj
 0001:000399f0       __CrtSetDbgBlockType       4003a9f0 f   LIBCMTD:dbgheap.obj
 0001:00039ad0       __CrtSetAllocHook          4003aad0 f   LIBCMTD:dbgheap.obj
 0001:00039b40       __CrtCheckMemory           4003ab40 f   LIBCMTD:dbgheap.obj
 0001:00039eb0       __CrtSetDbgFlag            4003aeb0 f   LIBCMTD:dbgheap.obj
 0001:00039f60       __CrtDoForAllClientObjects 4003af60 f   LIBCMTD:dbgheap.obj
 0001:0003a010       __CrtIsValidPointer        4003b010 f   LIBCMTD:dbgheap.obj
 0001:0003a060       __CrtIsValidHeapPointer    4003b060 f   LIBCMTD:dbgheap.obj
 0001:0003a110       __CrtIsMemoryBlock         4003b110 f   LIBCMTD:dbgheap.obj
 0001:0003a240       __CrtReportBlockType       4003b240 f   LIBCMTD:dbgheap.obj
 0001:0003a270       __CrtSetDumpClient         4003b270 f   LIBCMTD:dbgheap.obj
 0001:0003a290       __CrtMemCheckpoint         4003b290 f   LIBCMTD:dbgheap.obj
 0001:0003a430       __CrtMemDifference         4003b430 f   LIBCMTD:dbgheap.obj
 0001:0003a550       __CrtMemDumpAllObjectsSince 4003b550 f   LIBCMTD:dbgheap.obj
 0001:0003a950       __CrtDumpMemoryLeaks       4003b950 f   LIBCMTD:dbgheap.obj
 0001:0003a9c0       __CrtMemDumpStatistics     4003b9c0 f   LIBCMTD:dbgheap.obj
 0001:0003aa70       __aligned_malloc           4003ba70 f   LIBCMTD:dbgheap.obj
 0001:0003aa90       __aligned_malloc_dbg       4003ba90 f   LIBCMTD:dbgheap.obj
 0001:0003aab0       __aligned_realloc          4003bab0 f   LIBCMTD:dbgheap.obj
 0001:0003aad0       __aligned_realloc_dbg      4003bad0 f   LIBCMTD:dbgheap.obj
 0001:0003ab00       __aligned_offset_malloc    4003bb00 f   LIBCMTD:dbgheap.obj
 0001:0003ab20       __aligned_offset_malloc_dbg 4003bb20 f   LIBCMTD:dbgheap.obj
 0001:0003ac60       __aligned_offset_realloc   4003bc60 f   LIBCMTD:dbgheap.obj
 0001:0003ac90       __aligned_offset_realloc_dbg 4003bc90 f   LIBCMTD:dbgheap.obj
 0001:0003aef0       __aligned_free             4003bef0 f   LIBCMTD:dbgheap.obj
 0001:0003af10       __aligned_free_dbg         4003bf10 f   LIBCMTD:dbgheap.obj
 0001:0003afc0       __ioinit                   4003bfc0 f   LIBCMTD:ioinit.obj
 0001:0003b350       __ioterm                   4003c350 f   LIBCMTD:ioinit.obj
 0001:0003b3f0       __setenvp                  4003c3f0 f   LIBCMTD:stdenvp.obj
 0001:0003b570       __setargv                  4003c570 f   LIBCMTD:stdargv.obj
 0001:0003b9d0       ___crtGetEnvironmentStringsA 4003c9d0 f   LIBCMTD:a_env.obj
 0001:0003bbf0       __RTC_Initialize           4003cbf0 f   LIBCMTD:initsect.obj
 0001:0003bc70       __RTC_Terminate            4003cc70 f   LIBCMTD:initsect.obj
 0001:0003bcf0       ___heap_select             4003ccf0 f   LIBCMTD:heapinit.obj
 0001:0003bd20       __heap_init                4003cd20 f   LIBCMTD:heapinit.obj
 0001:0003bd90       __heap_term                4003cd90 f   LIBCMTD:heapinit.obj
 0001:0003be40       __get_heap_handle          4003ce40 f   LIBCMTD:heapinit.obj
 0001:0003be50       ___CppXcptFilter           4003ce50 f   LIBCMTD:winxfltr.obj
 0001:0003be80       __XcptFilter               4003ce80 f   LIBCMTD:winxfltr.obj
 0001:0003c0a0       _DllMain@12                4003d0a0 f   LIBCMTD:dllmain.obj
 0001:0003c0ac       __global_unwind2           4003d0ac f   LIBCMTD:exsup.obj
 0001:0003c0ee       __local_unwind2            4003d0ee f   LIBCMTD:exsup.obj
 0001:0003c146       __NLG_Return2              4003d146     LIBCMTD:exsup.obj
 0001:0003c156       __abnormal_termination     4003d156 f   LIBCMTD:exsup.obj
 0001:0003c179       __NLG_Notify1              4003d179 f   LIBCMTD:exsup.obj
 0001:0003c182       __NLG_Notify               4003d182 f   LIBCMTD:exsup.obj
 0001:0003c195       __NLG_Dispatch             4003d195     LIBCMTD:exsup.obj
 0001:0003c1a4       __except_handler3          4003d1a4 f   LIBCMTD:exsup3.obj
 0001:0003c28a       __seh_longjmp_unwind@4     4003d28a f   LIBCMTD:exsup3.obj
 0001:0003c2b0       __FF_MSGBANNER             4003d2b0 f   LIBCMTD:crt0msg.obj
 0001:0003c300       __NMSG_WRITE               4003d300 f   LIBCMTD:crt0msg.obj
 0001:0003c510       __GET_RTERRMSG             4003d510 f   LIBCMTD:crt0msg.obj
 0001:0003c560       ?_RTC_GetSrcLine@@YAHKPADHPAHPAPAD@Z 4003d560 f   LIBCMTD:pdblkup.obj
 0001:0003ce00       __statusfp                 4003de00 f   LIBCMTD:ieee87.obj
 0001:0003ce20       __clearfp                  4003de20 f   LIBCMTD:ieee87.obj
 0001:0003ce40       __control87                4003de40 f   LIBCMTD:ieee87.obj
 0001:0003ce90       __controlfp                4003de90 f   LIBCMTD:ieee87.obj
 0001:0003ceb0       __fpreset                  4003deb0 f   LIBCMTD:ieee87.obj
 0001:0003d240       __ZeroTail                 4003e240 f   LIBCMTD:intrncvt.obj
 0001:0003d2d0       __IncMan                   4003e2d0 f   LIBCMTD:intrncvt.obj
 0001:0003d380       __RoundMan                 4003e380 f   LIBCMTD:intrncvt.obj
 0001:0003d460       __CopyMan                  4003e460 f   LIBCMTD:intrncvt.obj
 0001:0003d4b0       __FillZeroMan              4003e4b0 f   LIBCMTD:intrncvt.obj
 0001:0003d4e0       __IsZeroMan                4003e4e0 f   LIBCMTD:intrncvt.obj
 0001:0003d520       __ShrMan                   4003e520 f   LIBCMTD:intrncvt.obj
 0001:0003d610       __ld12cvt                  4003e610 f   LIBCMTD:intrncvt.obj
 0001:0003d850       __ld12tod                  4003e850 f   LIBCMTD:intrncvt.obj
 0001:0003d870       __ld12tof                  4003e870 f   LIBCMTD:intrncvt.obj
 0001:0003d890       __ld12told                 4003e890 f   LIBCMTD:intrncvt.obj
 0001:0003d940       __atodbl                   4003e940 f   LIBCMTD:intrncvt.obj
 0001:0003d990       __atoldbl                  4003e990 f   LIBCMTD:intrncvt.obj
 0001:0003d9e0       __atoflt                   4003e9e0 f   LIBCMTD:intrncvt.obj
 0001:0003da30       __fptostr                  4003ea30 f   LIBCMTD:_fptostr.obj
 0001:0003db30       __fltout2                  4003eb30 f   LIBCMTD:cfout.obj
 0001:0003dbc0       ___dtold                   4003ebc0 f   LIBCMTD:cfout.obj
 0001:0003dd10       __fptrap                   4003ed10 f   LIBCMTD:crt0fp.obj
 0001:0003dd20       __87except                 4003ed20 f   LIBCMTD:87except.obj
 0001:0003ded0       ___strgtold12              4003eed0 f   LIBCMTD:strgtold.obj
 0001:0003e8d0       ___STRINGTOLD              4003f8d0 f   LIBCMTD:strgtold.obj
 0001:0003e930       __dosmaperr                4003f930 f   LIBCMTD:dosmap.obj
 0001:0003e9d0       __errno                    4003f9d0 f   LIBCMTD:dosmap.obj
 0001:0003e9e0       ___doserrno                4003f9e0 f   LIBCMTD:dosmap.obj
 0001:0003e9f0       __matherr                  4003f9f0 f   LIBCMTD:matherr.obj
 0001:0003ea00       __onexit                   4003fa00 f   LIBCMTD:onexit.obj
 0001:0003eb60       _atexit                    4003fb60 f   LIBCMTD:onexit.obj
 0001:0003eb80       ___onexitinit              4003fb80 f   LIBCMTD:onexit.obj
 0001:0003ebd0       __mtinitlocks              4003fbd0 f   LIBCMTD:mlock.obj
 0001:0003ec60       __mtdeletelocks            4003fc60 f   LIBCMTD:mlock.obj
 0001:0003ed20       __mtinitlocknum            4003fd20 f   LIBCMTD:mlock.obj
 0001:0003ee40       __lock                     4003fe40 f   LIBCMTD:mlock.obj
 0001:0003ee80       __unlock                   4003fe80 f   LIBCMTD:mlock.obj
 0001:0003eea0       __lockerr_exit             4003fea0 f   LIBCMTD:mlock.obj
 0001:0003eec0       __aulldiv                  4003fec0 f   LIBCMTD:ulldiv.obj
 0001:0003ef30       __aullrem                  4003ff30 f   LIBCMTD:ullrem.obj
 0001:0003efb0       __commit                   4003ffb0 f   LIBCMTD:commit.obj
 0001:0003f0c0       __write                    400400c0 f   LIBCMTD:write.obj
 0001:0003f1d0       __write_lk                 400401d0 f   LIBCMTD:write.obj
 0001:0003f4c0       __stbuf                    400404c0 f   LIBCMTD:_sftbuf.obj
 0001:0003f610       __ftbuf                    40040610 f   LIBCMTD:_sftbuf.obj
 0001:0003f6a0       __freebuf                  400406a0 f   LIBCMTD:_freebuf.obj
 0001:0003f730       __fcloseall                40040730 f   LIBCMTD:closeall.obj
 0001:0003f850       ___security_init_cookie    40040850 f   LIBCMTD:seccinit.obj
 0001:0003f8f0       ___security_error_handler  400408f0 f   LIBCMTD:secfail.obj
 0001:0003fb20       __set_security_error_handler 40040b20 f   LIBCMTD:secfail.obj
 0001:0003fb40       ___buffer_overrun          40040b40 f   LIBCMTD:secfail.obj
 0001:0003fb60       ___set_buffer_overrun_handler 40040b60 f   LIBCMTD:secfail.obj
 0001:0003fb80       __lseek                    40040b80 f   LIBCMTD:lseek.obj
 0001:0003fc90       __lseek_lk                 40040c90 f   LIBCMTD:lseek.obj
 0001:0003fd50       __getbuf                   40040d50 f   LIBCMTD:_getbuf.obj
 0001:0003fe10       __isatty                   40040e10 f   LIBCMTD:isatty.obj
 0001:0003fe50       _wctomb                    40040e50 f   LIBCMTD:wctomb.obj
 0001:0003fe90       ___wctomb_mt               40040e90 f   LIBCMTD:wctomb.obj
 0001:0003ff30       ___pwctype_func            40040f30 f   LIBCMTD:ctype.obj
 0001:0003ff40       ___pctype_func             40040f40 f   LIBCMTD:ctype.obj
 0001:0003ff50       __snprintf                 40040f50 f   LIBCMTD:snprintf.obj
 0001:00040040       __vsnprintf                40041040 f   LIBCMTD:vsnprint.obj
 0001:00040110       __Getdays                  40041110 f   LIBCMTD:strftime.obj
 0001:00040240       __Getmonths                40041240 f   LIBCMTD:strftime.obj
 0001:00040370       __Gettnames                40041370 f   LIBCMTD:strftime.obj
 0001:00040700       _strftime                  40041700 f   LIBCMTD:strftime.obj
 0001:00040720       __Strftime                 40041720 f   LIBCMTD:strftime.obj
 0001:00040770       __Strftime_mt              40041770 f   LIBCMTD:strftime.obj
 0001:00041990       _localeconv                40042990 f   LIBCMTD:lconv.obj
 0001:000419a0       ___init_time               400429a0 f   LIBCMTD:inittime.obj
 0001:00041fb0       ___free_lc_time            40042fb0 f   LIBCMTD:inittime.obj
 0001:000422c0       ___init_numeric            400432c0 f   LIBCMTD:initnum.obj
 0001:00042600       ___free_lconv_num          40043600 f   LIBCMTD:initnum.obj
 0001:000426a0       ___init_monetary           400436a0 f   LIBCMTD:initmon.obj
 0001:00042aa0       ___free_lconv_mon          40043aa0 f   LIBCMTD:initmon.obj
 0001:00042c00       ___init_ctype              40043c00 f   LIBCMTD:initctyp.obj
 0001:00042ec0       ____mb_cur_max_func        40043ec0 f   LIBCMTD:initctyp.obj
 0001:00042ed0       ____lc_codepage_func       40043ed0 f   LIBCMTD:initctyp.obj
 0001:00042f00       ____lc_collate_cp_func     40043f00 f   LIBCMTD:initctyp.obj
 0001:00042f30       ____lc_handle_func         40043f30 f   LIBCMTD:initctyp.obj
 0001:00042f60       ___init_collate            40043f60 f   LIBCMTD:initcoll.obj
 0001:00042f70       _strcspn                   40043f70 f   LIBCMTD:strcspn.obj
 0001:00042fc0       _strncmp                   40043fc0 f   LIBCMTD:strncmp.obj
 0001:00043000       _strpbrk                   40044000 f   LIBCMTD:strpbrk.obj
 0001:00043040       _memcmp                    40044040 f   LIBCMTD:memcmp.obj
 0001:00043100       ___crtGetStringTypeA       40044100 f   LIBCMTD:a_str.obj
 0001:000433a0       ___get_qualified_locale    400443a0 f   LIBCMTD:getqloc.obj
 0001:000441d0       ___updatetmbcinfo          400451d0 f   LIBCMTD:mbctype.obj
 0001:000442a0       __setmbcp                  400452a0 f   LIBCMTD:mbctype.obj
 0001:00044be0       __getmbcp                  40045be0 f   LIBCMTD:mbctype.obj
 0001:00044c00       ___initmbctable            40045c00 f   LIBCMTD:mbctype.obj
 0001:00044c30       __resetstkoflw             40045c30 f   LIBCMTD:resetstk.obj
 0001:00044d80       ___ansicp                  40045d80 f   LIBCMTD:convrtcp.obj
 0001:00044de0       ___convertcp               40045de0 f   LIBCMTD:convrtcp.obj
 0001:00045080       ?_set_new_handler@@YAP6AHI@ZP6AHI@Z@Z 40046080 f   LIBCMTD:handler.obj
 0001:000450b0       ?_query_new_handler@@YAP6AHI@ZXZ 400460b0 f   LIBCMTD:handler.obj
 0001:000450c0       __callnewh                 400460c0 f   LIBCMTD:handler.obj
 0001:000450f0       __malloc_base              400460f0 f   LIBCMTD:malloc.obj
 0001:00045110       __nh_malloc_base           40046110 f   LIBCMTD:malloc.obj
 0001:00045170       __heap_alloc_base          40046170 f   LIBCMTD:malloc.obj
 0001:00045240       __CrtDefaultAllocHook      40046240 f   LIBCMTD:dbghook.obj
 0001:00045250       __expand_base              40046250 f   LIBCMTD:expand.obj
 0001:00045370       __realloc_base             40046370 f   LIBCMTD:realloc.obj
 0001:00045620       __free_base                40046620 f   LIBCMTD:free.obj
 0001:000456f0       __heapchk                  400466f0 f   LIBCMTD:heapchk.obj
 0001:000457b0       __heapset                  400467b0 f   LIBCMTD:heapchk.obj
 0001:000457c0       __get_sbh_threshold        400467c0 f   LIBCMTD:sbheap.obj
 0001:000457e0       __set_sbh_threshold        400467e0 f   LIBCMTD:sbheap.obj
 0001:00045850       ___sbh_heap_init           40046850 f   LIBCMTD:sbheap.obj
 0001:000458c0       ___sbh_find_block          400468c0 f   LIBCMTD:sbheap.obj
 0001:00045920       ___sbh_verify_block        40046920 f   LIBCMTD:sbheap.obj
 0001:00045980       ___sbh_free_block          40046980 f   LIBCMTD:sbheap.obj
 0001:00045f40       ___sbh_alloc_block         40046f40 f   LIBCMTD:sbheap.obj
 0001:00046460       ___sbh_alloc_new_region    40047460 f   LIBCMTD:sbheap.obj
 0001:00046570       ___sbh_alloc_new_group     40047570 f   LIBCMTD:sbheap.obj
 0001:00046760       ___sbh_resize_block        40047760 f   LIBCMTD:sbheap.obj
 0001:00046d30       ___sbh_heapmin             40047d30 f   LIBCMTD:sbheap.obj
 0001:00046e60       ___sbh_heap_check          40047e60 f   LIBCMTD:sbheap.obj
 0001:00047370       _sprintf                   40048370 f   LIBCMTD:sprintf.obj
 0001:00047460       __scprintf                 40048460 f   LIBCMTD:sprintf.obj
 0001:000474e0       ___crtInitCritSecAndSpinCount 400484e0 f   LIBCMTD:initcrit.obj
 0001:00047600       __ValidateEH3RN            40048600 f   LIBCMTD:eh3valid.obj
 0001:000479f0       ___addl                    400489f0 f   LIBCMTD:mantold.obj
 0001:00047a30       ___add_12                  40048a30 f   LIBCMTD:mantold.obj
 0001:00047ae0       ___shl_12                  40048ae0 f   LIBCMTD:mantold.obj
 0001:00047b40       ___shr_12                  40048b40 f   LIBCMTD:mantold.obj
 0001:00047bb0       ___mtold12                 40048bb0 f   LIBCMTD:mantold.obj
 0001:00047d00       _$I10_OUTPUT               40048d00 f   LIBCMTD:x10fout.obj
 0001:000481e0       ___ld12mul                 400491e0 f   LIBCMTD:tenpow.obj
 0001:000485d0       ___multtenpow12            400495d0 f   LIBCMTD:tenpow.obj
 0001:000486a0       __alloc_osfhnd             400496a0 f   LIBCMTD:osfinfo.obj
 0001:00048920       __set_osfhnd               40049920 f   LIBCMTD:osfinfo.obj
 0001:000489e0       __free_osfhnd              400499e0 f   LIBCMTD:osfinfo.obj
 0001:00048ac0       __get_osfhandle            40049ac0 f   LIBCMTD:osfinfo.obj
 0001:00048b30       __open_osfhandle           40049b30 f   LIBCMTD:osfinfo.obj
 0001:00048c80       __lock_fhandle             40049c80 f   LIBCMTD:osfinfo.obj
 0001:00048d70       __unlock_fhandle           40049d70 f   LIBCMTD:osfinfo.obj
 0001:00048da0       __lseeki64                 40049da0 f   LIBCMTD:lseeki64.obj
 0001:00048ec0       __lseeki64_lk              40049ec0 f   LIBCMTD:lseeki64.obj
 0001:00048f90       _fclose                    40049f90 f   LIBCMTD:fclose.obj
 0001:00049050       __fclose_lk                4004a050 f   LIBCMTD:fclose.obj
 0001:00049100       ___tzset                   4004a100 f   LIBCMTD:tzset.obj
 0001:00049190       __tzset                    4004a190 f   LIBCMTD:tzset.obj
 0001:00049620       __isindst                  4004a620 f   LIBCMTD:tzset.obj
 0001:00049c00       ___ascii_stricmp           4004ac00 f   LIBCMTD:_stricmp.obj
 0001:00049c50       ___getlocaleinfo           4004ac50 f   LIBCMTD:inithelp.obj
 0001:00049eb0       __stricmp                  4004aeb0 f   LIBCMTD:stricmp.obj
 0001:00049f60       __strnicmp                 4004af60 f   LIBCMTD:strnicmp.obj
 0001:0004a020       __close                    4004b020 f   LIBCMTD:close.obj
 0001:0004a110       __close_lk                 4004b110 f   LIBCMTD:close.obj
 0001:0004a1c0       _getenv                    4004b1c0 f   LIBCMTD:getenv.obj
 0001:0004a230       __getenv_lk                4004b230 f   LIBCMTD:getenv.obj
 0001:0004a300       ___crtGetLocaleInfoW       4004b300 f   LIBCMTD:w_loc.obj
 0001:0004a4e0       ___crtGetLocaleInfoA       4004b4e0 f   LIBCMTD:a_loc.obj
 0001:0004a6d0       ___ascii_strnicmp          4004b6d0 f   LIBCMTD:_strnicm.obj
 0001:0004a740       __mbsnbicoll               4004b740 f   LIBCMTD:mbsnbico.obj
 0001:0004a7b0       ___wtomb_environ           4004b7b0 f   LIBCMTD:wtombenv.obj
 0001:0004a8a0       ___crtCompareStringA       4004b8a0 f   LIBCMTD:a_cmp.obj
 0001:0004ae60       ___crtsetenv               4004be60 f   LIBCMTD:setenv.obj
 0001:0004b350       __mbschr                   4004c350 f   LIBCMTD:mbschr.obj
 0001:0004b418       _GetModuleFileNameA@12     4004c418 f   kernel32:KERNEL32.dll
 0001:0004b41e       _GetCurrentThreadId@0      4004c41e f   kernel32:KERNEL32.dll
 0001:0004b424       _GetCommandLineA@0         4004c424 f   kernel32:KERNEL32.dll
 0001:0004b42a       _GetVersionExA@4           4004c42a f   kernel32:KERNEL32.dll
 0001:0004b430       _DebugBreak@0              4004c430 f   kernel32:KERNEL32.dll
 0001:0004b436       _RaiseException@16         4004c436 f   kernel32:KERNEL32.dll
 0001:0004b43c       _GetProcAddress@8          4004c43c f   kernel32:KERNEL32.dll
 0001:0004b442       _LoadLibraryA@4            4004c442 f   kernel32:KERNEL32.dll
 0001:0004b448       _GetModuleHandleA@4        4004c448 f   kernel32:KERNEL32.dll
 0001:0004b44e       _TerminateProcess@8        4004c44e f   kernel32:KERNEL32.dll
 0001:0004b454       _GetCurrentProcess@0       4004c454 f   kernel32:KERNEL32.dll
 0001:0004b45a       _ExitProcess@4             4004c45a f   kernel32:KERNEL32.dll
 0001:0004b460       _GetLastError@0            4004c460 f   kernel32:KERNEL32.dll
 0001:0004b466       _SetConsoleCtrlHandler@8   4004c466 f   kernel32:KERNEL32.dll
 0001:0004b46c       _EnterCriticalSection@4    4004c46c f   kernel32:KERNEL32.dll
 0001:0004b472       _LeaveCriticalSection@4    4004c472 f   kernel32:KERNEL32.dll
 0001:0004b478       _GetStdHandle@4            4004c478 f   kernel32:KERNEL32.dll
 0001:0004b47e       _WriteFile@20              4004c47e f   kernel32:KERNEL32.dll
 0001:0004b484       _InterlockedDecrement@4    4004c484 f   kernel32:KERNEL32.dll
 0001:0004b48a       _OutputDebugStringA@4      4004c48a f   kernel32:KERNEL32.dll
 0001:0004b490       _InterlockedIncrement@4    4004c490 f   kernel32:KERNEL32.dll
 0001:0004b496       _TlsAlloc@0                4004c496 f   kernel32:KERNEL32.dll
 0001:0004b49c       _TlsFree@4                 4004c49c f   kernel32:KERNEL32.dll
 0001:0004b4a2       _TlsSetValue@8             4004c4a2 f   kernel32:KERNEL32.dll
 0001:0004b4a8       _TlsGetValue@4             4004c4a8 f   kernel32:KERNEL32.dll
 0001:0004b4ae       _SetLastError@4            4004c4ae f   kernel32:KERNEL32.dll
 0001:0004b4b4       _GetCurrentThread@0        4004c4b4 f   kernel32:KERNEL32.dll
 0001:0004b4ba       _WideCharToMultiByte@32    4004c4ba f   kernel32:KERNEL32.dll
 0001:0004b4c0       _MultiByteToWideChar@24    4004c4c0 f   kernel32:KERNEL32.dll
 0001:0004b4c6       _LCMapStringA@24           4004c4c6 f   kernel32:KERNEL32.dll
 0001:0004b4cc       _LCMapStringW@24           4004c4cc f   kernel32:KERNEL32.dll
 0001:0004b4d2       _IsBadWritePtr@8           4004c4d2 f   kernel32:KERNEL32.dll
 0001:0004b4d8       _IsBadReadPtr@8            4004c4d8 f   kernel32:KERNEL32.dll
 0001:0004b4de       _HeapValidate@12           4004c4de f   kernel32:KERNEL32.dll
 0001:0004b4e4       _SetHandleCount@4          4004c4e4 f   kernel32:KERNEL32.dll
 0001:0004b4ea       _GetFileType@4             4004c4ea f   kernel32:KERNEL32.dll
 0001:0004b4f0       _GetStartupInfoA@4         4004c4f0 f   kernel32:KERNEL32.dll
 0001:0004b4f6       _DeleteCriticalSection@4   4004c4f6 f   kernel32:KERNEL32.dll
 0001:0004b4fc       _FreeEnvironmentStringsA@4 4004c4fc f   kernel32:KERNEL32.dll
 0001:0004b502       _GetEnvironmentStrings@0   4004c502 f   kernel32:KERNEL32.dll
 0001:0004b508       _FreeEnvironmentStringsW@4 4004c508 f   kernel32:KERNEL32.dll
 0001:0004b50e       _GetEnvironmentStringsW@0  4004c50e f   kernel32:KERNEL32.dll
 0001:0004b514       _HeapDestroy@4             4004c514 f   kernel32:KERNEL32.dll
 0001:0004b51a       _HeapCreate@12             4004c51a f   kernel32:KERNEL32.dll
 0001:0004b520       _HeapFree@12               4004c520 f   kernel32:KERNEL32.dll
 0001:0004b526       _VirtualFree@12            4004c526 f   kernel32:KERNEL32.dll
 0001:0004b52c       _UnhandledExceptionFilter@4 4004c52c f   kernel32:KERNEL32.dll
 0001:0004b532       _RtlUnwind@16              4004c532 f   kernel32:KERNEL32.dll
 0001:0004b538       _HeapAlloc@12              4004c538 f   kernel32:KERNEL32.dll
 0001:0004b53e       _GetProcessHeap@0          4004c53e f   kernel32:KERNEL32.dll
 0001:0004b544       _CloseHandle@4             4004c544 f   kernel32:KERNEL32.dll
 0001:0004b54a       _FreeLibrary@4             4004c54a f   kernel32:KERNEL32.dll
 0001:0004b550       _FatalAppExitA@8           4004c550 f   kernel32:KERNEL32.dll
 0001:0004b556       _FlushFileBuffers@4        4004c556 f   kernel32:KERNEL32.dll
 0001:0004b55c       _QueryPerformanceCounter@4 4004c55c f   kernel32:KERNEL32.dll
 0001:0004b562       _GetTickCount@0            4004c562 f   kernel32:KERNEL32.dll
 0001:0004b568       _GetCurrentProcessId@0     4004c568 f   kernel32:KERNEL32.dll
 0001:0004b56e       _GetSystemTimeAsFileTime@4 4004c56e f   kernel32:KERNEL32.dll
 0001:0004b574       _SetFilePointer@16         4004c574 f   kernel32:KERNEL32.dll
 0001:0004b57a       _GetTimeFormatA@24         4004c57a f   kernel32:KERNEL32.dll
 0001:0004b580       _GetDateFormatA@24         4004c580 f   kernel32:KERNEL32.dll
 0001:0004b586       _GetCPInfo@8               4004c586 f   kernel32:KERNEL32.dll
 0001:0004b58c       _GetStringTypeA@20         4004c58c f   kernel32:KERNEL32.dll
 0001:0004b592       _GetStringTypeW@16         4004c592 f   kernel32:KERNEL32.dll
 0001:0004b598       _IsValidLocale@8           4004c598 f   kernel32:KERNEL32.dll
 0001:0004b59e       _IsValidCodePage@4         4004c59e f   kernel32:KERNEL32.dll
 0001:0004b5a4       _GetLocaleInfoA@16         4004c5a4 f   kernel32:KERNEL32.dll
 0001:0004b5aa       _EnumSystemLocalesA@8      4004c5aa f   kernel32:KERNEL32.dll
 0001:0004b5b0       _GetUserDefaultLCID@0      4004c5b0 f   kernel32:KERNEL32.dll
 0001:0004b5b6       _GetACP@0                  4004c5b6 f   kernel32:KERNEL32.dll
 0001:0004b5bc       _GetOEMCP@0                4004c5bc f   kernel32:KERNEL32.dll
 0001:0004b5c2       _VirtualProtect@16         4004c5c2 f   kernel32:KERNEL32.dll
 0001:0004b5c8       _VirtualAlloc@16           4004c5c8 f   kernel32:KERNEL32.dll
 0001:0004b5ce       _GetSystemInfo@4           4004c5ce f   kernel32:KERNEL32.dll
 0001:0004b5d4       _VirtualQuery@12           4004c5d4 f   kernel32:KERNEL32.dll
 0001:0004b5da       _HeapReAlloc@16            4004c5da f   kernel32:KERNEL32.dll
 0001:0004b5e0       _InitializeCriticalSection@4 4004c5e0 f   kernel32:KERNEL32.dll
 0001:0004b5e6       _InterlockedExchange@8     4004c5e6 f   kernel32:KERNEL32.dll
 0001:0004b5ec       _SetStdHandle@8            4004c5ec f   kernel32:KERNEL32.dll
 0001:0004b5f2       _GetTimeZoneInformation@4  4004c5f2 f   kernel32:KERNEL32.dll
 0001:0004b5f8       _GetLocaleInfoW@16         4004c5f8 f   kernel32:KERNEL32.dll
 0001:0004b5fe       _CompareStringA@24         4004c5fe f   kernel32:KERNEL32.dll
 0001:0004b604       _CompareStringW@24         4004c604 f   kernel32:KERNEL32.dll
 0001:0004b60a       _SetEnvironmentVariableA@8 4004c60a f   kernel32:KERNEL32.dll
 0002:00000000       __imp__GetModuleFileNameA@12 4004d000     kernel32:KERNEL32.dll
 0002:00000004       __imp__GetCurrentThreadId@0 4004d004     kernel32:KERNEL32.dll
 0002:00000008       __imp__GetCommandLineA@0   4004d008     kernel32:KERNEL32.dll
 0002:0000000c       __imp__GetVersionExA@4     4004d00c     kernel32:KERNEL32.dll
 0002:00000010       __imp__DebugBreak@0        4004d010     kernel32:KERNEL32.dll
 0002:00000014       __imp__RaiseException@16   4004d014     kernel32:KERNEL32.dll
 0002:00000018       __imp__GetProcAddress@8    4004d018     kernel32:KERNEL32.dll
 0002:0000001c       __imp__LoadLibraryA@4      4004d01c     kernel32:KERNEL32.dll
 0002:00000020       __imp__GetModuleHandleA@4  4004d020     kernel32:KERNEL32.dll
 0002:00000024       __imp__TerminateProcess@8  4004d024     kernel32:KERNEL32.dll
 0002:00000028       __imp__GetCurrentProcess@0 4004d028     kernel32:KERNEL32.dll
 0002:0000002c       __imp__ExitProcess@4       4004d02c     kernel32:KERNEL32.dll
 0002:00000030       __imp__GetLastError@0      4004d030     kernel32:KERNEL32.dll
 0002:00000034       __imp__SetConsoleCtrlHandler@8 4004d034     kernel32:KERNEL32.dll
 0002:00000038       __imp__EnterCriticalSection@4 4004d038     kernel32:KERNEL32.dll
 0002:0000003c       __imp__LeaveCriticalSection@4 4004d03c     kernel32:KERNEL32.dll
 0002:00000040       __imp__GetStdHandle@4      4004d040     kernel32:KERNEL32.dll
 0002:00000044       __imp__WriteFile@20        4004d044     kernel32:KERNEL32.dll
 0002:00000048       __imp__InterlockedDecrement@4 4004d048     kernel32:KERNEL32.dll
 0002:0000004c       __imp__OutputDebugStringA@4 4004d04c     kernel32:KERNEL32.dll
 0002:00000050       __imp__InterlockedIncrement@4 4004d050     kernel32:KERNEL32.dll
 0002:00000054       __imp__TlsAlloc@0          4004d054     kernel32:KERNEL32.dll
 0002:00000058       __imp__TlsFree@4           4004d058     kernel32:KERNEL32.dll
 0002:0000005c       __imp__TlsSetValue@8       4004d05c     kernel32:KERNEL32.dll
 0002:00000060       __imp__TlsGetValue@4       4004d060     kernel32:KERNEL32.dll
 0002:00000064       __imp__SetLastError@4      4004d064     kernel32:KERNEL32.dll
 0002:00000068       __imp__GetCurrentThread@0  4004d068     kernel32:KERNEL32.dll
 0002:0000006c       __imp__WideCharToMultiByte@32 4004d06c     kernel32:KERNEL32.dll
 0002:00000070       __imp__MultiByteToWideChar@24 4004d070     kernel32:KERNEL32.dll
 0002:00000074       __imp__LCMapStringA@24     4004d074     kernel32:KERNEL32.dll
 0002:00000078       __imp__LCMapStringW@24     4004d078     kernel32:KERNEL32.dll
 0002:0000007c       __imp__IsBadWritePtr@8     4004d07c     kernel32:KERNEL32.dll
 0002:00000080       __imp__IsBadReadPtr@8      4004d080     kernel32:KERNEL32.dll
 0002:00000084       __imp__HeapValidate@12     4004d084     kernel32:KERNEL32.dll
 0002:00000088       __imp__SetHandleCount@4    4004d088     kernel32:KERNEL32.dll
 0002:0000008c       __imp__GetFileType@4       4004d08c     kernel32:KERNEL32.dll
 0002:00000090       __imp__GetStartupInfoA@4   4004d090     kernel32:KERNEL32.dll
 0002:00000094       __imp__DeleteCriticalSection@4 4004d094     kernel32:KERNEL32.dll
 0002:00000098       __imp__FreeEnvironmentStringsA@4 4004d098     kernel32:KERNEL32.dll
 0002:0000009c       __imp__GetEnvironmentStrings@0 4004d09c     kernel32:KERNEL32.dll
 0002:000000a0       __imp__FreeEnvironmentStringsW@4 4004d0a0     kernel32:KERNEL32.dll
 0002:000000a4       __imp__GetEnvironmentStringsW@0 4004d0a4     kernel32:KERNEL32.dll
 0002:000000a8       __imp__HeapDestroy@4       4004d0a8     kernel32:KERNEL32.dll
 0002:000000ac       __imp__HeapCreate@12       4004d0ac     kernel32:KERNEL32.dll
 0002:000000b0       __imp__HeapFree@12         4004d0b0     kernel32:KERNEL32.dll
 0002:000000b4       __imp__VirtualFree@12      4004d0b4     kernel32:KERNEL32.dll
 0002:000000b8       __imp__UnhandledExceptionFilter@4 4004d0b8     kernel32:KERNEL32.dll
 0002:000000bc       __imp__RtlUnwind@16        4004d0bc     kernel32:KERNEL32.dll
 0002:000000c0       __imp__HeapAlloc@12        4004d0c0     kernel32:KERNEL32.dll
 0002:000000c4       __imp__GetProcessHeap@0    4004d0c4     kernel32:KERNEL32.dll
 0002:000000c8       __imp__CloseHandle@4       4004d0c8     kernel32:KERNEL32.dll
 0002:000000cc       __imp__FreeLibrary@4       4004d0cc     kernel32:KERNEL32.dll
 0002:000000d0       __imp__FatalAppExitA@8     4004d0d0     kernel32:KERNEL32.dll
 0002:000000d4       __imp__FlushFileBuffers@4  4004d0d4     kernel32:KERNEL32.dll
 0002:000000d8       __imp__QueryPerformanceCounter@4 4004d0d8     kernel32:KERNEL32.dll
 0002:000000dc       __imp__GetTickCount@0      4004d0dc     kernel32:KERNEL32.dll
 0002:000000e0       __imp__GetCurrentProcessId@0 4004d0e0     kernel32:KERNEL32.dll
 0002:000000e4       __imp__GetSystemTimeAsFileTime@4 4004d0e4     kernel32:KERNEL32.dll
 0002:000000e8       __imp__SetFilePointer@16   4004d0e8     kernel32:KERNEL32.dll
 0002:000000ec       __imp__GetTimeFormatA@24   4004d0ec     kernel32:KERNEL32.dll
 0002:000000f0       __imp__GetDateFormatA@24   4004d0f0     kernel32:KERNEL32.dll
 0002:000000f4       __imp__GetCPInfo@8         4004d0f4     kernel32:KERNEL32.dll
 0002:000000f8       __imp__GetStringTypeA@20   4004d0f8     kernel32:KERNEL32.dll
 0002:000000fc       __imp__GetStringTypeW@16   4004d0fc     kernel32:KERNEL32.dll
 0002:00000100       __imp__IsValidLocale@8     4004d100     kernel32:KERNEL32.dll
 0002:00000104       __imp__IsValidCodePage@4   4004d104     kernel32:KERNEL32.dll
 0002:00000108       __imp__GetLocaleInfoA@16   4004d108     kernel32:KERNEL32.dll
 0002:0000010c       __imp__EnumSystemLocalesA@8 4004d10c     kernel32:KERNEL32.dll
 0002:00000110       __imp__GetUserDefaultLCID@0 4004d110     kernel32:KERNEL32.dll
 0002:00000114       __imp__GetACP@0            4004d114     kernel32:KERNEL32.dll
 0002:00000118       __imp__GetOEMCP@0          4004d118     kernel32:KERNEL32.dll
 0002:0000011c       __imp__VirtualProtect@16   4004d11c     kernel32:KERNEL32.dll
 0002:00000120       __imp__VirtualAlloc@16     4004d120     kernel32:KERNEL32.dll
 0002:00000124       __imp__GetSystemInfo@4     4004d124     kernel32:KERNEL32.dll
 0002:00000128       __imp__VirtualQuery@12     4004d128     kernel32:KERNEL32.dll
 0002:0000012c       __imp__HeapReAlloc@16      4004d12c     kernel32:KERNEL32.dll
 0002:00000130       __imp__InitializeCriticalSection@4 4004d130     kernel32:KERNEL32.dll
 0002:00000134       __imp__InterlockedExchange@8 4004d134     kernel32:KERNEL32.dll
 0002:00000138       __imp__SetStdHandle@8      4004d138     kernel32:KERNEL32.dll
 0002:0000013c       __imp__GetTimeZoneInformation@4 4004d13c     kernel32:KERNEL32.dll
 0002:00000140       __imp__GetLocaleInfoW@16   4004d140     kernel32:KERNEL32.dll
 0002:00000144       __imp__CompareStringA@24   4004d144     kernel32:KERNEL32.dll
 0002:00000148       __imp__CompareStringW@24   4004d148     kernel32:KERNEL32.dll
 0002:0000014c       __imp__SetEnvironmentVariableA@8 4004d14c     kernel32:KERNEL32.dll
 0002:00000150       \177KERNEL32_NULL_THUNK_DATA 4004d150     kernel32:KERNEL32.dll
 0002:0000017c       ??_C@_08GBKLDCBE@EV_TAUNT?$AA@ 4004d17c     bg_misc.obj
 0002:00000188       ??_C@_0BE@OHJHDFJH@EV_STOPLOOPINGSOUND?$AA@ 4004d188     bg_misc.obj
 0002:0000019c       ??_C@_0O@PBPAKHP@EV_DEBUG_LINE?$AA@ 4004d19c     bg_misc.obj
 0002:000001ac       ??_C@_0BB@HHACOGHI@EV_LIGHTNINGBOLT?$AA@ 4004d1ac     bg_misc.obj
 0002:000001c0       ??_C@_09GLJGDJEJ@EV_JUICED?$AA@ 4004d1c0     bg_misc.obj
 0002:000001cc       ??_C@_0BA@NHKGBGBA@EV_INVUL_IMPACT?$AA@ 4004d1cc     bg_misc.obj
 0002:000001dc       ??_C@_0BC@LMKNBBLF@EV_OBELISKEXPLODE?$AA@ 4004d1dc     bg_misc.obj
 0002:000001f0       ??_C@_0M@KACLGFEA@EV_KAMIKAZE?$AA@ 4004d1f0     bg_misc.obj
 0002:000001fc       ??_C@_0BK@PIFCIJEJ@EV_PROXIMITY_MINE_TRIGGER?$AA@ 4004d1fc     bg_misc.obj
 0002:00000218       ??_C@_0BI@KNJAKDGK@EV_PROXIMITY_MINE_STICK?$AA@ 4004d218     bg_misc.obj
 0002:00000230       ??_C@_0N@GAJBP@EV_SCOREPLUM?$AA@ 4004d230     bg_misc.obj
 0002:00000240       ??_C@_0O@JLGFLKBE@EV_GIB_PLAYER?$AA@ 4004d240     bg_misc.obj
 0002:00000250       ??_C@_0BB@EGIJIDAN@EV_POWERUP_REGEN?$AA@ 4004d250     bg_misc.obj
 0002:00000264       ??_C@_0BG@CHAMNADK@EV_POWERUP_BATTLESUIT?$AA@ 4004d264     bg_misc.obj
 0002:0000027c       ??_C@_0BA@HLHGHIIE@EV_POWERUP_QUAD?$AA@ 4004d27c     bg_misc.obj
 0002:0000028c       ??_C@_0M@PPLCDPP@EV_OBITUARY?$AA@ 4004d28c     bg_misc.obj
 0002:00000298       ??_C@_09KNGHBIAK@EV_DEATH3?$AA@ 4004d298     bg_misc.obj
 0002:000002a4       ??_C@_09LEHMCJEL@EV_DEATH2?$AA@ 4004d2a4     bg_misc.obj
 0002:000002b0       ??_C@_09JPFBHKII@EV_DEATH1?$AA@ 4004d2b0     bg_misc.obj
 0002:000002bc       ??_C@_07EMHHKOOH@EV_PAIN?$AA@ 4004d2bc     bg_misc.obj
 0002:000002c4       ??_C@_09ICDIPKFJ@EV_BULLET?$AA@ 4004d2c4     bg_misc.obj
 0002:000002d0       ??_C@_0L@LHBIHDML@EV_SHOTGUN?$AA@ 4004d2d0     bg_misc.obj
 0002:000002dc       ??_C@_0N@HMLLJFGF@EV_RAILTRAIL?$AA@ 4004d2dc     bg_misc.obj
 0002:000002ec       ??_C@_0BG@LPAHEABB@EV_MISSILE_MISS_METAL?$AA@ 4004d2ec     bg_misc.obj
 0002:00000304       ??_C@_0BA@CAHALNAE@EV_MISSILE_MISS?$AA@ 4004d304     bg_misc.obj
 0002:00000314       ??_C@_0P@JFMFNBMO@EV_MISSILE_HIT?$AA@ 4004d314     bg_misc.obj
 0002:00000324       ??_C@_0BD@MFLMCLPN@EV_BULLET_HIT_WALL?$AA@ 4004d324     bg_misc.obj
 0002:00000338       ??_C@_0BE@KBABEJMP@EV_BULLET_HIT_FLESH?$AA@ 4004d338     bg_misc.obj
 0002:0000034c       ??_C@_0BF@DDOIKLHD@EV_GLOBAL_TEAM_SOUND?$AA@ 4004d34c     bg_misc.obj
 0002:00000364       ??_C@_0BA@JAMKLOPJ@EV_GLOBAL_SOUND?$AA@ 4004d364     bg_misc.obj
 0002:00000374       ??_C@_0BB@LJGGMAII@EV_GENERAL_SOUND?$AA@ 4004d374     bg_misc.obj
 0002:00000388       ??_C@_0BC@ECIIAFLJ@EV_GRENADE_BOUNCE?$AA@ 4004d388     bg_misc.obj
 0002:0000039c       ??_C@_0BH@FNNILPIN@EV_PLAYER_TELEPORT_OUT?$AA@ 4004d39c     bg_misc.obj
 0002:000003b4       ??_C@_0BG@HBBJKNDP@EV_PLAYER_TELEPORT_IN?$AA@ 4004d3b4     bg_misc.obj
 0002:000003cc       ??_C@_0M@ECGFPIMP@EV_ITEM_POP?$AA@ 4004d3cc     bg_misc.obj
 0002:000003d8       ??_C@_0BA@GJNCODNG@EV_ITEM_RESPAWN?$AA@ 4004d3d8     bg_misc.obj
 0002:000003e8       ??_C@_0O@HHGOLJPJ@EV_USE_ITEM15?$AA@ 4004d3e8     bg_misc.obj
 0002:000003f8       ??_C@_0O@GOHFIILI@EV_USE_ITEM14?$AA@ 4004d3f8     bg_misc.obj
 0002:00000408       ??_C@_0O@CBDEBOHP@EV_USE_ITEM13?$AA@ 4004d408     bg_misc.obj
 0002:00000418       ??_C@_0O@DICPCPDO@EV_USE_ITEM12?$AA@ 4004d418     bg_misc.obj
 0002:00000428       ??_C@_0O@BDACHMPN@EV_USE_ITEM11?$AA@ 4004d428     bg_misc.obj
 0002:00000438       ??_C@_0O@KBJENLM@EV_USE_ITEM10?$AA@ 4004d438     bg_misc.obj
 0002:00000448       ??_C@_0N@PHODCBCK@EV_USE_ITEM9?$AA@ 4004d448     bg_misc.obj
 0002:00000458       ??_C@_0N@OOPIBAGL@EV_USE_ITEM8?$AA@ 4004d458     bg_misc.obj
 0002:00000468       ??_C@_0N@GJGAAMKE@EV_USE_ITEM7?$AA@ 4004d468     bg_misc.obj
 0002:00000478       ??_C@_0N@HAHLDNOF@EV_USE_ITEM6?$AA@ 4004d478     bg_misc.obj
 0002:00000488       ??_C@_0N@FLFGGOCG@EV_USE_ITEM5?$AA@ 4004d488     bg_misc.obj
 0002:00000498       ??_C@_0N@ECENFPGH@EV_USE_ITEM4?$AA@ 4004d498     bg_misc.obj
 0002:000004a8       ??_C@_0N@NAMMJKA@EV_USE_ITEM3?$AA@ 4004d4a8     bg_misc.obj
 0002:000004b8       ??_C@_0N@BEBHPIOB@EV_USE_ITEM2?$AA@ 4004d4b8     bg_misc.obj
 0002:000004c8       ??_C@_0N@DPDKKLCC@EV_USE_ITEM1?$AA@ 4004d4c8     bg_misc.obj
 0002:000004d8       ??_C@_0N@CGCBJKGD@EV_USE_ITEM0?$AA@ 4004d4d8     bg_misc.obj
 0002:000004e8       ??_C@_0P@PFJPAFGH@EV_FIRE_WEAPON?$AA@ 4004d4e8     bg_misc.obj
 0002:000004f8       ??_C@_0BB@ENKPHJLP@EV_CHANGE_WEAPON?$AA@ 4004d4f8     bg_misc.obj
 0002:0000050c       ??_C@_09NMIICG@EV_NOAMMO?$AA@ 4004d50c     bg_misc.obj
 0002:00000518       ??_C@_0BG@KFILGAMN@EV_GLOBAL_ITEM_PICKUP?$AA@ 4004d518     bg_misc.obj
 0002:00000530       ??_C@_0P@BGIOEPCB@EV_ITEM_PICKUP?$AA@ 4004d530     bg_misc.obj
 0002:00000540       ??_C@_0P@NIPCJOBG@EV_WATER_CLEAR?$AA@ 4004d540     bg_misc.obj
 0002:00000550       ??_C@_0P@MIAIODEJ@EV_WATER_UNDER?$AA@ 4004d550     bg_misc.obj
 0002:00000560       ??_C@_0P@LHDMOIIG@EV_WATER_LEAVE?$AA@ 4004d560     bg_misc.obj
 0002:00000570       ??_C@_0P@GCDBKPMP@EV_WATER_TOUCH?$AA@ 4004d570     bg_misc.obj
 0002:00000580       ??_C@_07GKBEHGAP@EV_JUMP?$AA@ 4004d580     bg_misc.obj
 0002:00000588       ??_C@_0M@BPNFGBOJ@EV_JUMP_PAD?$AA@ 4004d588     bg_misc.obj
 0002:00000594       ??_C@_0M@LKJJNJOM@EV_FALL_FAR?$AA@ 4004d594     bg_misc.obj
 0002:000005a0       ??_C@_0P@MGFLMCKC@EV_FALL_MEDIUM?$AA@ 4004d5a0     bg_misc.obj
 0002:000005b0       ??_C@_0O@EAFDHAJM@EV_FALL_SHORT?$AA@ 4004d5b0     bg_misc.obj
 0002:000005c0       ??_C@_0L@HOOIOPKF@EV_STEP_16?$AA@ 4004d5c0     bg_misc.obj
 0002:000005cc       ??_C@_0L@BKIECKKB@EV_STEP_12?$AA@ 4004d5cc     bg_misc.obj
 0002:000005d8       ??_C@_09EHOLDGNN@EV_STEP_8?$AA@ 4004d5d8     bg_misc.obj
 0002:000005e4       ??_C@_09OLFOHJNB@EV_STEP_4?$AA@ 4004d5e4     bg_misc.obj
 0002:000005f0       ??_C@_07FFIIIPLH@EV_SWIM?$AA@ 4004d5f0     bg_misc.obj
 0002:000005f8       ??_C@_0M@NPJBGELA@EV_FOOTWADE?$AA@ 4004d5f8     bg_misc.obj
 0002:00000604       ??_C@_0O@HLJHKIDH@EV_FOOTSPLASH?$AA@ 4004d604     bg_misc.obj
 0002:00000614       ??_C@_0BC@DIJMAMMI@EV_FOOTSTEP_METAL?$AA@ 4004d614     bg_misc.obj
 0002:00000628       ??_C@_0M@HLKBOJPO@EV_FOOTSTEP?$AA@ 4004d628     bg_misc.obj
 0002:00000634       ??_C@_07JFMDDPHJ@EV_NONE?$AA@ 4004d634     bg_misc.obj
 0002:0000063c       ??_C@_09MDBFHCAB@Blue?5Flag?$AA@ 4004d63c     bg_misc.obj
 0002:00000648       ??_C@_0BB@EMIIAFKA@icons?1iconf_blu1?$AA@ 4004d648     bg_misc.obj
 0002:0000065c       ??_C@_0BI@FKICCNIF@models?1flags?1b_flag?4md3?$AA@ 4004d65c     bg_misc.obj
 0002:00000674       ??_C@_0BC@NLKCOFAB@team_CTF_blueflag?$AA@ 4004d674     bg_misc.obj
 0002:00000688       ??_C@_08GAOGPIJL@Red?5Flag?$AA@ 4004d688     bg_misc.obj
 0002:00000694       ??_C@_0BB@EMIEBEOP@icons?1iconf_red1?$AA@ 4004d694     bg_misc.obj
 0002:000006a8       ??_C@_0BI@PEHEOJEO@models?1flags?1r_flag?4md3?$AA@ 4004d6a8     bg_misc.obj
 0002:000006c0       ??_C@_0BB@JNMMCIHG@team_CTF_redflag?$AA@ 4004d6c0     bg_misc.obj
 0002:000006d4       ??_C@_06FDKFDAP@Flight?$AA@ 4004d6d4     bg_misc.obj
 0002:000006dc       ??_C@_0N@GLEPEEPG@icons?1flight?$AA@ 4004d6dc     bg_misc.obj
 0002:000006ec       ??_C@_0CI@IADFFEDP@models?1powerups?1instant?1flight_r@ 4004d6ec     bg_misc.obj
 0002:00000714       ??_C@_0CD@MKDGJOMG@models?1powerups?1instant?1flight?4m@ 4004d714     bg_misc.obj
 0002:00000738       ??_C@_0BH@COLFHEAE@sound?1items?1flight?4wav?$AA@ 4004d738     bg_misc.obj
 0002:00000750       ??_C@_0M@MBNKEMMH@item_flight?$AA@ 4004d750     bg_misc.obj
 0002:0000075c       ??_C@_0BG@LHDLOKKN@sound?1items?1regen?4wav?$AA@ 4004d75c     bg_misc.obj
 0002:00000774       ??_C@_0N@CBPBLBHG@Regeneration?$AA@ 4004d774     bg_misc.obj
 0002:00000784       ??_C@_0M@FDCLJBFC@icons?1regen?$AA@ 4004d784     bg_misc.obj
 0002:00000790       ??_C@_0CH@FANACKJM@models?1powerups?1instant?1regen_ri@ 4004d790     bg_misc.obj
 0002:000007b8       ??_C@_0CC@OEAPIKIN@models?1powerups?1instant?1regen?4md@ 4004d7b8     bg_misc.obj
 0002:000007dc       ??_C@_0BN@OBGKHNFF@sound?1items?1regeneration?4wav?$AA@ 4004d7dc     bg_misc.obj
 0002:000007fc       ??_C@_0L@MMGPPPDM@item_regen?$AA@ 4004d7fc     bg_misc.obj
 0002:00000808       ??_C@_0N@LCCEENAK@Invisibility?$AA@ 4004d808     bg_misc.obj
 0002:00000818       ??_C@_0M@FDDJPHJJ@icons?1invis?$AA@ 4004d818     bg_misc.obj
 0002:00000824       ??_C@_0CH@IMIHJDNC@models?1powerups?1instant?1invis_ri@ 4004d824     bg_misc.obj
 0002:0000084c       ??_C@_0CC@HBONCEML@models?1powerups?1instant?1invis?4md@ 4004d84c     bg_misc.obj
 0002:00000870       ??_C@_0BN@OJBEBLGB@sound?1items?1invisibility?4wav?$AA@ 4004d870     bg_misc.obj
 0002:00000890       ??_C@_0L@MMHNJJPH@item_invis?$AA@ 4004d890     bg_misc.obj
 0002:0000089c       ??_C@_05HOIAGEJD@Speed?$AA@ 4004d89c     bg_misc.obj
 0002:000008a4       ??_C@_0M@CFINMGCL@icons?1haste?$AA@ 4004d8a4     bg_misc.obj
 0002:000008b0       ??_C@_0CH@KKDDKNEF@models?1powerups?1instant?1haste_ri@ 4004d8b0     bg_misc.obj
 0002:000008d8       ??_C@_0CC@NKPAJCMI@models?1powerups?1instant?1haste?4md@ 4004d8d8     bg_misc.obj
 0002:000008fc       ??_C@_0BG@IJMEPCOI@sound?1items?1haste?4wav?$AA@ 4004d8fc     bg_misc.obj
 0002:00000914       ??_C@_0L@LKMJKIEF@item_haste?$AA@ 4004d914     bg_misc.obj
 0002:00000920       ??_C@_0DA@OCPACKGN@sound?1items?1airout?4wav?5sound?1ite@ 4004d920     bg_misc.obj
 0002:00000950       ??_C@_0M@ONKEJEFE@Battle?5Suit?$AA@ 4004d950     bg_misc.obj
 0002:0000095c       ??_C@_0BB@MGICBJOH@icons?1envirosuit?$AA@ 4004d95c     bg_misc.obj
 0002:00000970       ??_C@_0CI@KAEDJDGE@models?1powerups?1instant?1enviro_r@ 4004d970     bg_misc.obj
 0002:00000998       ??_C@_0CD@JLGNIGLA@models?1powerups?1instant?1enviro?4m@ 4004d998     bg_misc.obj
 0002:000009bc       ??_C@_0BI@DEKBIKDD@sound?1items?1protect?4wav?$AA@ 4004d9bc     bg_misc.obj
 0002:000009d4       ??_C@_0M@HBCGNAN@item_enviro?$AA@ 4004d9d4     bg_misc.obj
 0002:000009e0       ??_C@_0DA@PPPPKFJI@sound?1items?1damage2?4wav?5sound?1it@ 4004d9e0     bg_misc.obj
 0002:00000a10       ??_C@_0M@KOJLOALK@Quad?5Damage?$AA@ 4004da10     bg_misc.obj
 0002:00000a1c       ??_C@_0L@DICHEOBB@icons?1quad?$AA@ 4004da1c     bg_misc.obj
 0002:00000a28       ??_C@_0CG@JNMBMLHJ@models?1powerups?1instant?1quad_rin@ 4004da28     bg_misc.obj
 0002:00000a50       ??_C@_0CB@HIFGFDGN@models?1powerups?1instant?1quad?4md3@ 4004da50     bg_misc.obj
 0002:00000a74       ??_C@_0BL@GLEJLOCA@sound?1items?1quaddamage?4wav?$AA@ 4004da74     bg_misc.obj
 0002:00000a90       ??_C@_09MDKNIFFH@item_quad?$AA@ 4004da90     bg_misc.obj
 0002:00000a9c       ??_C@_0BL@GLIFPGGG@sound?1items?1use_medkit?4wav?$AA@ 4004da9c     bg_misc.obj
 0002:00000ab8       ??_C@_06JDLGEHAD@Medkit?$AA@ 4004dab8     bg_misc.obj
 0002:00000ac0       ??_C@_0N@PNMDFAPK@icons?1medkit?$AA@ 4004dac0     bg_misc.obj
 0002:00000ad0       ??_C@_0CL@LOBKLABC@models?1powerups?1holdable?1medkit_@ 4004dad0     bg_misc.obj
 0002:00000afc       ??_C@_0CE@NKMJILL@models?1powerups?1holdable?1medkit?4@ 4004dafc     bg_misc.obj
 0002:00000b20       ??_C@_0BA@PDDMBOCP@holdable_medkit?$AA@ 4004db20     bg_misc.obj
 0002:00000b30       ??_C@_0BE@PCKJDFFA@Personal?5Teleporter?$AA@ 4004db30     bg_misc.obj
 0002:00000b44       ??_C@_0BB@HCFICFKF@icons?1teleporter?$AA@ 4004db44     bg_misc.obj
 0002:00000b58       ??_C@_0CI@FHEOFFOB@models?1powerups?1holdable?1telepor@ 4004db58     bg_misc.obj
 0002:00000b80       ??_C@_0BJ@PNIOAJDI@sound?1items?1holdable?4wav?$AA@ 4004db80     bg_misc.obj
 0002:00000b9c       ??_C@_0BE@GNEKBMLB@holdable_teleporter?$AA@ 4004db9c     bg_misc.obj
 0002:00000bb0       ??_C@_08LIBOGPIN@Bfg?5Ammo?$AA@ 4004dbb0     bg_misc.obj
 0002:00000bbc       ??_C@_0BA@NIKNDLKG@icons?1icona_bfg?$AA@ 4004dbbc     bg_misc.obj
 0002:00000bcc       ??_C@_0BP@BOBKFIKJ@models?1powerups?1ammo?1bfgam?4md3?$AA@ 4004dbcc     bg_misc.obj
 0002:00000bec       ??_C@_08EHEJHGBG@ammo_bfg?$AA@ 4004dbec     bg_misc.obj
 0002:00000bf8       ??_C@_05INIOBJHH@Slugs?$AA@ 4004dbf8     bg_misc.obj
 0002:00000c00       ??_C@_0BE@DPOADFL@icons?1icona_railgun?$AA@ 4004dc00     bg_misc.obj
 0002:00000c14       ??_C@_0CD@CAJEPMME@models?1powerups?1ammo?1railgunam?4m@ 4004dc14     bg_misc.obj
 0002:00000c38       ??_C@_0L@JEFOIHIM@ammo_slugs?$AA@ 4004dc38     bg_misc.obj
 0002:00000c44       ??_C@_07MLLADOAB@Rockets?$AA@ 4004dc44     bg_misc.obj
 0002:00000c4c       ??_C@_0BD@BFBJLPJK@icons?1icona_rocket?$AA@ 4004dc4c     bg_misc.obj
 0002:00000c60       ??_C@_0CC@KCOEDLFM@models?1powerups?1ammo?1rocketam?4md@ 4004dc60     bg_misc.obj
 0002:00000c84       ??_C@_0N@CLEPKBOE@ammo_rockets?$AA@ 4004dc84     bg_misc.obj
 0002:00000c94       ??_C@_09JCCOMJEA@Lightning?$AA@ 4004dc94     bg_misc.obj
 0002:00000ca0       ??_C@_0BG@MEGMAGOM@icons?1icona_lightning?$AA@ 4004dca0     bg_misc.obj
 0002:00000cb8       ??_C@_0CF@HDAADIIL@models?1powerups?1ammo?1lightningam@ 4004dcb8     bg_misc.obj
 0002:00000ce0       ??_C@_0P@NBJHKAMD@ammo_lightning?$AA@ 4004dce0     bg_misc.obj
 0002:00000cf0       ??_C@_05KCAMIOGJ@Cells?$AA@ 4004dcf0     bg_misc.obj
 0002:00000cf8       ??_C@_0BD@NCNJEHKB@icons?1icona_plasma?$AA@ 4004dcf8     bg_misc.obj
 0002:00000d0c       ??_C@_0CC@FGLALJGN@models?1powerups?1ammo?1plasmaam?4md@ 4004dd0c     bg_misc.obj
 0002:00000d30       ??_C@_0L@LLNMBAJC@ammo_cells?$AA@ 4004dd30     bg_misc.obj
 0002:00000d3c       ??_C@_08PMBIADEN@Grenades?$AA@ 4004dd3c     bg_misc.obj
 0002:00000d48       ??_C@_0BE@LHOKGGAM@icons?1icona_grenade?$AA@ 4004dd48     bg_misc.obj
 0002:00000d5c       ??_C@_0CD@HNOBKKLC@models?1powerups?1ammo?1grenadeam?4m@ 4004dd5c     bg_misc.obj
 0002:00000d80       ??_C@_0O@CMJIOKCF@ammo_grenades?$AA@ 4004dd80     bg_misc.obj
 0002:00000d90       ??_C@_07DHNDKCGP@Bullets?$AA@ 4004dd90     bg_misc.obj
 0002:00000d98       ??_C@_0BH@HMOAGCNP@icons?1icona_machinegun?$AA@ 4004dd98     bg_misc.obj
 0002:00000db0       ??_C@_0CG@OLENEOKN@models?1powerups?1ammo?1machineguna@ 4004ddb0     bg_misc.obj
 0002:00000dd8       ??_C@_0N@NHCMDNIK@ammo_bullets?$AA@ 4004ddd8     bg_misc.obj
 0002:00000de8       ??_C@_06PBPEPGGL@Shells?$AA@ 4004dde8     bg_misc.obj
 0002:00000df0       ??_C@_0BE@NMAFHJEI@icons?1icona_shotgun?$AA@ 4004ddf0     bg_misc.obj
 0002:00000e04       ??_C@_0CD@MBAGJHDE@models?1powerups?1ammo?1shotgunam?4m@ 4004de04     bg_misc.obj
 0002:00000e28       ??_C@_0BH@DPAADLFH@sound?1misc?1am_pkup?4wav?$AA@ 4004de28     bg_misc.obj
 0002:00000e40       ??_C@_0M@NLICANGB@ammo_shells?$AA@ 4004de40     bg_misc.obj
 0002:00000e4c       ??_C@_0P@CFJPDDC@Grappling?5Hook?$AA@ 4004de4c     bg_misc.obj
 0002:00000e5c       ??_C@_0BE@DPKNJNBE@icons?1iconw_grapple?$AA@ 4004de5c     bg_misc.obj
 0002:00000e70       ??_C@_0CE@LFAGANA@models?1weapons2?1grapple?1grapple?4@ 4004de70     bg_misc.obj
 0002:00000e94       ??_C@_0BF@MEMGGPGH@weapon_grapplinghook?$AA@ 4004de94     bg_misc.obj
 0002:00000eac       ??_C@_06PNKEMFGD@BFG10K?$AA@ 4004deac     bg_misc.obj
 0002:00000eb4       ??_C@_0BA@NCCNKCA@icons?1iconw_bfg?$AA@ 4004deb4     bg_misc.obj
 0002:00000ec4       ??_C@_0BM@HHDGGOHP@models?1weapons2?1bfg?1bfg?4md3?$AA@ 4004dec4     bg_misc.obj
 0002:00000ee0       ??_C@_0L@JBGNLNGG@weapon_bfg?$AA@ 4004dee0     bg_misc.obj
 0002:00000eec       ??_C@_0L@JFFCGJF@Plasma?5Gun?$AA@ 4004deec     bg_misc.obj
 0002:00000ef8       ??_C@_0BD@NADHMFK@icons?1iconw_plasma?$AA@ 4004def8     bg_misc.obj
 0002:00000f0c       ??_C@_0CC@EHGHEDND@models?1weapons2?1plasma?1plasma?4md@ 4004df0c     bg_misc.obj
 0002:00000f30       ??_C@_0BB@LBHAKENA@weapon_plasmagun?$AA@ 4004df30     bg_misc.obj
 0002:00000f44       ??_C@_07NMJDHEIK@Railgun?$AA@ 4004df44     bg_misc.obj
 0002:00000f4c       ??_C@_0BE@CJEOPCPE@icons?1iconw_railgun?$AA@ 4004df4c     bg_misc.obj
 0002:00000f60       ??_C@_0CE@JHJFFEBE@models?1weapons2?1railgun?1railgun?4@ 4004df60     bg_misc.obj
 0002:00000f84       ??_C@_0P@FEPBKEBF@weapon_railgun?$AA@ 4004df84     bg_misc.obj
 0002:00000f94       ??_C@_0O@HOCKKNKE@Lightning?5Gun?$AA@ 4004df94     bg_misc.obj
 0002:00000fa4       ??_C@_0BG@CHEJEOPA@icons?1iconw_lightning?$AA@ 4004dfa4     bg_misc.obj
 0002:00000fbc       ??_C@_0CI@MNAFJDPO@models?1weapons2?1lightning?1lightn@ 4004dfbc     bg_misc.obj
 0002:00000fe4       ??_C@_0BB@OCCEAFCD@weapon_lightning?$AA@ 4004dfe4     bg_misc.obj
 0002:00000ff8       ??_C@_0BA@DJIGCIDL@Rocket?5Launcher?$AA@ 4004dff8     bg_misc.obj
 0002:00001008       ??_C@_0BD@MKMDIEGB@icons?1iconw_rocket?$AA@ 4004e008     bg_misc.obj
 0002:0000101c       ??_C@_0CE@GGGFLKKE@models?1weapons2?1rocketl?1rocketl?4@ 4004e01c     bg_misc.obj
 0002:00001040       ??_C@_0BG@HJKONAJE@weapon_rocketlauncher?$AA@ 4004e040     bg_misc.obj
 0002:00001058       ??_C@_0EG@LFEMOCGK@sound?1weapons?1grenade?1hgrenb1a?4w@ 4004e058     bg_misc.obj
 0002:000010a0       ??_C@_0BB@GIEOMMBO@Grenade?5Launcher?$AA@ 4004e0a0     bg_misc.obj
 0002:000010b4       ??_C@_0BE@JNFKJHKD@icons?1iconw_grenade?$AA@ 4004e0b4     bg_misc.obj
 0002:000010c8       ??_C@_0CG@INCGOMDL@models?1weapons2?1grenadel?1grenade@ 4004e0c8     bg_misc.obj
 0002:000010f0       ??_C@_0BH@DGCCJPLM@weapon_grenadelauncher?$AA@ 4004e0f0     bg_misc.obj
 0002:00001108       ??_C@_0L@KDNGMPND@Machinegun?$AA@ 4004e108     bg_misc.obj
 0002:00001114       ??_C@_0BH@GIACBLNI@icons?1iconw_machinegun?$AA@ 4004e114     bg_misc.obj
 0002:0000112c       ??_C@_0CK@BBPFNIFO@models?1weapons2?1machinegun?1machi@ 4004e12c     bg_misc.obj
 0002:00001158       ??_C@_0BC@HHBNPFPN@weapon_machinegun?$AA@ 4004e158     bg_misc.obj
 0002:0000116c       ??_C@_07DGIAOJJ@Shotgun?$AA@ 4004e16c     bg_misc.obj
 0002:00001174       ??_C@_0BE@PGLFIIOH@icons?1iconw_shotgun?$AA@ 4004e174     bg_misc.obj
 0002:00001188       ??_C@_0CE@CJGCHKCN@models?1weapons2?1shotgun?1shotgun?4@ 4004e188     bg_misc.obj
 0002:000011ac       ??_C@_0P@ILAKNOAG@weapon_shotgun?$AA@ 4004e1ac     bg_misc.obj
 0002:000011bc       ??_C@_08ELAHAPJB@Gauntlet?$AA@ 4004e1bc     bg_misc.obj
 0002:000011c8       ??_C@_0BF@PMEPIOCM@icons?1iconw_gauntlet?$AA@ 4004e1c8     bg_misc.obj
 0002:000011e0       ??_C@_0CG@PFPPJBAC@models?1weapons2?1gauntlet?1gauntle@ 4004e1e0     bg_misc.obj
 0002:00001208       ??_C@_0BG@BBKFHONL@sound?1misc?1w_pkup?4wav?$AA@ 4004e208     bg_misc.obj
 0002:00001220       ??_C@_0BA@CLDPODJE@weapon_gauntlet?$AA@ 4004e220     bg_misc.obj
 0002:00001230       ??_C@_0M@IOJDMPNO@Mega?5Health?$AA@ 4004e230     bg_misc.obj
 0002:0000123c       ??_C@_0BB@EGPGIMOM@icons?1iconh_mega?$AA@ 4004e23c     bg_misc.obj
 0002:00001250       ??_C@_0CH@NEGHBKPB@models?1powerups?1health?1mega_sphe@ 4004e250     bg_misc.obj
 0002:00001278       ??_C@_0CG@PDJMMGME@models?1powerups?1health?1mega_cros@ 4004e278     bg_misc.obj
 0002:000012a0       ??_C@_0BJ@FGLGEHNG@sound?1items?1m_health?4wav?$AA@ 4004e2a0     bg_misc.obj
 0002:000012bc       ??_C@_0BB@PBGAONGH@item_health_mega?$AA@ 4004e2bc     bg_misc.obj
 0002:000012d0       ??_C@_09EBELOOOD@50?5Health?$AA@ 4004e2d0     bg_misc.obj
 0002:000012dc       ??_C@_0BA@IGNANAGL@icons?1iconh_red?$AA@ 4004e2dc     bg_misc.obj
 0002:000012ec       ??_C@_0CI@CEEMEFNH@models?1powerups?1health?1large_sph@ 4004e2ec     bg_misc.obj
 0002:00001314       ??_C@_0CH@NHFAKEFE@models?1powerups?1health?1large_cro@ 4004e314     bg_misc.obj
 0002:0000133c       ??_C@_0BJ@ILCAJOFD@sound?1items?1l_health?4wav?$AA@ 4004e33c     bg_misc.obj
 0002:00001358       ??_C@_0BC@JGDLKFIO@item_health_large?$AA@ 4004e358     bg_misc.obj
 0002:0000136c       ??_C@_09OJAALANF@25?5Health?$AA@ 4004e36c     bg_misc.obj
 0002:00001378       ??_C@_0BD@CDBLAHCA@icons?1iconh_yellow?$AA@ 4004e378     bg_misc.obj
 0002:0000138c       ??_C@_0CJ@NCCPDHOD@models?1powerups?1health?1medium_sp@ 4004e38c     bg_misc.obj
 0002:000013b8       ??_C@_0CI@NAEMLIB@models?1powerups?1health?1medium_cr@ 4004e3b8     bg_misc.obj
 0002:000013e0       ??_C@_0BJ@OLHMCLBI@sound?1items?1n_health?4wav?$AA@ 4004e3e0     bg_misc.obj
 0002:000013fc       ??_C@_0M@KCNAKNNL@item_health?$AA@ 4004e3fc     bg_misc.obj
 0002:00001408       ??_C@_08IAIFJOAI@5?5Health?$AA@ 4004e408     bg_misc.obj
 0002:00001414       ??_C@_0BC@IMNPBGFF@icons?1iconh_green?$AA@ 4004e414     bg_misc.obj
 0002:00001428       ??_C@_0CI@MPAPPIIE@models?1powerups?1health?1small_sph@ 4004e428     bg_misc.obj
 0002:00001450       ??_C@_0CH@JKNLMIJB@models?1powerups?1health?1small_cro@ 4004e450     bg_misc.obj
 0002:00001478       ??_C@_0BJ@BIFHONLM@sound?1items?1s_health?4wav?$AA@ 4004e478     bg_misc.obj
 0002:00001494       ??_C@_0BC@DOHAFEBI@item_health_small?$AA@ 4004e494     bg_misc.obj
 0002:000014a8       ??_C@_0M@ICCAHGAD@Heavy?5Armor?$AA@ 4004e4a8     bg_misc.obj
 0002:000014b4       ??_C@_0BA@CEJNPBJG@icons?1iconr_red?$AA@ 4004e4b4     bg_misc.obj
 0002:000014c4       ??_C@_0CE@EGJFDJJK@models?1powerups?1armor?1armor_red?4@ 4004e4c4     bg_misc.obj
 0002:000014e8       ??_C@_0BA@EKKMHIH@item_armor_body?$AA@ 4004e4e8     bg_misc.obj
 0002:000014f8       ??_C@_05JOOFIMIN@Armor?$AA@ 4004e4f8     bg_misc.obj
 0002:00001500       ??_C@_0BD@BKPFMPMP@icons?1iconr_yellow?$AA@ 4004e500     bg_misc.obj
 0002:00001514       ??_C@_0CE@PHKMKHKB@models?1powerups?1armor?1armor_yel?4@ 4004e514     bg_misc.obj
 0002:00001538       ??_C@_0BI@KNMPECGK@sound?1misc?1ar2_pkup?4wav?$AA@ 4004e538     bg_misc.obj
 0002:00001550       ??_C@_0BC@FPPLPJIL@item_armor_combat?$AA@ 4004e550     bg_misc.obj
 0002:00001564       ??_C@_0M@PJIPIDNH@Armor?5Shard?$AA@ 4004e564     bg_misc.obj
 0002:00001570       ??_C@_0BC@LPFHDODA@icons?1iconr_shard?$AA@ 4004e570     bg_misc.obj
 0002:00001584       ??_C@_0CH@NEKDLKN@models?1powerups?1armor?1shard_sphe@ 4004e584     bg_misc.obj
 0002:000015ac       ??_C@_0CA@NOFOCCIK@models?1powerups?1armor?1shard?4md3?$AA@ 4004e5ac     bg_misc.obj
 0002:000015cc       ??_C@_0BI@DECNCEGL@sound?1misc?1ar1_pkup?4wav?$AA@ 4004e5cc     bg_misc.obj
 0002:000015e4       ??_C@_0BB@DDGIAABK@item_armor_shard?$AA@ 4004e5e4     bg_misc.obj
 0002:000015f5       ??_C@_00CNPNBAHC@?$AA@     4004e5f5     bg_misc.obj
 0002:000015f8       ??_C@_0BH@MFGKJDLM@HoldableItem?5not?5found?$AA@ 4004e5f8     bg_misc.obj
 0002:00001610       ??_C@_0CB@DEACFJO@Couldn?8t?5find?5item?5for?5weapon?5?$CFi@ 4004e610     bg_misc.obj
 0002:00001634       __real@c2100000            4004e634     bg_misc.obj
 0002:00001638       __real@42100000            4004e638     bg_misc.obj
 0002:0000163c       __real@c2480000            4004e63c     bg_misc.obj
 0002:00001640       __real@42300000            4004e640     bg_misc.obj
 0002:00001644       ??_C@_0CG@HNLFCMEK@BG_CanItemBeGrabbed?3?5unknown?5enu@ 4004e644     bg_misc.obj
 0002:0000166c       ??_C@_0BM@NECGLAIF@BG_CanItemBeGrabbed?3?5IT_BAD?$AA@ 4004e66c     bg_misc.obj
 0002:00001688       ??_C@_0CI@MFONMA@BG_CanItemBeGrabbed?3?5index?5out?5o@ 4004e688     bg_misc.obj
 0002:000016b0       ??_C@_0CK@DNBGNAED@BG_EvaluateTrajectory?3?5unknown?5t@ 4004e6b0     bg_misc.obj
 0002:000016e0       __real@4079000000000000    4004e6e0     bg_misc.obj
 0002:000016e8       __real@00000000            4004e6e8     bg_misc.obj
 0002:000016ec       __real@40490fdb            4004e6ec     bg_misc.obj
 0002:000016f0       __real@3f50624dd2f1a9fc    4004e6f0     bg_misc.obj
 0002:000016f8       ??_C@_0CP@MCFPOIMF@BG_EvaluateTrajectoryDelta?3?5unkn@ 4004e6f8     bg_misc.obj
 0002:00001728       __real@44480000            4004e728     bg_misc.obj
 0002:00001730       __real@3fe0000000000000    4004e730     bg_misc.obj
 0002:00001738       ??_C@_0DA@KOPJLGJF@Cgame?5event?5svt?5?$CF5d?5?9?$DO?5?$CF5d?3?5num?5@ 4004e738     bg_misc.obj
 0002:00001768       __real@0000000000000000    4004e768     bg_misc.obj
 0002:00001770       ??_C@_0L@MNPDPHLD@showevents?$AA@ 4004e770     bg_misc.obj
 0002:0000177c       __real@42340000            4004e77c     bg_misc.obj
 0002:00001780       __real@47800000            4004e780     q_math.obj
 0002:00001784       __real@437f0000            4004e784     q_math.obj
 0002:00001788       __real@43340000            4004e788     q_math.obj
 0002:0000178c       __real@43b40000            4004e78c     q_math.obj
 0002:00001790       __real@400921fb60000000    4004e790     q_math.obj
 0002:00001798       __real@4066800000000000    4004e798     q_math.obj
 0002:000017a0       __real@3f800000            4004e7a0     q_math.obj
 0002:000017a4       ??_C@_0BK@JDDBNDOP@Q_fabs?$CIinv_denom?$CJ?5?$CB?$DN?50?40f?$AA@ 4004e7a4     q_math.obj
 0002:000017c0       ??_C@_0CI@LJOCNONI@c?3?2quake3?2luamod_src?2code?2game?2q@ 4004e7c0     q_math.obj
 0002:000017e8       __real@3f000000            4004e7e8     q_math.obj
 0002:000017ec       __real@c3340000            4004e7ec     q_math.obj
 0002:000017f0       __real@3f76800000000000    4004e7f0     q_math.obj
 0002:000017f8       __real@4066c16c16c16c17    4004e7f8     q_math.obj
 0002:00001800       __real@4076800000000000    4004e800     q_math.obj
 0002:00001808       __real@bf800000            4004e808     q_math.obj
 0002:0000180c       __real@3c8efa35            4004e80c     q_math.obj
 0002:00001810       ??_C@_04HDOCAJNK@?$CFs?$CFs?$AA@ 4004e810     q_shared.obj
 0002:00001818       ??_C@_02DKCKIIND@?$CFs?$AA@ 4004e818     q_shared.obj
 0002:0000181c       ??_C@_0BI@KPLEBEJF@ERROR?3?5?$CFs?0?5line?5?$CFd?3?5?$CFs?6?$AA@ 4004e81c     q_shared.obj
 0002:00001834       ??_C@_0BK@DJMKDJBL@WARNING?3?5?$CFs?0?5line?5?$CFd?3?5?$CFs?6?$AA@ 4004e834     q_shared.obj
 0002:00001850       ??_C@_0BF@BFEJCABG@MatchToken?3?5?$CFs?5?$CB?$DN?5?$CFs?$AA@ 4004e850     q_shared.obj
 0002:00001868       ??_C@_01PKGAHCOL@?$CJ?$AA@ 4004e868     q_shared.obj
 0002:0000186c       ??_C@_01ODHLEDKK@?$CI?$AA@ 4004e86c     q_shared.obj
 0002:00001870       ??_C@_0BJ@OLBOPICM@Q_strncpyz?3?5destsize?5?$DM?51?$AA@ 4004e870     q_shared.obj
 0002:0000188c       ??_C@_0BF@BJHHBLMD@Q_strncpyz?3?5NULL?5src?$AA@ 4004e88c     q_shared.obj
 0002:000018a4       ??_C@_0BG@EKAPNPCH@Q_strncpyz?3?5NULL?5dest?$AA@ 4004e8a4     q_shared.obj
 0002:000018bc       ??_C@_0BN@EFOOAHFL@Q_strcat?3?5already?5overflowed?$AA@ 4004e8bc     q_shared.obj
 0002:000018dc       ??_C@_0CD@GIPJKOOD@Com_sprintf?3?5overflow?5of?5?$CFi?5in?5?$CF@ 4004e8dc     q_shared.obj
 0002:00001900       ??_C@_0CC@GMEFDOKA@Com_sprintf?3?5overflowed?5bigbuffe@ 4004e900     q_shared.obj
 0002:00001924       ??_C@_0CG@FLHABLN@Info_ValueForKey?3?5oversize?5infos@ 4004e924     q_shared.obj
 0002:0000194c       ??_C@_0CE@HMPLGKDK@Info_RemoveKey?3?5oversize?5infostr@ 4004e94c     q_shared.obj
 0002:00001970       ??_C@_0CI@CPIEPBLO@Info_RemoveKey_Big?3?5oversize?5inf@ 4004e970     q_shared.obj
 0002:00001998       ??_C@_0BN@CAOBGKLE@Info?5string?5length?5exceeded?6?$AA@ 4004e998     q_shared.obj
 0002:000019b8       ??_C@_06NELKLDPM@?2?$CFs?2?$CFs?$AA@ 4004e9b8     q_shared.obj
 0002:000019c0       ??_C@_0CD@MGFMEBLE@Can?8t?5use?5keys?5or?5values?5with?5a?5@ 4004e9c0     q_shared.obj
 0002:000019e4       ??_C@_0CL@JCFAGLFD@Can?8t?5use?5keys?5or?5values?5with?5a?5@ 4004e9e4     q_shared.obj
 0002:00001a10       ??_C@_0CD@JIDDAEOO@Can?8t?5use?5keys?5or?5values?5with?5a?5@ 4004ea10     q_shared.obj
 0002:00001a34       ??_C@_0CJ@CEEBDGNA@Info_SetValueForKey?3?5oversize?5in@ 4004ea34     q_shared.obj
 0002:00001a60       ??_C@_0CB@EMDOOGBI@BIG?5Info?5string?5length?5exceeded?6@ 4004ea60     q_shared.obj
 0002:00001a84       ??_C@_04CAKOHOCJ@Blue?$AA@ 4004ea84     ui_addbots.obj
 0002:00001a8c       ??_C@_03PADCEAKC@Red?$AA@  4004ea8c     ui_addbots.obj
 0002:00001a90       ??_C@_04HJMOFLDF@Free?$AA@ 4004ea90     ui_addbots.obj
 0002:00001a98       ??_C@_0L@NBCMGFN@Nightmare?$CB?$AA@ 4004ea98     ui_addbots.obj
 0002:00001aa4       ??_C@_08HKEHKPDB@Hardcore?$AA@ 4004eaa4     ui_addbots.obj
 0002:00001ab0       ??_C@_0P@MHOBBMFM@Hurt?5Me?5Plenty?$AA@ 4004eab0     ui_addbots.obj
 0002:00001ac0       ??_C@_0M@FGHDCADO@Bring?5It?5On?$AA@ 4004eac0     ui_addbots.obj
 0002:00001acc       ??_C@_09GPGFHLKM@I?5Can?5Win?$AA@ 4004eacc     ui_addbots.obj
 0002:00001ad8       ??_C@_0BJ@BFMPHNBG@menu?1art?1arrows_vert_bot?$AA@ 4004ead8     ui_addbots.obj
 0002:00001af4       ??_C@_0BJ@ENBLAFB@menu?1art?1arrows_vert_top?$AA@ 4004eaf4     ui_addbots.obj
 0002:00001b10       ??_C@_0BH@NPPCFHDG@menu?1art?1arrows_vert_0?$AA@ 4004eb10     ui_addbots.obj
 0002:00001b28       ??_C@_0BF@HLNONHFG@menu?1art?1addbotframe?$AA@ 4004eb28     ui_addbots.obj
 0002:00001b40       ??_C@_0BC@BMLHHJCH@menu?1art?1accept_1?$AA@ 4004eb40     ui_addbots.obj
 0002:00001b54       ??_C@_0BC@FKMEIGG@menu?1art?1accept_0?$AA@ 4004eb54     ui_addbots.obj
 0002:00001b68       ??_C@_0BA@HKLILNEG@menu?1art?1back_1?$AA@ 4004eb68     ui_addbots.obj
 0002:00001b78       ??_C@_0BA@GDKDIMAH@menu?1art?1back_0?$AA@ 4004eb78     ui_addbots.obj
 0002:00001b88       ??_C@_06DMFGEGAL@Team?3?5?$AA@ 4004eb88     ui_addbots.obj
 0002:00001b90       ??_C@_09OGEBNCBM@g_spSkill?$AA@ 4004eb90     ui_addbots.obj
 0002:00001b9c       ??_C@_06JDCLJNII@Skill?3?$AA@ 4004eb9c     ui_addbots.obj
 0002:00001ba4       ??_C@_0L@GFINLBEC@g_gametype?$AA@ 4004eba4     ui_addbots.obj
 0002:00001bb0       ??_C@_0BE@KFNEHFLD@addbot?5?$CFs?5?$CFi?5?$CFs?5?$CFi?6?$AA@ 4004ebb0     ui_addbots.obj
 0002:00001bc4       ??_C@_04MEMAJGDJ@name?$AA@ 4004ebc4     ui_addbots.obj
 0002:00001bcc       ??_C@_08NBEHKPOH@ADD?5BOTS?$AA@ 4004ebcc     ui_addbots.obj
 0002:00001bd8       ??_C@_03LFLJCHJK@d1?6?$AA@ 4004ebd8     ui_atoms.obj
 0002:00001bdc       ??_C@_0CB@IBJOBHCA@UI_PushMenu?3?5menu?5stack?5overflow@ 4004ebdc     ui_atoms.obj
 0002:00001c00       ??_C@_0CB@NOICFLLI@UI_PopMenu?3?5menu?5stack?5underflow@ 4004ec00     ui_atoms.obj
 0002:00001c24       ??_C@_09DIABHAFB@cl_paused?$AA@ 4004ec24     ui_atoms.obj
 0002:00001c30       ??_C@_01GBGANLPD@0?$AA@    4004ec30     ui_atoms.obj
 0002:00001c38       __real@3ff0000000000000    4004ec38     ui_atoms.obj
 0002:00001c40       __real@40800000            4004ec40     ui_atoms.obj
 0002:00001c44       __real@43800000            4004ec44     ui_atoms.obj
 0002:00001c48       __real@41800000            4004ec48     ui_atoms.obj
 0002:00001c4c       __real@3f400000            4004ec4c     ui_atoms.obj
 0002:00001c50       __real@3fe6666666666666    4004ec50     ui_atoms.obj
 0002:00001c58       __real@40400000            4004ec58     ui_atoms.obj
 0002:00001c5c       __real@41d80000            4004ec5c     ui_atoms.obj
 0002:00001c60       __real@41000000            4004ec60     ui_atoms.obj
 0002:00001c68       __real@3fe999999999999a    4004ec68     ui_atoms.obj
 0002:00001c70       __real@3fb0000000000000    4004ec70     ui_atoms.obj
 0002:00001c78       ??_C@_0BP@DCKAJADL@UI_SetActiveMenu?3?5bad?5enum?5?$CFd?6?$AA@ 4004ec78     ui_atoms.obj
 0002:00001c98       ??_C@_01HIHLOKLC@1?$AA@    4004ec98     ui_atoms.obj
 0002:00001c9c       ??_C@_0L@JPCPFP@Bad?5CD?5Key?$AA@ 4004ec9c     ui_atoms.obj
 0002:00001ca8       ??_C@_0O@KMFADKH@Insert?5the?5CD?$AA@ 4004eca8     ui_atoms.obj
 0002:00001cb8       ??_C@_05FAEIHPAI@quit?6?$AA@ 4004ecb8     ui_atoms.obj
 0002:00001cc0       ??_C@_08HOPFIAK@ui_cdkey?$AA@ 4004ecc0     ui_atoms.obj
 0002:00001ccc       ??_C@_0L@FJKOKNMG@iamamonkey?$AA@ 4004eccc     ui_atoms.obj
 0002:00001cd8       ??_C@_0M@GCJEHMGM@iamacheater?$AA@ 4004ecd8     ui_atoms.obj
 0002:00001ce4       ??_C@_0O@DJEGGJPO@ui_teamOrders?$AA@ 4004ece4     ui_atoms.obj
 0002:00001cf4       ??_C@_0O@ECFJDFKB@ui_cinematics?$AA@ 4004ecf4     ui_atoms.obj
 0002:00001d04       ??_C@_08OEBEDBJL@ui_cache?$AA@ 4004ed04     ui_atoms.obj
 0002:00001d10       ??_C@_08FNKAODFI@postgame?$AA@ 4004ed10     ui_atoms.obj
 0002:00001d1c       ??_C@_0M@DGFHKGAK@levelselect?$AA@ 4004ed1c     ui_atoms.obj
 0002:00001d28       __real@3ff5555555555555    4004ed28     ui_atoms.obj
 0002:00001d30       __real@3f61111111111111    4004ed30     ui_atoms.obj
 0002:00001d38       ??_C@_07CGOLGDBM@?$CI?$CFd?0?$CFd?$CJ?$AA@ 4004ed38     ui_atoms.obj
 0002:00001d40       ??_C@_0BD@DDEDPIHI@menu?1art?1cut_frame?$AA@ 4004ed40     ui_cdkey.obj
 0002:00001d54       ??_C@_07NHHFFCAL@CD?5Key?3?$AA@ 4004ed54     ui_cdkey.obj
 0002:00001d5c       ??_C@_06BDEFFOBB@CD?5KEY?$AA@ 4004ed5c     ui_cdkey.obj
 0002:00001d64       ??_C@_0BA@LAMCFMKH@ui_cdkeychecked?$AA@ 4004ed64     ui_cdkey.obj
 0002:00001d74       ??_C@_0BI@DJFDENGL@The?5CD?5Key?5is?5not?5valid?$AA@ 4004ed74     ui_cdkey.obj
 0002:00001d8c       ??_C@_0CK@ICDCGJCP@The?5CD?5Key?5appears?5to?5be?5valid?0?5@ 4004ed8c     ui_cdkey.obj
 0002:00001db8       ??_C@_0BJ@EMNJPCIG@Please?5enter?5your?5CD?5Key?$AA@ 4004edb8     ui_cdkey.obj
 0002:00001dd4       ??_C@_03JBJLGPFL@end?$AA@  4004edd4     ui_cinematics.obj
 0002:00001dd8       ??_C@_05IBCGBPIM@tier7?$AA@ 4004edd8     ui_cinematics.obj
 0002:00001de0       ??_C@_05JIDNCOMN@tier6?$AA@ 4004ede0     ui_cinematics.obj
 0002:00001de8       ??_C@_05LDBAHNAO@tier5?$AA@ 4004ede8     ui_cinematics.obj
 0002:00001df0       ??_C@_05KKALEMEP@tier4?$AA@ 4004edf0     ui_cinematics.obj
 0002:00001df8       ??_C@_05OFEKNKII@tier3?$AA@ 4004edf8     ui_cinematics.obj
 0002:00001e00       ??_C@_05PMFBOLMJ@tier2?$AA@ 4004ee00     ui_cinematics.obj
 0002:00001e08       ??_C@_05NHHMLIAK@tier1?$AA@ 4004ee08     ui_cinematics.obj
 0002:00001e10       ??_C@_05BGIJDFHP@intro?$AA@ 4004ee10     ui_cinematics.obj
 0002:00001e18       ??_C@_06HPKCLDCP@idlogo?$AA@ 4004ee18     ui_cinematics.obj
 0002:00001e20       ??_C@_0BC@GMJFBKCE@menu?1art?1frame1_r?$AA@ 4004ee20     ui_cinematics.obj
 0002:00001e34       ??_C@_0BC@KKGBIKBF@menu?1art?1frame2_l?$AA@ 4004ee34     ui_cinematics.obj
 0002:00001e48       ??_C@_03JMGAKCCH@END?$AA@  4004ee48     ui_cinematics.obj
 0002:00001e4c       ??_C@_06KCFMMFEJ@Tier?57?$AA@ 4004ee4c     ui_cinematics.obj
 0002:00001e54       ??_C@_06LLEHPEAI@Tier?56?$AA@ 4004ee54     ui_cinematics.obj
 0002:00001e5c       ??_C@_06JAGKKHML@Tier?55?$AA@ 4004ee5c     ui_cinematics.obj
 0002:00001e64       ??_C@_06IJHBJGIK@Tier?54?$AA@ 4004ee64     ui_cinematics.obj
 0002:00001e6c       ??_C@_06MGDAAAEN@Tier?53?$AA@ 4004ee6c     ui_cinematics.obj
 0002:00001e74       ??_C@_06NPCLDBAM@Tier?52?$AA@ 4004ee74     ui_cinematics.obj
 0002:00001e7c       ??_C@_06PEAGGCMP@Tier?51?$AA@ 4004ee7c     ui_cinematics.obj
 0002:00001e84       ??_C@_05NNBPNCDB@INTRO?$AA@ 4004ee84     ui_cinematics.obj
 0002:00001e8c       ??_C@_07EHKHJIKA@ID?5LOGO?$AA@ 4004ee8c     ui_cinematics.obj
 0002:00001e94       ??_C@_0L@OHENIHEJ@CINEMATICS?$AA@ 4004ee94     ui_cinematics.obj
 0002:00001ea0       ??_C@_0BO@LKEMHEAH@disconnect?$DL?5cinematic?5?$CFs?4RoQ?6?$AA@ 4004eea0     ui_cinematics.obj
 0002:00001ec0       ??_C@_0CF@GPBADIOC@disconnect?$DL?5cinematic?5demoEnd?4Ro@ 4004eec0     ui_cinematics.obj
 0002:00001ee8       ??_C@_07MCHHMPMB@nextmap?$AA@ 4004eee8     ui_cinematics.obj
 0002:00001ef0       ??_C@_0BB@ECLHOHCI@ui_cinematics?5?$CFi?$AA@ 4004eef0     ui_cinematics.obj
 0002:00001f04       ??_C@_02NFLNFON@NO?$AA@    4004ef04     ui_confirm.obj
 0002:00001f08       ??_C@_01KMDKNFGN@?1?$AA@   4004ef08     ui_confirm.obj
 0002:00001f0c       ??_C@_03IPHJCBHH@YES?$AA@  4004ef0c     ui_confirm.obj
 0002:00001f10       ??_C@_06BEMOOEJ@YES?1NO?$AA@ 4004ef10     ui_confirm.obj
 0002:00001f18       ??_C@_02GIPFHKNO@OK?$AA@   4004ef18     ui_confirm.obj
 0002:00001f1c       ??_C@_0BG@PBGJCCMP@Awaiting?5gamestate?4?4?4?$AA@ 4004ef1c     ui_connect.obj
 0002:00001f34       ??_C@_0BA@MIMGFFNE@cl_downloadName?$AA@ 4004ef34     ui_connect.obj
 0002:00001f44       ??_C@_0BJ@EMLKBDFN@Awaiting?5connection?4?4?4?$CFi?$AA@ 4004ef44     ui_connect.obj
 0002:00001f60       ??_C@_0BI@OIGNBFGC@Awaiting?5challenge?4?4?4?$CFi?$AA@ 4004ef60     ui_connect.obj
 0002:00001f78       ??_C@_04GJFDDCGE@motd?$AA@ 4004ef78     ui_connect.obj
 0002:00001f80       ??_C@_0BB@NIDAOAIN@Connecting?5to?5?$CFs?$AA@ 4004ef80     ui_connect.obj
 0002:00001f94       ??_C@_0L@OKBLGMCB@Loading?5?$CFs?$AA@ 4004ef94     ui_connect.obj
 0002:00001fa0       ??_C@_07KMNEBLH@mapname?$AA@ 4004efa0     ui_connect.obj
 0002:00001fa8       ??_C@_06OIEFGAOD@?$CFs?1Sec?$AA@ 4004efa8     ui_connect.obj
 0002:00001fb0       ??_C@_0M@EJKJHDLE@?$CI?$CFs?5copied?$CJ?$AA@ 4004efb0     ui_connect.obj
 0002:00001fbc       ??_C@_0BC@MJEFMDAL@?$CI?$CFs?5of?5?$CFs?5copied?$CJ?$AA@ 4004efbc     ui_connect.obj
 0002:00001fd0       ??_C@_0L@MBCOHHKN@estimating?$AA@ 4004efd0     ui_connect.obj
 0002:00001fdc       ??_C@_09KPPELEEE@?$CFs?5?$CI?$CFd?$CF?$CF?$CJ?$AA@ 4004efdc     ui_connect.obj
 0002:00001fe8       ??_C@_0BA@CHCCPCBI@cl_downloadTime?$AA@ 4004efe8     ui_connect.obj
 0002:00001ff8       ??_C@_0BB@FAHDFBEE@cl_downloadCount?$AA@ 4004eff8     ui_connect.obj
 0002:0000200c       ??_C@_0BA@IMGLJLPN@cl_downloadSize?$AA@ 4004f00c     ui_connect.obj
 0002:0000201c       ??_C@_08FFCBIDLK@?$CFd?5bytes?$AA@ 4004f01c     ui_connect.obj
 0002:00002028       ??_C@_05GLFMPLMM@?$CFd?5KB?$AA@ 4004f028     ui_connect.obj
 0002:00002030       ??_C@_08HFAPJAAB@?4?$CF02d?5MB?$AA@ 4004f030     ui_connect.obj
 0002:0000203c       ??_C@_08HIJIBFNH@?4?$CF02d?5GB?$AA@ 4004f03c     ui_connect.obj
 0002:00002048       ??_C@_02DPKJAMEF@?$CFd?$AA@ 4004f048     ui_connect.obj
 0002:0000204c       ??_C@_06NEPEGKCP@?$CFd?5sec?$AA@ 4004f04c     ui_connect.obj
 0002:00002054       ??_C@_0O@NMPKHNPG@?$CFd?5min?5?$CFd?5sec?$AA@ 4004f054     ui_connect.obj
 0002:00002064       ??_C@_0N@KMBELJJB@?$CFd?5hr?5?$CFd?5min?$AA@ 4004f064     ui_connect.obj
 0002:00002074       ??_C@_0M@MNJNCGPD@disconnect?6?$AA@ 4004f074     ui_connect.obj
 0002:00002080       ??_C@_0M@HDIJIOFC@cl_freelook?$AA@ 4004f080     ui_controls2.obj
 0002:0000208c       ??_C@_08BEMLPELN@m_filter?$AA@ 4004f08c     ui_controls2.obj
 0002:00002098       ??_C@_0O@CDIHIFMG@joy_threshold?$AA@ 4004f098     ui_controls2.obj
 0002:000020a8       ??_C@_0M@MJEIGFNL@in_joystick?$AA@ 4004f0a8     ui_controls2.obj
 0002:000020b4       ??_C@_0M@JFLMCFNC@sensitivity?$AA@ 4004f0b4     ui_controls2.obj
 0002:000020c0       ??_C@_0O@JKEEFDLF@cg_autoswitch?$AA@ 4004f0c0     ui_controls2.obj
 0002:000020d0       ??_C@_07JIEGLHEC@m_pitch?$AA@ 4004f0d0     ui_controls2.obj
 0002:000020d8       ??_C@_06HFMKGFEH@cl_run?$AA@ 4004f0d8     ui_controls2.obj
 0002:000020e0       ??_C@_0BA@CGKMCLGE@chat?5?9?5attacker?$AA@ 4004f0e0     ui_controls2.obj
 0002:000020f0       ??_C@_0N@NFNJCLFL@messagemode4?$AA@ 4004f0f0     ui_controls2.obj
 0002:00002100       ??_C@_0O@EJLCMBHG@chat?5?9?5target?$AA@ 4004f100     ui_controls2.obj
 0002:00002110       ??_C@_0N@JKJILNJM@messagemode3?$AA@ 4004f110     ui_controls2.obj
 0002:00002120       ??_C@_0M@GLMHMHHN@chat?5?9?5team?$AA@ 4004f120     ui_controls2.obj
 0002:0000212c       ??_C@_0N@IDIDIMNN@messagemode2?$AA@ 4004f12c     ui_controls2.obj
 0002:0000213c       ??_C@_04BLJLMHHG@chat?$AA@ 4004f13c     ui_controls2.obj
 0002:00002144       ??_C@_0M@JINOELJH@messagemode?$AA@ 4004f144     ui_controls2.obj
 0002:00002150       ??_C@_07LIHKAGE@gesture?$AA@ 4004f150     ui_controls2.obj
 0002:00002158       ??_C@_08HMEKMCPC@?$CLbutton3?$AA@ 4004f158     ui_controls2.obj
 0002:00002164       ??_C@_0M@NDADMNAG@next?5weapon?$AA@ 4004f164     ui_controls2.obj
 0002:00002170       ??_C@_08IJHOKAF@weapnext?$AA@ 4004f170     ui_controls2.obj
 0002:0000217c       ??_C@_0M@ENEBAAHC@prev?5weapon?$AA@ 4004f17c     ui_controls2.obj
 0002:00002188       ??_C@_08DMEBPOGB@weapprev?$AA@ 4004f188     ui_controls2.obj
 0002:00002194       ??_C@_06JMLBDJHL@attack?$AA@ 4004f194     ui_controls2.obj
 0002:0000219c       ??_C@_07MAODEHGM@?$CLattack?$AA@ 4004f19c     ui_controls2.obj
 0002:000021a4       ??_C@_03CEIJJIOF@BFG?$AA@  4004f1a4     ui_controls2.obj
 0002:000021a8       ??_C@_08MFIOAKPE@weapon?59?$AA@ 4004f1a8     ui_controls2.obj
 0002:000021b4       ??_C@_0L@CPPLAGHM@plasma?5gun?$AA@ 4004f1b4     ui_controls2.obj
 0002:000021c0       ??_C@_08NMJFDLLF@weapon?58?$AA@ 4004f1c0     ui_controls2.obj
 0002:000021cc       ??_C@_07CFOFBGNM@railgun?$AA@ 4004f1cc     ui_controls2.obj
 0002:000021d4       ??_C@_08FLANCHHK@weapon?57?$AA@ 4004f1d4     ui_controls2.obj
 0002:000021e0       ??_C@_09NNHDMKJA@lightning?$AA@ 4004f1e0     ui_controls2.obj
 0002:000021ec       ??_C@_08ECBGBGDL@weapon?56?$AA@ 4004f1ec     ui_controls2.obj
 0002:000021f8       ??_C@_0BA@KMEINBOF@rocket?5launcher?$AA@ 4004f1f8     ui_controls2.obj
 0002:00002208       ??_C@_08GJDLEFPI@weapon?55?$AA@ 4004f208     ui_controls2.obj
 0002:00002214       ??_C@_0BB@MEBMHMEH@grenade?5launcher?$AA@ 4004f214     ui_controls2.obj
 0002:00002228       ??_C@_08HACAHELJ@weapon?54?$AA@ 4004f228     ui_controls2.obj
 0002:00002234       ??_C@_07PKBOGMMP@shotgun?$AA@ 4004f234     ui_controls2.obj
 0002:0000223c       ??_C@_08DPGBOCHO@weapon?53?$AA@ 4004f23c     ui_controls2.obj
 0002:00002248       ??_C@_0L@CFEKEAAE@machinegun?$AA@ 4004f248     ui_controls2.obj
 0002:00002254       ??_C@_08CGHKNDDP@weapon?52?$AA@ 4004f254     ui_controls2.obj
 0002:00002260       ??_C@_08MJPGINDC@gauntlet?$AA@ 4004f260     ui_controls2.obj
 0002:0000226c       ??_C@_08NFHIAPM@weapon?51?$AA@ 4004f26c     ui_controls2.obj
 0002:00002278       ??_C@_09IEBMBNLF@zoom?5view?$AA@ 4004f278     ui_controls2.obj
 0002:00002284       ??_C@_05GAKJCNGF@?$CLzoom?$AA@ 4004f284     ui_controls2.obj
 0002:0000228c       ??_C@_0M@GCIKDKPP@center?5view?$AA@ 4004f28c     ui_controls2.obj
 0002:00002298       ??_C@_0L@FHIBDANG@centerview?$AA@ 4004f298     ui_controls2.obj
 0002:000022a4       ??_C@_0L@JDBIPPCE@mouse?5look?$AA@ 4004f2a4     ui_controls2.obj
 0002:000022b0       ??_C@_06OBEGBCAL@?$CLmlook?$AA@ 4004f2b0     ui_controls2.obj
 0002:000022b8       ??_C@_09HGJFJMBI@look?5down?$AA@ 4004f2b8     ui_controls2.obj
 0002:000022c4       ??_C@_09KCKOGCLI@?$CLlookdown?$AA@ 4004f2c4     ui_controls2.obj
 0002:000022d0       ??_C@_07KKBACOMO@look?5up?$AA@ 4004f2d0     ui_controls2.obj
 0002:000022d8       ??_C@_07BDFIGFL@?$CLlookup?$AA@ 4004f2d8     ui_controls2.obj
 0002:000022e0       ??_C@_0BA@LGNODEIF@sidestep?5?1?5turn?$AA@ 4004f2e0     ui_controls2.obj
 0002:000022f0       ??_C@_07CHKKNAEO@?$CLstrafe?$AA@ 4004f2f0     ui_controls2.obj
 0002:000022f8       ??_C@_0L@GHMEBBNO@turn?5right?$AA@ 4004f2f8     ui_controls2.obj
 0002:00002304       ??_C@_06NGIHBNMB@?$CLright?$AA@ 4004f304     ui_controls2.obj
 0002:0000230c       ??_C@_09DMIAAGIP@turn?5left?$AA@ 4004f30c     ui_controls2.obj
 0002:00002318       ??_C@_05HEGFDNLE@?$CLleft?$AA@ 4004f318     ui_controls2.obj
 0002:00002320       ??_C@_0O@HHCHKOIG@down?5?1?5crouch?$AA@ 4004f320     ui_controls2.obj
 0002:00002330       ??_C@_09HNJJMOJG@?$CLmovedown?$AA@ 4004f330     ui_controls2.obj
 0002:0000233c       ??_C@_09NLMKCKFC@up?5?1?5jump?$AA@ 4004f33c     ui_controls2.obj
 0002:00002348       ??_C@_07CKGNAPCP@?$CLmoveup?$AA@ 4004f348     ui_controls2.obj
 0002:00002350       ??_C@_0L@KNGDMC@step?5right?$AA@ 4004f350     ui_controls2.obj
 0002:0000235c       ??_C@_0L@FMBJCMEG@?$CLmoveright?$AA@ 4004f35c     ui_controls2.obj
 0002:00002368       ??_C@_09IILINGBE@step?5left?$AA@ 4004f368     ui_controls2.obj
 0002:00002374       ??_C@_09IPJNFGKP@?$CLmoveleft?$AA@ 4004f374     ui_controls2.obj
 0002:00002380       ??_C@_09DLEDHJHA@backpedal?$AA@ 4004f380     ui_controls2.obj
 0002:0000238c       ??_C@_05IPKGNIPH@?$CLback?$AA@ 4004f38c     ui_controls2.obj
 0002:00002394       ??_C@_0N@MGNPBNMD@walk?5forward?$AA@ 4004f394     ui_controls2.obj
 0002:000023a4       ??_C@_08KKEOHAPB@?$CLforward?$AA@ 4004f3a4     ui_controls2.obj
 0002:000023b0       ??_C@_0L@HOHELDEP@run?5?1?5walk?$AA@ 4004f3b0     ui_controls2.obj
 0002:000023bc       ??_C@_06JIDIHCBO@?$CLspeed?$AA@ 4004f3bc     ui_controls2.obj
 0002:000023c4       ??_C@_08LBAPKDBK@use?5item?$AA@ 4004f3c4     ui_controls2.obj
 0002:000023d0       ??_C@_08GFFBPDLD@?$CLbutton2?$AA@ 4004f3d0     ui_controls2.obj
 0002:000023dc       ??_C@_0M@LDALJCGJ@show?5scores?$AA@ 4004f3dc     ui_controls2.obj
 0002:000023e8       ??_C@_07PNHLECKB@?$CLscores?$AA@ 4004f3e8     ui_controls2.obj
 0002:000023f0       ??_C@_0BD@DLLHGDOC@joystick?5threshold?$AA@ 4004f3f0     ui_controls2.obj
 0002:00002404       ??_C@_08KLNCIBHI@joystick?$AA@ 4004f404     ui_controls2.obj
 0002:00002410       ??_C@_0M@EIBCCPPO@mouse?5speed?$AA@ 4004f410     ui_controls2.obj
 0002:0000241c       ??_C@_0BD@MLDNMDJI@autoswitch?5weapons?$AA@ 4004f41c     ui_controls2.obj
 0002:00002430       ??_C@_0L@BLIPKMDK@always?5run?$AA@ 4004f430     ui_controls2.obj
 0002:0000243c       ??_C@_0N@HOKAAMME@smooth?5mouse?$AA@ 4004f43c     ui_controls2.obj
 0002:0000244c       ??_C@_0N@BNPBCJKB@invert?5mouse?$AA@ 4004f44c     ui_controls2.obj
 0002:0000245c       ??_C@_09KCPFIDCO@free?5look?$AA@ 4004f45c     ui_controls2.obj
 0002:00002468       ??_C@_04MKAMAPIC@MISC?$AA@ 4004f468     ui_controls2.obj
 0002:00002470       ??_C@_05MKMCCNEL@SHOOT?$AA@ 4004f470     ui_controls2.obj
 0002:00002478       ??_C@_04LPPGDFDD@MOVE?$AA@ 4004f478     ui_controls2.obj
 0002:00002480       ??_C@_04POCKJPC@LOOK?$AA@  4004f480     ui_controls2.obj
 0002:00002488       ??_C@_08OEMNOOOE@CONTROLS?$AA@ 4004f488     ui_controls2.obj
 0002:00002494       ??_C@_0BJ@MAPAIIP@Press?5BACKSPACE?5to?5clear?$AA@ 4004f494     ui_controls2.obj
 0002:000024b0       ??_C@_0BP@NCHELFFL@Press?5ENTER?5or?5CLICK?5to?5change?$AA@ 4004f4b0     ui_controls2.obj
 0002:000024d0       ??_C@_0CJ@FKHJELGI@Waiting?5for?5new?5key?5?4?4?4?5ESCAPE?5t@ 4004f4d0     ui_controls2.obj
 0002:000024fc       ??_C@_04FJKIFICP@?5or?5?$AA@ 4004f4fc     ui_controls2.obj
 0002:00002504       ??_C@_03BBKEAIF@?$DP?$DP?$DP?$AA@ 4004f504     ui_controls2.obj
 0002:00002508       ??_C@_0CC@OPGJGILN@Use?5Arrow?5Keys?5or?5CLICK?5to?5chang@ 4004f508     ui_controls2.obj
 0002:0000252c       ??_C@_05NCCFOPHA@model?$AA@ 4004f52c     ui_controls2.obj
 0002:00002534       __real@42b40000            4004f534     ui_controls2.obj
 0002:00002538       ??_C@_0M@LMHCNBPD@in_restart?6?$AA@ 4004f538     ui_controls2.obj
 0002:00002544       ??_C@_0BB@CLCNLIC@SET?5TO?5DEFAULTS?$DP?$AA@ 4004f544     ui_controls2.obj
 0002:00002558       ??_C@_0CC@IJGIPEKE@controls?5to?5their?5default?5values@ 4004f558     ui_controls2.obj
 0002:0000257c       ??_C@_0BN@DCBFLHLN@WARNING?3?5This?5will?5reset?5all?$AA@ 4004f57c     ui_controls2.obj
 0002:000025a0       ??_C@_0EF@PMDKNDNE@Quake?5III?5Arena?$CIc?$CJ?51999?92000?0?5Id@ 4004f5a0     ui_credits.obj
 0002:000025e8       ??_C@_0EH@HFFMAPCN@To?5order?3?51?9800?9idgames?5?5?5?5?5www?4@ 4004f5e8     ui_credits.obj
 0002:00002630       __real@403b566666666667    4004f630     ui_credits.obj
 0002:00002638       ??_C@_09FCLGFKGB@Eric?5Webb?$AA@ 4004f638     ui_credits.obj
 0002:00002644       ??_C@_0BH@KNJDHMDL@Development?5Assistance?$AA@ 4004f644     ui_credits.obj
 0002:0000265c       ??_C@_0O@BEKGHJOG@Donna?5Jackson?$AA@ 4004f65c     ui_credits.obj
 0002:0000266c       ??_C@_0BG@JAFKCLEC@Biz?5Assist?5and?5id?5Mom?$AA@ 4004f66c     ui_credits.obj
 0002:00002684       ??_C@_0P@LDLNMDAA@Marty?5Stratton?$AA@ 4004f684     ui_credits.obj
 0002:00002694       ??_C@_0CB@FEDJJDJC@Director?5of?5Business?5Development@ 4004f694     ui_credits.obj
 0002:000026b8       ??_C@_0BB@PBCMLDEB@Todd?5Hollenshead?$AA@ 4004f6b8     ui_credits.obj
 0002:000026cc       ??_C@_03FGKKMLNB@CEO?$AA@  4004f6cc     ui_credits.obj
 0002:000026d0       ??_C@_0CM@GNJCJPLL@Tim?5Willits?0?5Christian?5Antkow?0?5P@ 4004f6d0     ui_credits.obj
 0002:000026fc       ??_C@_0N@KDPCLLMO@Level?5Design?$AA@ 4004f6fc     ui_credits.obj
 0002:0000270c       ??_C@_0O@LHFDKAL@Graeme?5Devine?$AA@ 4004f70c     ui_credits.obj
 0002:0000271c       ??_C@_0O@ELIGNNLM@Game?5Designer?$AA@ 4004f71c     ui_credits.obj
 0002:0000272c       ??_C@_0CL@LOJNPFLN@Kenneth?5Scott?0?5Seneca?5Menard?0?5Fr@ 4004f72c     ui_credits.obj
 0002:00002758       ??_C@_0BN@FELIAJAG@Adrian?5Carmack?0?5Kevin?5Cloud?0?$AA@ 4004f758     ui_credits.obj
 0002:00002778       ??_C@_03OBDFBPHH@Art?$AA@  4004f778     ui_credits.obj
 0002:0000277c       ??_C@_0CJ@EOEPEKAD@John?5Carmack?0?5Robert?5A?4?5Duffy?0?5J@ 4004f77c     ui_credits.obj
 0002:000027a8       __real@4034400000000000    4004f7a8     ui_credits.obj
 0002:000027b0       ??_C@_0M@DOFGOGDJ@Programming?$AA@ 4004f7b0     ui_credits.obj
 0002:000027c0       __real@403cc147ae147ae0    4004f7c0     ui_credits.obj
 0002:000027c8       ??_C@_0BA@EKBHANL@id?5Software?5is?3?$AA@ 4004f7c8     ui_credits.obj
 0002:000027d8       ??_C@_0BL@PKJOJIP@menu?1art?1arrows_horz_right?$AA@ 4004f7d8     ui_demo2.obj
 0002:000027f4       ??_C@_0BK@IMMLKPFN@menu?1art?1arrows_horz_left?$AA@ 4004f7f4     ui_demo2.obj
 0002:00002810       ??_C@_0BH@KJFHOEPA@menu?1art?1arrows_horz_0?$AA@ 4004f810     ui_demo2.obj
 0002:00002828       ??_C@_0BA@LGLHOPAL@menu?1art?1play_1?$AA@ 4004f828     ui_demo2.obj
 0002:00002838       ??_C@_0BA@KPKMNOEK@menu?1art?1play_0?$AA@ 4004f838     ui_demo2.obj
 0002:00002848       ??_C@_04EHAMMEJA@?4dm3?$AA@ 4004f848     ui_demo2.obj
 0002:00002850       ??_C@_0BA@PADAMLGP@No?5Demos?5Found?4?$AA@ 4004f850     ui_demo2.obj
 0002:00002860       ??_C@_05CFPGCNL@demos?$AA@ 4004f860     ui_demo2.obj
 0002:00002868       ??_C@_05BAIDJFLA@dm_?$CFd?$AA@ 4004f868     ui_demo2.obj
 0002:00002870       ??_C@_08FCFPNNHF@protocol?$AA@ 4004f870     ui_demo2.obj
 0002:0000287c       ??_C@_05MJMJIFJF@DEMOS?$AA@ 4004f87c     ui_demo2.obj
 0002:00002884       ??_C@_08GJMEELAH@demo?5?$CFs?6?$AA@ 4004f884     ui_demo2.obj
 0002:00002890       ??_C@_0M@NABCNGBA@cg_viewsize?$AA@ 4004f890     ui_display.obj
 0002:0000289c       __real@41200000            4004f89c     ui_display.obj
 0002:000028a0       ??_C@_07OFDDGDHB@r_gamma?$AA@ 4004f8a0     ui_display.obj
 0002:000028a8       ??_C@_0N@OHKAMPON@Screen?5Size?3?$AA@ 4004f8a8     ui_display.obj
 0002:000028b8       ??_C@_0M@JJFNOGDJ@Brightness?3?$AA@ 4004f8b8     ui_display.obj
 0002:000028c4       ??_C@_07BCBHNHNG@NETWORK?$AA@ 4004f8c4     ui_display.obj
 0002:000028cc       ??_C@_05MEGDOMG@SOUND?$AA@ 4004f8cc     ui_display.obj
 0002:000028d4       ??_C@_07JPHDIPNG@DISPLAY?$AA@ 4004f8d4     ui_display.obj
 0002:000028dc       ??_C@_08DHCBDOCP@GRAPHICS?$AA@ 4004f8dc     ui_display.obj
 0002:000028e8       ??_C@_0N@NDDADDDK@SYSTEM?5SETUP?$AA@ 4004f8e8     ui_display.obj
 0002:000028f8       ??_C@_05BJJDEFHJ@?2num?2?$AA@ 4004f8f8     ui_gameinfo.obj
 0002:00002900       ??_C@_06CBHGEMFM@?$DMNULL?$DO?$AA@ 4004f900     ui_gameinfo.obj
 0002:00002908       ??_C@_01CELHOKLL@?$HN?$AA@ 4004f908     ui_gameinfo.obj
 0002:0000290c       ??_C@_0BN@HAJDHEGK@Unexpected?5end?5of?5info?5file?6?$AA@ 4004f90c     ui_gameinfo.obj
 0002:0000292c       ??_C@_0BE@IKMJLADL@Max?5infos?5exceeded?6?$AA@ 4004f92c     ui_gameinfo.obj
 0002:00002940       ??_C@_0BI@BMEIBPEH@Missing?5?$HL?5in?5info?5file?6?$AA@ 4004f940     ui_gameinfo.obj
 0002:00002958       ??_C@_01HCONENDN@?$HL?$AA@ 4004f958     ui_gameinfo.obj
 0002:0000295c       ??_C@_03IHCLBPIC@num?$AA@  4004f95c     ui_gameinfo.obj
 0002:00002960       ??_C@_0BM@EGGEMJDP@?$FO1Invalid?5arena?5number?3?5?$CFi?6?$AA@ 4004f960     ui_gameinfo.obj
 0002:0000297c       ??_C@_03HBNNNHNM@map?$AA@  4004f97c     ui_gameinfo.obj
 0002:00002980       ??_C@_07BELCMIIP@special?$AA@ 4004f980     ui_gameinfo.obj
 0002:00002988       ??_C@_0BK@DFMGEDHJ@?$FO1Invalid?5bot?5number?3?5?$CFi?6?$AA@ 4004f988     ui_gameinfo.obj
 0002:000029a4       ??_C@_03CFPCDMLN@l?$CFi?$AA@ 4004f9a4     ui_gameinfo.obj
 0002:000029a8       ??_C@_0N@NACDPIOL@g_spScores?$CFi?$AA@ 4004f9a8     ui_gameinfo.obj
 0002:000029b8       ??_C@_02IKAHHCAI@?$CFi?$AA@ 4004f9b8     ui_gameinfo.obj
 0002:000029bc       ??_C@_03NHJIOEGA@a?$CFi?$AA@ 4004f9bc     ui_gameinfo.obj
 0002:000029c0       ??_C@_0L@BKAFECHK@g_spAwards?$AA@ 4004f9c0     ui_gameinfo.obj
 0002:000029cc       ??_C@_0CD@GMMHFJDB@?$FO1Bad?5award?5?$CFi?5in?5UI_LogAwardDat@ 4004f9cc     ui_gameinfo.obj
 0002:000029f0       ??_C@_05FPBGKCKL@final?$AA@ 4004f9f0     ui_gameinfo.obj
 0002:000029f8       ??_C@_08FACPJMEJ@training?$AA@ 4004f9f8     ui_gameinfo.obj
 0002:00002a04       ??_C@_06EPBCEOOE@tier?$CFi?$AA@ 4004fa04     ui_gameinfo.obj
 0002:00002a0c       ??_C@_0L@IINLIMGG@g_spVideos?$AA@ 4004fa0c     ui_gameinfo.obj
 0002:00002a18       ??_C@_0M@DNECNHEI@g_spScores5?$AA@ 4004fa18     ui_gameinfo.obj
 0002:00002a24       ??_C@_0M@CEFJOGAJ@g_spScores4?$AA@ 4004fa24     ui_gameinfo.obj
 0002:00002a30       ??_C@_0M@GLBIHAMO@g_spScores3?$AA@ 4004fa30     ui_gameinfo.obj
 0002:00002a3c       ??_C@_0M@HCADEBIP@g_spScores2?$AA@ 4004fa3c     ui_gameinfo.obj
 0002:00002a48       ??_C@_0M@FJCOBCEM@g_spScores1?$AA@ 4004fa48     ui_gameinfo.obj
 0002:00002a54       ??_C@_0CG@OGBFHGMF@All?5levels?5unlocked?5at?5skill?5lev@ 4004fa54     ui_gameinfo.obj
 0002:00002a7c       ??_C@_0BM@KMJIGNKO@All?5levels?5unlocked?5at?5100?6?$AA@ 4004fa7c     ui_gameinfo.obj
 0002:00002a98       ??_C@_03GNABGMEE@100?$AA@  4004fa98     ui_gameinfo.obj
 0002:00002a9c       ??_C@_0M@KDAJBLAP@fs_restrict?$AA@ 4004fa9c     ui_gameinfo.obj
 0002:00002aa8       ??_C@_0DB@PAFINDJB@?$CFi?5arenas?5ignored?5to?5make?5count?5@ 4004faa8     ui_gameinfo.obj
 0002:00002adc       ??_C@_06EJFMBPJF@single?$AA@ 4004fadc     ui_gameinfo.obj
 0002:00002ae4       ??_C@_04GPMDFGEJ@type?$AA@ 4004fae4     ui_gameinfo.obj
 0002:00002aec       ??_C@_0DJ@KGDBIAGM@?$FO3WARNING?3?5not?5anough?5memory?5in?5@ 4004faec     ui_gameinfo.obj
 0002:00002b28       ??_C@_0BC@MIFKOHOA@?$CFi?5arenas?5parsed?6?$AA@ 4004fb28     ui_gameinfo.obj
 0002:00002b3c       ??_C@_08IDJEBFOJ@scripts?1?$AA@ 4004fb3c     ui_gameinfo.obj
 0002:00002b48       ??_C@_07OMEBBDEO@scripts?$AA@ 4004fb48     ui_gameinfo.obj
 0002:00002b50       ??_C@_06IPPMLGON@?4arena?$AA@ 4004fb50     ui_gameinfo.obj
 0002:00002b58       ??_C@_0BD@KEINBKFE@scripts?1arenas?4txt?$AA@ 4004fb58     ui_gameinfo.obj
 0002:00002b6c       ??_C@_0N@BFDKEKMB@g_arenasFile?$AA@ 4004fb6c     ui_gameinfo.obj
 0002:00002b7c       ??_C@_0CO@OKDDPLPD@?$FO1file?5too?5large?3?5?$CFs?5is?5?$CFi?0?5max?5@ 4004fb7c     ui_gameinfo.obj
 0002:00002bac       ??_C@_0BG@BJEIGKLP@?$FO1file?5not?5found?3?5?$CFs?6?$AA@ 4004fbac     ui_gameinfo.obj
 0002:00002bc4       ??_C@_0BA@KCNHFFOD@?$CFi?5bots?5parsed?6?$AA@ 4004fbc4     ui_gameinfo.obj
 0002:00002bd4       ??_C@_04NONLJGOA@?4bot?$AA@ 4004fbd4     ui_gameinfo.obj
 0002:00002bdc       ??_C@_0BB@LMBKKAOC@scripts?1bots?4txt?$AA@ 4004fbdc     ui_gameinfo.obj
 0002:00002bf0       ??_C@_0L@IDJNDIMJ@g_botsFile?$AA@ 4004fbf0     ui_gameinfo.obj
 0002:00002bfc       ??_C@_0DH@HCLMODLL@?$FO3WARNING?3?5not?5anough?5memory?5in?5@ 4004fbfc     ui_gameinfo.obj
 0002:00002c34       ??_C@_0L@MFHLOCCE@EXIT?5GAME?$DP?$AA@ 4004fc34     ui_ingame.obj
 0002:00002c40       ??_C@_0P@FNJPAKFA@RESTART?5ARENA?$DP?$AA@ 4004fc40     ui_ingame.obj
 0002:00002c50       ??_C@_0P@BKKOFHJN@map_restart?50?6?$AA@ 4004fc50     ui_ingame.obj
 0002:00002c60       ??_C@_09HHLPLHIF@EXIT?5GAME?$AA@ 4004fc60     ui_ingame.obj
 0002:00002c6c       ??_C@_0M@HBNHOENI@LEAVE?5ARENA?$AA@ 4004fc6c     ui_ingame.obj
 0002:00002c78       ??_C@_0M@GKDOHNK@RESUME?5GAME?$AA@ 4004fc78     ui_ingame.obj
 0002:00002c84       ??_C@_0O@EBHHHPMH@RESTART?5ARENA?$AA@ 4004fc84     ui_ingame.obj
 0002:00002c94       ??_C@_0M@CLDMOMOH@SERVER?5INFO?$AA@ 4004fc94     ui_ingame.obj
 0002:00002ca0       ??_C@_05MAJHNKMG@SETUP?$AA@ 4004fca0     ui_ingame.obj
 0002:00002ca8       ??_C@_01PFHFFBPC@t?$AA@    4004fca8     ui_ingame.obj
 0002:00002cac       ??_C@_0M@LHIJAJHF@TEAM?5ORDERS?$AA@ 4004fcac     ui_ingame.obj
 0002:00002cb8       ??_C@_0M@KLGGHI@REMOVE?5BOTS?$AA@ 4004fcb8     ui_ingame.obj
 0002:00002cc4       __real@40000000            4004fcc4     ui_ingame.obj
 0002:00002cc8       ??_C@_0L@BKCPIMBP@bot_enable?$AA@ 4004fcc8     ui_ingame.obj
 0002:00002cd4       ??_C@_0L@MPAGGMDN@sv_running?$AA@ 4004fcd4     ui_ingame.obj
 0002:00002ce0       ??_C@_05JLPDBANI@START?$AA@ 4004fce0     ui_ingame.obj
 0002:00002ce8       ??_C@_08NCAOBLLI@server16?$AA@ 4004fce8     ui_main.obj
 0002:00002cf4       ??_C@_08PJCDEIHL@server15?$AA@ 4004fcf4     ui_main.obj
 0002:00002d00       ??_C@_08OADIHJDK@server14?$AA@ 4004fd00     ui_main.obj
 0002:00002d0c       ??_C@_08KPHJOPPN@server13?$AA@ 4004fd0c     ui_main.obj
 0002:00002d18       ??_C@_08LGGCNOLM@server12?$AA@ 4004fd18     ui_main.obj
 0002:00002d24       ??_C@_08JNEPINHP@server11?$AA@ 4004fd24     ui_main.obj
 0002:00002d30       ??_C@_08IEFELMDO@server10?$AA@ 4004fd30     ui_main.obj
 0002:00002d3c       ??_C@_07EPNFKLH@server9?$AA@ 4004fd3c     ui_main.obj
 0002:00002d44       ??_C@_07BNOGGLPG@server8?$AA@ 4004fd44     ui_main.obj
 0002:00002d4c       ??_C@_07JKHOHHDJ@server7?$AA@ 4004fd4c     ui_main.obj
 0002:00002d54       ??_C@_07IDGFEGHI@server6?$AA@ 4004fd54     ui_main.obj
 0002:00002d5c       ??_C@_07KIEIBFLL@server5?$AA@ 4004fd5c     ui_main.obj
 0002:00002d64       ??_C@_07LBFDCEPK@server4?$AA@ 4004fd64     ui_main.obj
 0002:00002d6c       ??_C@_07POBCLCDN@server3?$AA@ 4004fd6c     ui_main.obj
 0002:00002d74       ??_C@_07OHAJIDHM@server2?$AA@ 4004fd74     ui_main.obj
 0002:00002d7c       ??_C@_07MMCENALP@server1?$AA@ 4004fd7c     ui_main.obj
 0002:00002d84       ??_C@_08OCDFECFG@cg_marks?$AA@ 4004fd84     ui_main.obj
 0002:00002d90       ??_C@_0BG@PFLNOEEN@cg_drawCrosshairNames?$AA@ 4004fd90     ui_main.obj
 0002:00002da8       ??_C@_0BB@KBADOJHA@cg_drawCrosshair?$AA@ 4004fda8     ui_main.obj
 0002:00002dbc       ??_C@_04NOOEDIPE@2500?$AA@ 4004fdbc     ui_main.obj
 0002:00002dc4       ??_C@_0N@GADGJPHJ@cg_brassTime?$AA@ 4004fdc4     ui_main.obj
 0002:00002dd4       ??_C@_0BE@NJOHIGEF@ui_browserShowEmpty?$AA@ 4004fdd4     ui_main.obj
 0002:00002de8       ??_C@_0BD@FNCPJHJM@ui_browserShowFull?$AA@ 4004fde8     ui_main.obj
 0002:00002dfc       ??_C@_01FAMBOPH@4?$AA@     4004fdfc     ui_main.obj
 0002:00002e00       ??_C@_0BC@OHDOHLCL@ui_browserSortKey?$AA@ 4004fe00     ui_main.obj
 0002:00002e14       ??_C@_0BD@POMFLHHE@ui_browserGameType?$AA@ 4004fe14     ui_main.obj
 0002:00002e28       ??_C@_0BB@KIFEKFLJ@ui_browserMaster?$AA@ 4004fe28     ui_main.obj
 0002:00002e3c       ??_C@_0P@NKIEGNLF@ui_spSelection?$AA@ 4004fe3c     ui_main.obj
 0002:00002e4c       ??_C@_01FDFGLJHB@2?$AA@    4004fe4c     ui_main.obj
 0002:00002e50       ??_C@_0BA@DNMONKHI@ui_ctf_friendly?$AA@ 4004fe50     ui_main.obj
 0002:00002e60       ??_C@_02PJNFELNH@30?$AA@   4004fe60     ui_main.obj
 0002:00002e64       ??_C@_0BB@INPGKJAK@ui_ctf_timelimit?$AA@ 4004fe64     ui_main.obj
 0002:00002e78       ??_C@_01KJLJFBPL@8?$AA@    4004fe78     ui_main.obj
 0002:00002e7c       ??_C@_0BE@FLADFGIH@ui_ctf_capturelimit?$AA@ 4004fe7c     ui_main.obj
 0002:00002e90       ??_C@_0BB@LCPLFLFK@ui_team_friendly?$AA@ 4004fe90     ui_main.obj
 0002:00002ea4       ??_C@_0BC@FIBJNNGP@ui_team_timelimit?$AA@ 4004fea4     ui_main.obj
 0002:00002eb8       ??_C@_0BC@JFOHFEHA@ui_team_fraglimit?$AA@ 4004feb8     ui_main.obj
 0002:00002ecc       ??_C@_02IHCGGLPM@15?$AA@   4004fecc     ui_main.obj
 0002:00002ed0       ??_C@_0BF@BIAKOFPO@ui_tourney_timelimit?$AA@ 4004fed0     ui_main.obj
 0002:00002ee8       ??_C@_0BF@NFPEGMOB@ui_tourney_fraglimit?$AA@ 4004fee8     ui_main.obj
 0002:00002f00       ??_C@_0BB@KJJGDNHJ@ui_ffa_timelimit?$AA@ 4004ff00     ui_main.obj
 0002:00002f14       ??_C@_02PIBHCBOA@20?$AA@   4004ff14     ui_main.obj
 0002:00002f18       ??_C@_0BB@GEGILEGG@ui_ffa_fraglimit?$AA@ 4004ff18     ui_main.obj
 0002:00002f2c       ??_C@_0N@PGDAKNHB@vid_restart?$DL?$AA@ 4004ff2c     ui_menu.obj
 0002:00002f3c       ??_C@_07FMAMAFJE@fs_game?$AA@ 4004ff3c     ui_menu.obj
 0002:00002f44       ??_C@_0M@PLGKGDEK@missionpack?$AA@ 4004ff44     ui_menu.obj
 0002:00002f50       ??_C@_0CF@OBMAIKJP@models?1mapobjects?1banner?1banner5@ 4004ff50     ui_menu.obj
 0002:00002f78       ??_C@_0BB@GDGLAKGE@com_errorMessage?$AA@ 4004ff78     ui_menu.obj
 0002:00002f8c       ??_C@_04GOLNGIJ@EXIT?$AA@  4004ff8c     ui_menu.obj
 0002:00002f94       ??_C@_04LMMMPHPK@MODS?$AA@ 4004ff94     ui_menu.obj
 0002:00002f9c       ??_C@_0L@CJDLOGFG@TEAM?5ARENA?$AA@ 4004ff9c     ui_menu.obj
 0002:00002fa8       ??_C@_0M@MIOALCPG@MULTIPLAYER?$AA@ 4004ffa8     ui_menu.obj
 0002:00002fb4       ??_C@_0O@PGOHDKAD@SINGLE?5PLAYER?$AA@ 4004ffb4     ui_menu.obj
 0002:00002fc4       ??_C@_0O@JEEKIFAP@sv_killserver?$AA@ 4004ffc4     ui_menu.obj
 0002:00002fd4       ??_C@_0CJ@NOMALNHL@DEMO?5?5?5?5?5?5FOR?5MATURE?5AUDIENCES?5?5@ 4004ffd4     ui_menu.obj
 0002:00003000       ??_C@_0BA@COBPPJKB@Quake?5Construct?$AA@ 40050000     ui_menu.obj
 0002:00003010       __real@4014000000000000    40050010     ui_menu.obj
 0002:00003018       __real@459c4000            40050018     ui_menu.obj
 0002:00003020       __real@4033b00000000000    40050020     ui_menu.obj
 0002:00003028       __real@42700000            40050028     ui_menu.obj
 0002:0000302c       ??_C@_08GEJGLEOK@$modlist?$AA@ 4005002c     ui_menu.obj
 0002:00003038       ??_C@_0BM@MHAABCMH@drawLen?5?$DO?$DN?5MAX_STRING_CHARS?$AA@ 40050038     ui_mfield.obj
 0002:00003054       ??_C@_0BA@DCCOOEFN@menu?1art?1load_1?$AA@ 40050054     ui_mods.obj
 0002:00003064       ??_C@_0BA@CLDFNFBM@menu?1art?1load_0?$AA@ 40050064     ui_mods.obj
 0002:00003074       ??_C@_0BA@CLFBEEBN@?$CFi?5mods?5parsed?6?$AA@ 40050074     ui_mods.obj
 0002:00003084       ??_C@_0BA@BCJLLOOC@Quake?5III?5Arena?$AA@ 40050084     ui_mods.obj
 0002:00003094       ??_C@_0P@BCJCMNMH@LAN?1Cable?1xDSL?$AA@ 40050094     ui_network.obj
 0002:000030a4       ??_C@_04KMOPNFAB@ISDN?$AA@ 400500a4     ui_network.obj
 0002:000030ac       ??_C@_03CKCFCHJM@56K?$AA@  400500ac     ui_network.obj
 0002:000030b0       ??_C@_05FJNEDOOI@33?46K?$AA@ 400500b0     ui_network.obj
 0002:000030b8       ??_C@_08KBHNAIKN@?$DM?$DN?528?48K?$AA@ 400500b8     ui_network.obj
 0002:000030c4       ??_C@_04HCCHHEEF@rate?$AA@ 400500c4     ui_network.obj
 0002:000030cc       ??_C@_0L@NIIDFHCI@Data?5Rate?3?$AA@ 400500cc     ui_network.obj
 0002:000030d8       ??_C@_0BF@JENADPA@menu?1art?1gs_arrows_r?$AA@ 400500d8     ui_playermodel.obj
 0002:000030f0       ??_C@_0BF@NNAMDMCP@menu?1art?1gs_arrows_l?$AA@ 400500f0     ui_playermodel.obj
 0002:00003108       ??_C@_0BF@MLACCOHH@menu?1art?1gs_arrows_0?$AA@ 40050108     ui_playermodel.obj
 0002:00003120       ??_C@_0BN@IIHBFDFN@menu?1art?1player_models_ports?$AA@ 40050120     ui_playermodel.obj
 0002:00003140       ??_C@_0BC@LINECFPL@menu?1art?1frame1_l?$AA@ 40050140     ui_playermodel.obj
 0002:00003154       ??_C@_0BM@FCPIJIMO@menu?1art?1opponents_selected?$AA@ 40050154     ui_playermodel.obj
 0002:00003170       ??_C@_0BK@PIDNLHLM@menu?1art?1opponents_select?$AA@ 40050170     ui_playermodel.obj
 0002:0000318c       ??_C@_0CC@LFEJONN@sound?1player?1announce?1?$CFs_wins?4wa@ 4005018c     ui_playermodel.obj
 0002:000031b0       ??_C@_0BF@PKIKNPLA@models?1players?1?$CFs?1?$CFs?$AA@ 400501b0     ui_playermodel.obj
 0002:000031c8       ??_C@_05KDHLENLH@icon_?$AA@ 400501c8     ui_playermodel.obj
 0002:000031d0       ??_C@_0BC@EALEMOON@models?1players?1?$CFs?$AA@ 400501d0     ui_playermodel.obj
 0002:000031e4       ??_C@_03LJIJAGL@tga?$AA@   400501e4     ui_playermodel.obj
 0002:000031e8       ??_C@_02DJGKEECL@?4?4?$AA@ 400501e8     ui_playermodel.obj
 0002:000031ec       ??_C@_01LFCBOECM@?4?$AA@   400501ec     ui_playermodel.obj
 0002:000031f0       ??_C@_0P@KAKFFEJE@models?1players?$AA@ 400501f0     ui_playermodel.obj
 0002:00003200       ??_C@_0BA@BMAIBDM@com_buildscript?$AA@ 40050200     ui_playermodel.obj
 0002:00003210       ??_C@_0N@IFJKMCNN@PLAYER?5MODEL?$AA@ 40050210     ui_playermodel.obj
 0002:00003220       ??_C@_0P@JMIBMNM@team_headmodel?$AA@ 40050220     ui_playermodel.obj
 0002:00003230       ??_C@_0L@KEDOKIKJ@team_model?$AA@ 40050230     ui_playermodel.obj
 0002:0000323c       ??_C@_09DHBBGOBJ@headmodel?$AA@ 4005023c     ui_playermodel.obj
 0002:00003248       ??_C@_0BA@OFNOMKGE@models?1players?1?$AA@ 40050248     ui_playermodel.obj
 0002:00003258       ??_C@_0L@NFMCJAMJ@LOW?5MEMORY?$AA@ 40050258     ui_playermodel.obj
 0002:00003264       __real@447a0000            40050264     ui_players.obj
 0002:00003268       __real@3f666666            40050268     ui_players.obj
 0002:0000326c       __real@42c80000            4005026c     ui_players.obj
 0002:00003270       ??_C@_0BB@NCNCDGDJ@sprites?1balloon3?$AA@ 40050270     ui_players.obj
 0002:00003284       ??_C@_09FNBKMGLL@tag_flash?$AA@ 40050284     ui_players.obj
 0002:00003290       ??_C@_0L@EKFDHKMA@tag_barrel?$AA@ 40050290     ui_players.obj
 0002:0000329c       ??_C@_0L@FGMMEJDC@tag_weapon?$AA@ 4005029c     ui_players.obj
 0002:000032a8       ??_C@_08PGAPCFON@tag_head?$AA@ 400502a8     ui_players.obj
 0002:000032b4       ??_C@_09FJEJHBEN@tag_torso?$AA@ 400502b4     ui_players.obj
 0002:000032c0       __real@bfe0000000000000    400502c0     ui_players.obj
 0002:000032c8       __real@42e52ee0            400502c8     ui_players.obj
 0002:000032cc       __real@44200000            400502cc     ui_players.obj
 0002:000032d0       ??_C@_0L@DAPODOKF@_flash?4md3?$AA@ 400502d0     ui_players.obj
 0002:000032dc       ??_C@_0M@GGMINFPA@_barrel?4md3?$AA@ 400502dc     ui_players.obj
 0002:000032e8       __real@404c000000000000    400502e8     ui_players.obj
 0002:000032f0       ??_C@_0BJ@OHDPKGG@Bad?5animation?5number?3?5?$CFi?$AA@ 400502f0     ui_players.obj
 0002:00003310       __real@3fe8000000000000    40050310     ui_players.obj
 0002:00003318       __real@c3b40000            40050318     ui_players.obj
 0002:00003320       __real@3fd0000000000000    40050320     ui_players.obj
 0002:00003328       __real@c2340000            40050328     ui_players.obj
 0002:0000332c       __real@c1b00000            4005032c     ui_players.obj
 0002:00003330       __real@41b00000            40050330     ui_players.obj
 0002:00003338       __real@3f847ae147ae147b    40050338     ui_players.obj
 0002:00003340       __real@42400000            40050340     ui_players.obj
 0002:00003344       ??_C@_0CC@BDJGDBLP@Failed?5to?5load?5animation?5file?5?$CFs@ 40050344     ui_players.obj
 0002:00003368       ??_C@_0CA@MLIOIMKH@models?1players?1?$CFs?1animation?4cfg?$AA@ 40050368     ui_players.obj
 0002:00003388       ??_C@_0CD@MNIIJFIK@Failed?5to?5load?5skin?5file?3?5?$CFs?5?3?5?$CF@ 40050388     ui_players.obj
 0002:000033ac       ??_C@_0BL@MHNDFDC@models?1players?1?$CFs?1head?4md3?$AA@ 400503ac     ui_players.obj
 0002:000033c8       ??_C@_0BM@GODFODEI@models?1players?1?$CFs?1upper?4md3?$AA@ 400503c8     ui_players.obj
 0002:000033e4       ??_C@_0BO@KKNKOPB@Failed?5to?5load?5model?5file?5?$CFs?6?$AA@ 400503e4     ui_players.obj
 0002:00003404       ??_C@_0BM@MMDCMNND@models?1players?1?$CFs?1lower?4md3?$AA@ 40050404     ui_players.obj
 0002:00003420       ??_C@_07DLHCIBDH@default?$AA@ 40050420     ui_players.obj
 0002:00003428       ??_C@_0BP@FBJLNJB@models?1players?1?$CFs?1head_?$CFs?4skin?$AA@ 40050428     ui_players.obj
 0002:00003448       ??_C@_0CA@BDIDHBJC@models?1players?1?$CFs?1upper_?$CFs?4skin?$AA@ 40050448     ui_players.obj
 0002:00003468       ??_C@_0CA@DMIICINO@models?1players?1?$CFs?1lower_?$CFs?4skin?$AA@ 40050468     ui_players.obj
 0002:00003488       ??_C@_0CB@CMKGLJDL@Error?5parsing?5animation?5file?3?5?$CFs@ 40050488     ui_players.obj
 0002:000034ac       ??_C@_0BK@CGODILEM@unknown?5token?5?8?$CFs?8?5is?5?$CFs?6?$AA@ 400504ac     ui_players.obj
 0002:000034c8       ??_C@_03OMLNFKE@sex?$AA@   400504c8     ui_players.obj
 0002:000034cc       ??_C@_0L@JPPMCFBB@headoffset?$AA@ 400504cc     ui_players.obj
 0002:000034d8       ??_C@_09IPEFJHNA@footsteps?$AA@ 400504d8     ui_players.obj
 0002:000034e4       ??_C@_0BC@NFDFKMPA@File?5?$CFs?5too?5long?6?$AA@ 400504e4     ui_players.obj
 0002:000034f8       ??_C@_01BMBHCPLG@5?$AA@    400504f8     ui_playersettings.obj
 0002:000034fc       ??_C@_02PKFBJPLJ@10?$AA@   400504fc     ui_playersettings.obj
 0002:00003500       ??_C@_02IFGANFKF@25?$AA@   40050500     ui_playersettings.obj
 0002:00003504       ??_C@_02IEKCLPJC@35?$AA@   40050504     ui_playersettings.obj
 0002:00003508       ??_C@_02PMJKFNFC@40?$AA@   40050508     ui_playersettings.obj
 0002:0000350c       ??_C@_02IBONKJBH@45?$AA@   4005050c     ui_playersettings.obj
 0002:00003510       ??_C@_02PNFIDHGF@50?$AA@   40050510     ui_playersettings.obj
 0002:00003514       ??_C@_02IACPMDCA@55?$AA@   40050514     ui_playersettings.obj
 0002:00003518       ??_C@_02PPBOIJDM@60?$AA@   40050518     ui_playersettings.obj
 0002:0000351c       ??_C@_02ICGJHNHJ@65?$AA@   4005051c     ui_playersettings.obj
 0002:00003520       ??_C@_02PONMODAL@70?$AA@   40050520     ui_playersettings.obj
 0002:00003524       ??_C@_02IDKLBHEO@75?$AA@   40050524     ui_playersettings.obj
 0002:00003528       ??_C@_02PFIAKEDG@80?$AA@   40050528     ui_playersettings.obj
 0002:0000352c       ??_C@_02IIPHFAHD@85?$AA@   4005052c     ui_playersettings.obj
 0002:00003530       ??_C@_02PEECMOAB@90?$AA@   40050530     ui_playersettings.obj
 0002:00003534       ??_C@_02IJDFDKEE@95?$AA@   40050534     ui_playersettings.obj
 0002:00003538       ??_C@_04OHJIHAFH@None?$AA@ 40050538     ui_playersettings.obj
 0002:00003540       ??_C@_0BC@GAPGDHHF@menu?1art?1fx_white?$AA@ 40050540     ui_playersettings.obj
 0002:00003554       ??_C@_0BB@LIJKJPJD@menu?1art?1fx_cyan?$AA@ 40050554     ui_playersettings.obj
 0002:00003568       ??_C@_0BB@BKOGMDOJ@menu?1art?1fx_blue?$AA@ 40050568     ui_playersettings.obj
 0002:0000357c       ??_C@_0BB@ECKDFOKE@menu?1art?1fx_teal?$AA@ 4005057c     ui_playersettings.obj
 0002:00003590       ??_C@_0BA@IJJPLEBB@menu?1art?1fx_grn?$AA@ 40050590     ui_playersettings.obj
 0002:000035a0       ??_C@_0BA@BCAGEDMK@menu?1art?1fx_yel?$AA@ 400505a0     ui_playersettings.obj
 0002:000035b0       ??_C@_0BA@NNOEOMD@menu?1art?1fx_red?$AA@ 400505b0     ui_playersettings.obj
 0002:000035c0       ??_C@_0BB@OMABGHIG@menu?1art?1fx_base?$AA@ 400505c0     ui_playersettings.obj
 0002:000035d4       ??_C@_0BB@NCGFANOH@menu?1art?1model_1?$AA@ 400505d4     ui_playersettings.obj
 0002:000035e8       ??_C@_0BB@MLHODMKG@menu?1art?1model_0?$AA@ 400505e8     ui_playersettings.obj
 0002:000035fc       ??_C@_0BA@GBLJJEAH@PLAYER?5SETTINGS?$AA@ 400505fc     ui_playersettings.obj
 0002:0000360c       ??_C@_04FABLJDN@Name?$AA@  4005060c     ui_playersettings.obj
 0002:00003614       ??_C@_08PDIKAFKP@Handicap?$AA@ 40050614     ui_playersettings.obj
 0002:00003620       ??_C@_07OCMADDOO@Effects?$AA@ 40050620     ui_playersettings.obj
 0002:00003628       ??_C@_06IPMAANOD@color1?$AA@ 40050628     ui_playersettings.obj
 0002:00003630       ??_C@_08HBHLIHAM@handicap?$AA@ 40050630     ui_playersettings.obj
 0002:0000363c       ??_C@_0L@MJPLEHPL@lower?5left?$AA@ 4005063c     ui_preferences.obj
 0002:00003648       ??_C@_0M@DAFJNPLK@lower?5right?$AA@ 40050648     ui_preferences.obj
 0002:00003654       ??_C@_0M@HODKCDKD@upper?5right?$AA@ 40050654     ui_preferences.obj
 0002:00003660       ??_C@_03MCADLMAF@off?$AA@  40050660     ui_preferences.obj
 0002:00003664       ??_C@_0BD@PPPBDMEH@gfx?12d?1crosshair?$CFc?$AA@ 40050664     ui_preferences.obj
 0002:00003678       ??_C@_0BH@PGGOLEBA@Automatic?5Downloading?3?$AA@ 40050678     ui_preferences.obj
 0002:00003690       ??_C@_0BD@MACAIKI@Draw?5Team?5Overlay?3?$AA@ 40050690     ui_preferences.obj
 0002:000036a4       ??_C@_0BF@GCDJDBAL@Force?5Player?5Models?3?$AA@ 400506a4     ui_preferences.obj
 0002:000036bc       ??_C@_0BC@BOKMJDNL@Sync?5Every?5Frame?3?$AA@ 400506bc     ui_preferences.obj
 0002:000036d0       ??_C@_0BC@NKOPHMLB@High?5Quality?5Sky?3?$AA@ 400506d0     ui_preferences.obj
 0002:000036e4       ??_C@_0BB@MFOJJLJF@Identify?5Target?3?$AA@ 400506e4     ui_preferences.obj
 0002:000036f8       ??_C@_0BA@GDKPAAKM@Dynamic?5Lights?3?$AA@ 400506f8     ui_preferences.obj
 0002:00003708       ??_C@_0BA@OACCMJMM@Ejecting?5Brass?3?$AA@ 40050708     ui_preferences.obj
 0002:00003718       ??_C@_0BA@MOALOGBI@Marks?5on?5Walls?3?$AA@ 40050718     ui_preferences.obj
 0002:00003728       ??_C@_0O@DKGOGFHA@Simple?5Items?3?$AA@ 40050728     ui_preferences.obj
 0002:00003738       ??_C@_0L@CBOMHPOM@Crosshair?3?$AA@ 40050738     ui_preferences.obj
 0002:00003744       ??_C@_0N@EFHMGAKH@GAME?5OPTIONS?$AA@ 40050744     ui_preferences.obj
 0002:00003754       ??_C@_0BB@MLOALJHK@cl_allowDownload?$AA@ 40050754     ui_preferences.obj
 0002:00003768       ??_C@_0BD@BNGDPIGC@cg_drawTeamOverlay?$AA@ 40050768     ui_preferences.obj
 0002:0000377c       ??_C@_0O@LOLNKIFC@cg_forcemodel?$AA@ 4005077c     ui_preferences.obj
 0002:0000378c       ??_C@_08BHIHIACG@r_finish?$AA@ 4005078c     ui_preferences.obj
 0002:00003798       ??_C@_09DKHGHCIK@r_fastsky?$AA@ 40050798     ui_preferences.obj
 0002:000037a4       ??_C@_0P@CEODIJEF@r_dynamiclight?$AA@ 400507a4     ui_preferences.obj
 0002:000037b4       ??_C@_0P@CCFIBNOJ@cg_simpleItems?$AA@ 400507b4     ui_preferences.obj
 0002:000037c4       ??_C@_0BB@MOCFKELF@sv_allowDownload?$AA@ 400507c4     ui_preferences.obj
 0002:000037d8       ??_C@_0BL@MJGFCHJK@Menu_Init?3?5unknown?5type?5?$CFd?$AA@ 400507d8     ui_qmenu.obj
 0002:000037f4       ??_C@_0BO@FHPPBPOM@Menu_AddItem?3?5excessive?5items?$AA@ 400507f4     ui_qmenu.obj
 0002:00003814       ??_C@_0BL@HJMNLJGA@Menu_Draw?3?5unknown?5type?5?$CFd?$AA@ 40050814     ui_qmenu.obj
 0002:00003830       ??_C@_02LIELOMNJ@on?$AA@   40050830     ui_qmenu.obj
 0002:00003834       __real@42900000            40050834     ui_qmenu.obj
 0002:00003838       ??_C@_0M@FHKEBODE@screenshot?6?$AA@ 40050838     ui_qmenu.obj
 0002:00003844       __real@42a00000            40050844     ui_qmenu.obj
 0002:00003848       ??_C@_0BG@EGBFICJI@menu?1art?1sliderbutt_1?$AA@ 40050848     ui_qmenu.obj
 0002:00003860       ??_C@_0BG@FPAOLDNJ@menu?1art?1sliderbutt_0?$AA@ 40050860     ui_qmenu.obj
 0002:00003878       ??_C@_0BB@GNPCMHPH@menu?1art?1slider2?$AA@ 40050878     ui_qmenu.obj
 0002:0000388c       ??_C@_0BJ@EFMFEOAN@sound?1weapons?1change?4wav?$AA@ 4005088c     ui_qmenu.obj
 0002:000038a8       ??_C@_0BF@CAFKHPCK@sound?1misc?1menu4?4wav?$AA@ 400508a8     ui_qmenu.obj
 0002:000038c0       ??_C@_0BF@DNFPEPJC@sound?1misc?1menu3?4wav?$AA@ 400508c0     ui_qmenu.obj
 0002:000038d8       ??_C@_0BF@PGADJMDH@sound?1misc?1menu2?4wav?$AA@ 400508d8     ui_qmenu.obj
 0002:000038f0       ??_C@_0BF@HAJHOOJJ@sound?1misc?1menu1?4wav?$AA@ 400508f0     ui_qmenu.obj
 0002:00003908       ??_C@_0P@LKDNBGGB@menubacknologo?$AA@ 40050908     ui_qmenu.obj
 0002:00003918       ??_C@_08EHPLOJ@menuback?$AA@ 40050918     ui_qmenu.obj
 0002:00003924       ??_C@_0BA@DECDOIG@menubackRagePro?$AA@ 40050924     ui_qmenu.obj
 0002:00003934       ??_C@_05PMAELIEO@white?$AA@ 40050934     ui_qmenu.obj
 0002:0000393c       ??_C@_0BE@HIPBMHGI@menu?1art?1switch_off?$AA@ 4005093c     ui_qmenu.obj
 0002:00003950       ??_C@_0BD@JKAGIECN@menu?1art?1switch_on?$AA@ 40050950     ui_qmenu.obj
 0002:00003964       ??_C@_0BD@CHEDBJDN@menu?1art?13_cursor2?$AA@ 40050964     ui_qmenu.obj
 0002:00003978       ??_C@_0BI@EFKAEII@menu?1art?1font2_prop?4tga?$AA@ 40050978     ui_qmenu.obj
 0002:00003990       ??_C@_0BM@PPJDNIIP@menu?1art?1font1_prop_glo?4tga?$AA@ 40050990     ui_qmenu.obj
 0002:000039ac       ??_C@_0BI@JNLIGCIJ@menu?1art?1font1_prop?4tga?$AA@ 400509ac     ui_qmenu.obj
 0002:000039c4       ??_C@_0BA@FILGFBEK@gfx?12d?1bigchars?$AA@ 400509c4     ui_qmenu.obj
 0002:000039d4       ??_C@_0BC@HLCCNDDM@menu?1art?1delete_1?$AA@ 400509d4     ui_removebots.obj
 0002:000039e8       ??_C@_0BC@GCDJOCHN@menu?1art?1delete_0?$AA@ 400509e8     ui_removebots.obj
 0002:000039fc       ??_C@_01EFFIKLCJ@n?$AA@    400509fc     ui_removebots.obj
 0002:00003a00       ??_C@_0P@DLOLPLNB@clientkick?5?$CFi?6?$AA@ 40050a00     ui_removebots.obj
 0002:00003a10       ??_C@_05ODMCMJAJ@skill?$AA@ 40050a10     ui_removebots.obj
 0002:00003a18       ??_C@_0O@OCOCOONB@sv_maxclients?$AA@ 40050a18     ui_removebots.obj
 0002:00003a28       ??_C@_08EBKMCPMC@server?$CFd?$AA@ 40050a28     ui_serverinfo.obj
 0002:00003a34       ??_C@_0BI@OBPNNDLP@cl_currentServerAddress?$AA@ 40050a34     ui_serverinfo.obj
 0002:00003a4c       ??_C@_0BB@FKEOFDAA@ADD?5TO?5FAVORITES?$AA@ 40050a4c     ui_serverinfo.obj
 0002:00003a60       ??_C@_01JLIPDDHJ@?3?$AA@   40050a60     ui_serverinfo.obj
 0002:00003a64       ??_C@_0M@NHCAPICE@is?5started?4?$AA@ 40050a64     ui_servers2.obj
 0002:00003a70       ??_C@_0BH@EDJBNFAE@disabled?5the?5next?5time?$AA@ 40050a70     ui_servers2.obj
 0002:00003a88       ??_C@_0BD@BCNNKGIG@PunkBuster?5will?5be?$AA@ 40050a88     ui_servers2.obj
 0002:00003a9c       ??_C@_07DOAOMMKG@Enabled?$AA@ 40050a9c     ui_servers2.obj
 0002:00003aa4       ??_C@_08JGILNPHN@Disabled?$AA@ 40050aa4     ui_servers2.obj
 0002:00003ab0       ??_C@_03CGHJMOLI@IPX?$AA@  40050ab0     ui_servers2.obj
 0002:00003ab4       ??_C@_03OPEAKHDL@UDP?$AA@  40050ab4     ui_servers2.obj
 0002:00003ab8       ??_C@_03MJINKFDF@OSP?$AA@  40050ab8     ui_servers2.obj
 0002:00003abc       ??_C@_0N@OEBAEFDP@Urban?5Terror?$AA@ 40050abc     ui_servers2.obj
 0002:00003acc       ??_C@_03CNAEPLGO@Q3F?$AA@  40050acc     ui_servers2.obj
 0002:00003ad0       ??_C@_0P@MNBEJGML@Rocket?5Arena?53?$AA@ 40050ad0     ui_servers2.obj
 0002:00003ae0       ??_C@_09OKMOBHEE@Harvester?$AA@ 40050ae0     ui_servers2.obj
 0002:00003aec       ??_C@_08FLEECNLB@OverLoad?$AA@ 40050aec     ui_servers2.obj
 0002:00003af8       ??_C@_0N@FCMBHKKN@One?5Flag?5CTF?$AA@ 40050af8     ui_servers2.obj
 0002:00003b08       ??_C@_03JKIMLJNP@CTF?$AA@  40050b08     ui_servers2.obj
 0002:00003b0c       ??_C@_07KCEDGKIB@Team?5DM?$AA@ 40050b0c     ui_servers2.obj
 0002:00003b14       ??_C@_03PODLIKLN@SP?5?$AA@ 40050b14     ui_servers2.obj
 0002:00003b18       ??_C@_03NKMHH@1v1?$AA@     40050b18     ui_servers2.obj
 0002:00003b1c       ??_C@_03CHALNFLI@DM?5?$AA@ 40050b1c     ui_servers2.obj
 0002:00003b20       ??_C@_09KEFPFPJ@Ping?5Time?$AA@ 40050b20     ui_servers2.obj
 0002:00003b2c       ??_C@_09CJBILMAG@Game?5Type?$AA@ 40050b2c     ui_servers2.obj
 0002:00003b38       ??_C@_0BC@FOBMFCKE@Open?5Player?5Spots?$AA@ 40050b38     ui_servers2.obj
 0002:00003b4c       ??_C@_08PNHCMLOG@Map?5Name?$AA@ 40050b4c     ui_servers2.obj
 0002:00003b58       ??_C@_0M@EHMFLPNI@Server?5Name?$AA@ 40050b58     ui_servers2.obj
 0002:00003b64       ??_C@_0BB@OOIHNFAG@Capture?5the?5Flag?$AA@ 40050b64     ui_servers2.obj
 0002:00003b78       ??_C@_0L@FENDKKGN@Tournament?$AA@ 40050b78     ui_servers2.obj
 0002:00003b84       ??_C@_0BA@KHHNIIJE@Team?5Deathmatch?$AA@ 40050b84     ui_servers2.obj
 0002:00003b94       ??_C@_0N@PCEMCJC@Free?5For?5All?$AA@ 40050b94     ui_servers2.obj
 0002:00003ba4       ??_C@_03HFJGAJFE@All?$AA@  40050ba4     ui_servers2.obj
 0002:00003ba8       ??_C@_09KPJDHMFB@Favorites?$AA@ 40050ba8     ui_servers2.obj
 0002:00003bb4       ??_C@_08LDBMAAPD@Internet?$AA@ 40050bb4     ui_servers2.obj
 0002:00003bc0       ??_C@_05IEALKJIG@Local?$AA@ 40050bc0     ui_servers2.obj
 0002:00003bc8       ??_C@_08EHKIGBEA@hostname?$AA@ 40050bc8     ui_servers2.obj
 0002:00003bd4       ??_C@_0M@ENKCBFEP@No?5Response?$AA@ 40050bd4     ui_servers2.obj
 0002:00003be0       ??_C@_0L@KMOIMFOM@cl_maxPing?$AA@ 40050be0     ui_servers2.obj
 0002:00003bec       ??_C@_08NJPDEKHO@gametype?$AA@ 40050bec     ui_servers2.obj
 0002:00003bf8       ??_C@_04MJNAPEEI@game?$AA@ 40050bf8     ui_servers2.obj
 0002:00003c00       ??_C@_07EAJPOACB@nettype?$AA@ 40050c00     ui_servers2.obj
 0002:00003c08       ??_C@_0L@CNOGMKDC@punkbuster?$AA@ 40050c08     ui_servers2.obj
 0002:00003c14       ??_C@_07NELDBAJ@maxPing?$AA@ 40050c14     ui_servers2.obj
 0002:00003c1c       ??_C@_07OLCLJOOI@minPing?$AA@ 40050c1c     ui_servers2.obj
 0002:00003c24       ??_C@_07HKJFGNHJ@clients?$AA@ 40050c24     ui_servers2.obj
 0002:00003c2c       ??_C@_0BG@GOLHLHJO@hit?5refresh?5to?5update?$AA@ 40050c2c     ui_servers2.obj
 0002:00003c44       ??_C@_0DA@DMLJFNAJ@?$CF?920?420s?5?$CF?912?412s?5?$CF2d?1?$CF2d?5?$CF?98?48s@ 40050c44     ui_servers2.obj
 0002:00003c74       ??_C@_02JINPPBEP@No?$AA@   40050c74     ui_servers2.obj
 0002:00003c78       ??_C@_03CCLAEDDF@Yes?$AA@  40050c78     ui_servers2.obj
 0002:00003c7c       ??_C@_02KAMBCCOF@?$FO1?$AA@ 40050c7c     ui_servers2.obj
 0002:00003c80       ??_C@_02JCPHEAGH@?$FO3?$AA@ 40050c80     ui_servers2.obj
 0002:00003c84       ??_C@_02ILOMHBCG@?$FO2?$AA@ 40050c84     ui_servers2.obj
 0002:00003c88       ??_C@_02NNLGNGKA@?$FO4?$AA@ 40050c88     ui_servers2.obj
 0002:00003c8c       ??_C@_0BC@IMFFEFCD@No?5Servers?5Found?4?$AA@ 40050c8c     ui_servers2.obj
 0002:00003ca0       ??_C@_0CA@KEFJHFKE@No?5Response?5From?5Master?5Server?4?$AA@ 40050ca0     ui_servers2.obj
 0002:00003cc0       ??_C@_0BG@FHCOIBLF@Scanning?5For?5Servers?4?$AA@ 40050cc0     ui_servers2.obj
 0002:00003cd8       ??_C@_0BE@ELCHCANN@Press?5SPACE?5to?5stop?$AA@ 40050cd8     ui_servers2.obj
 0002:00003cec       ??_C@_0BI@FGDMACG@?$CFd?5of?5?$CFd?5Arena?5Servers?4?$AA@ 40050cec     ui_servers2.obj
 0002:00003d04       ??_C@_0BC@PIIMIPAI@levelshots?1?$CFs?4tga?$AA@ 40050d04     ui_servers2.obj
 0002:00003d18       ??_C@_0BH@LODMPLAL@globalservers?5?$CFd?5?$CFd?$CFs?6?$AA@ 40050d18     ui_servers2.obj
 0002:00003d30       ??_C@_0BH@GMPMLAJJ@globalservers?5?$CFd?5?$CFs?$CFs?6?$AA@ 40050d30     ui_servers2.obj
 0002:00003d48       ??_C@_0P@EAAPMMHH@debug_protocol?$AA@ 40050d48     ui_servers2.obj
 0002:00003d58       ??_C@_05ILIHJPMG@?5full?$AA@ 40050d58     ui_servers2.obj
 0002:00003d60       ??_C@_06FCIPJGKH@?5empty?$AA@ 40050d60     ui_servers2.obj
 0002:00003d68       ??_C@_04LBNAHDKG@?5ctf?$AA@ 40050d68     ui_servers2.obj
 0002:00003d70       ??_C@_08HNAGKOAN@?5tourney?$AA@ 40050d70     ui_servers2.obj
 0002:00003d7c       ??_C@_05NAHNKOKJ@?5team?$AA@ 40050d7c     ui_servers2.obj
 0002:00003d84       ??_C@_04NGONGCEN@?5ffa?$AA@ 40050d84     ui_servers2.obj
 0002:00003d8c       ??_C@_0O@GPLHFEBB@localservers?6?$AA@ 40050d8c     ui_servers2.obj
 0002:00003d9c       ??_C@_0BA@PBPIGHL@menu?1art?1pblogo?$AA@ 40050d9c     ui_servers2.obj
 0002:00003dac       ??_C@_0BE@JCMNICLJ@menu?1art?1unknownmap?$AA@ 40050dac     ui_servers2.obj
 0002:00003dc0       ??_C@_0BB@HHGONOE@menu?1art?1fight_1?$AA@ 40050dc0     ui_servers2.obj
 0002:00003dd4       ??_C@_0BB@BOGNNMKF@menu?1art?1fight_0?$AA@ 40050dd4     ui_servers2.obj
 0002:00003de8       ??_C@_0BD@PINPIDOP@menu?1art?1refresh_1?$AA@ 40050de8     ui_servers2.obj
 0002:00003dfc       ??_C@_0BD@OBMELCKO@menu?1art?1refresh_0?$AA@ 40050dfc     ui_servers2.obj
 0002:00003e10       ??_C@_0BD@IJALJHAF@menu?1art?1specify_1?$AA@ 40050e10     ui_servers2.obj
 0002:00003e24       ??_C@_0BD@JABAKGEE@menu?1art?1specify_0?$AA@ 40050e24     ui_servers2.obj
 0002:00003e38       ??_C@_0BC@GHDEIBAC@menu?1art?1create_1?$AA@ 40050e38     ui_servers2.obj
 0002:00003e4c       ??_C@_0BC@HOCPLAED@menu?1art?1create_0?$AA@ 40050e4c     ui_servers2.obj
 0002:00003e60       ??_C@_0O@LNMAAODD@cl_punkbuster?$AA@ 40050e60     ui_servers2.obj
 0002:00003e70       ??_C@_0M@PFGCLCML@Punkbuster?3?$AA@ 40050e70     ui_servers2.obj
 0002:00003e7c       ??_C@_0M@KJNPEJFO@Show?5Empty?3?$AA@ 40050e7c     ui_servers2.obj
 0002:00003e88       ??_C@_0L@KAEBHMJK@Show?5Full?3?$AA@ 40050e88     ui_servers2.obj
 0002:00003e94       ??_C@_08DOPDJIDE@Sort?5By?3?$AA@ 40050e94     ui_servers2.obj
 0002:00003ea0       ??_C@_0L@MMODGDPA@Game?5Type?3?$AA@ 40050ea0     ui_servers2.obj
 0002:00003eac       ??_C@_08IPFEIPLJ@Servers?3?$AA@ 40050eac     ui_servers2.obj
 0002:00003eb8       ??_C@_0O@CNLIGPJL@ARENA?5SERVERS?$AA@ 40050eb8     ui_servers2.obj
 0002:00003ec8       ??_C@_0BE@OHEIGMPH@Disable?5Punkbuster?$DP?$AA@ 40050ec8     ui_servers2.obj
 0002:00003edc       ??_C@_0BD@FCMFIANK@Enable?5Punkbuster?$DP?$AA@ 40050edc     ui_servers2.obj
 0002:00003ef0       ??_C@_0M@LNGHCJI@connect?5?$CFs?6?$AA@ 40050ef0     ui_servers2.obj
 0002:00003efc       ??_C@_08BCPMNFMF@ping?5?$CFs?6?$AA@ 40050efc     ui_servers2.obj
 0002:00003f08       ??_C@_08MDDIMDJM@DEFAULTS?$AA@ 40050f08     ui_setup.obj
 0002:00003f14       ??_C@_06LOIMDMFD@CD?5Key?$AA@ 40050f14     ui_setup.obj
 0002:00003f1c       ??_C@_06FDHFNJBJ@SYSTEM?$AA@ 40050f1c     ui_setup.obj
 0002:00003f24       ??_C@_06BEJGECAN@PLAYER?$AA@ 40050f24     ui_setup.obj
 0002:00003f2c       ??_C@_0N@DAGNKKMD@vid_restart?6?$AA@ 40050f2c     ui_setup.obj
 0002:00003f3c       ??_C@_0O@FOFBEHAC@cvar_restart?6?$AA@ 40050f3c     ui_setup.obj
 0002:00003f4c       ??_C@_0BC@FDOILEKD@exec?5default?4cfg?6?$AA@ 40050f4c     ui_setup.obj
 0002:00003f60       ??_C@_0CB@LKAFLEDA@options?5to?5their?5default?5values?4@ 40050f60     ui_setup.obj
 0002:00003f84       ??_C@_0BP@OOHJMCGH@WARNING?3?5This?5will?5reset?5?$CKALL?$CK?$AA@ 40050f84     ui_setup.obj
 0002:00003fa4       ??_C@_04PHMMJPOJ@High?$AA@ 40050fa4     ui_sound.obj
 0002:00003fac       ??_C@_03CMIMKEEK@Low?$AA@  40050fac     ui_sound.obj
 0002:00003fb0       ??_C@_0O@CEAOAAJD@s_compression?$AA@ 40050fb0     ui_sound.obj
 0002:00003fc0       ??_C@_0O@DCFOJKGE@s_musicvolume?$AA@ 40050fc0     ui_sound.obj
 0002:00003fd0       ??_C@_08HCGCKAMG@s_volume?$AA@ 40050fd0     ui_sound.obj
 0002:00003fdc       ??_C@_0P@HJPBDCIH@Sound?5Quality?3?$AA@ 40050fdc     ui_sound.obj
 0002:00003fec       ??_C@_0O@LNPKJGND@Music?5Volume?3?$AA@ 40050fec     ui_sound.obj
 0002:00003ffc       ??_C@_0BA@MMJGBOIL@Effects?5Volume?3?$AA@ 40050ffc     ui_sound.obj
 0002:0000400c       ??_C@_0N@FJNKPAFP@snd_restart?6?$AA@ 4005100c     ui_sound.obj
 0002:0000401c       ??_C@_05GPLACMP@s_khz?$AA@ 4005101c     ui_sound.obj
 0002:00004024       ??_C@_09GGNANLLG@spmap?5?$CFs?6?$AA@ 40051024     ui_sparena.obj
 0002:00004030       ??_C@_05OOLGMANF@Port?3?$AA@ 40051030     ui_specifyserver.obj
 0002:00004038       ??_C@_08OGOLGJFH@Address?3?$AA@ 40051038     ui_specifyserver.obj
 0002:00004044       ??_C@_0P@HBHLOPFN@SPECIFY?5SERVER?$AA@ 40051044     ui_specifyserver.obj
 0002:00004054       ??_C@_03HLLJJGBI@?3?$CFs?$AA@ 40051054     ui_specifyserver.obj
 0002:00004058       ??_C@_0BE@FPMJOIEB@menu?1art?1skirmish_1?$AA@ 40051058     ui_splevel.obj
 0002:0000406c       ??_C@_0BE@EGNCNJAA@menu?1art?1skirmish_0?$AA@ 4005106c     ui_splevel.obj
 0002:00004080       ??_C@_0BB@FIPADMHN@menu?1art?1reset_1?$AA@ 40051080     ui_splevel.obj
 0002:00004094       ??_C@_0BB@EBOLANDM@menu?1art?1reset_0?$AA@ 40051094     ui_splevel.obj
 0002:000040a8       ??_C@_0BJ@LCFMFNMF@menu?1art?1level_complete5?$AA@ 400510a8     ui_splevel.obj
 0002:000040c4       ??_C@_0BJ@KLEHGMIE@menu?1art?1level_complete4?$AA@ 400510c4     ui_splevel.obj
 0002:000040e0       ??_C@_0BJ@OEAGPKED@menu?1art?1level_complete3?$AA@ 400510e0     ui_splevel.obj
 0002:000040fc       ??_C@_0BJ@PNBNMLAC@menu?1art?1level_complete2?$AA@ 400510fc     ui_splevel.obj
 0002:00004118       ??_C@_0BJ@NGDAJIMB@menu?1art?1level_complete1?$AA@ 40051118     ui_splevel.obj
 0002:00004134       ??_C@_0BC@KOFELLGP@menu?1art?1narrow_1?$AA@ 40051134     ui_splevel.obj
 0002:00004148       ??_C@_0BC@LHEPIKCO@menu?1art?1narrow_0?$AA@ 40051148     ui_splevel.obj
 0002:0000415c       ??_C@_0BH@JFJPENKJ@menu?1art?1maps_selected?$AA@ 4005115c     ui_splevel.obj
 0002:00004174       ??_C@_0BF@FFHGOOMG@menu?1art?1maps_select?$AA@ 40051174     ui_splevel.obj
 0002:0000418c       ??_C@_0N@CFMPLOMG@CHOOSE?5LEVEL?$AA@ 4005118c     ui_splevel.obj
 0002:0000419c       ??_C@_0CD@BICLACEG@models?1players?1?$CFs?1icon_default?4t@ 4005119c     ui_splevel.obj
 0002:000041c0       ??_C@_0BO@BHADLJEM@models?1players?1?$CFs?1icon_?$CFs?4tga?$AA@ 400511c0     ui_splevel.obj
 0002:000041e0       ??_C@_04OOIACBCD@bots?$AA@ 400511e0     ui_splevel.obj
 0002:000041e8       ??_C@_0M@BLLNFJNH@RESET?5GAME?$DP?$AA@ 400511e8     ui_splevel.obj
 0002:000041f4       ??_C@_0BP@NFNHIEDC@start?5over?5from?5the?5beginning?4?$AA@ 400511f4     ui_splevel.obj
 0002:00004214       ??_C@_0BM@BEHDACFM@Do?5this?5only?5if?5you?5want?5to?$AA@ 40051214     ui_splevel.obj
 0002:00004230       ??_C@_0BO@NBEBPGFF@single?5player?5game?5variables?4?$AA@ 40051230     ui_splevel.obj
 0002:00004250       ??_C@_0CA@OEFAMCBA@WARNING?3?5This?5resets?5all?5of?5the?$AA@ 40051250     ui_splevel.obj
 0002:00004270       ??_C@_01OGPIMHDM@?$DP?$AA@ 40051270     ui_splevel.obj
 0002:00004274       ??_C@_06DJHOIPC@?$CFs?3?5?$CFs?$AA@ 40051274     ui_splevel.obj
 0002:0000427c       ??_C@_08JJAPLNHH@longname?$AA@ 4005127c     ui_splevel.obj
 0002:00004288       ??_C@_0O@POJHGBNJ@ACCESS?5DENIED?$AA@ 40051288     ui_splevel.obj
 0002:00004298       ??_C@_07KEDPACAB@Tier?5?$CFi?$AA@ 40051298     ui_splevel.obj
 0002:000042a0       ??_C@_03IIFIDNCM@?$CFik?$AA@ 400512a0     ui_splevel.obj
 0002:000042a4       ??_C@_03NOACJKKK@?$CFim?$AA@ 400512a4     ui_splevel.obj
 0002:000042a8       ??_C@_0BL@PKIAGHGE@sound?1feedback?1perfect?4wav?$AA@ 400512a8     ui_sppostgame.obj
 0002:000042c4       ??_C@_0BJ@LGPKHKCD@sound?1feedback?1frags?4wav?$AA@ 400512c4     ui_sppostgame.obj
 0002:000042e0       ??_C@_0BM@JEOBNNKF@sound?1feedback?1gauntlet?4wav?$AA@ 400512e0     ui_sppostgame.obj
 0002:000042fc       ??_C@_0BP@DFJEDLMJ@sound?1feedback?1excellent_a?4wav?$AA@ 400512fc     ui_sppostgame.obj
 0002:0000431c       ??_C@_0CA@PMNJKEAB@sound?1feedback?1impressive_a?4wav?$AA@ 4005131c     ui_sppostgame.obj
 0002:0000433c       ??_C@_0BM@HGGDKCMP@sound?1feedback?1accuracy?4wav?$AA@ 4005133c     ui_sppostgame.obj
 0002:00004358       ??_C@_0BK@OEPKIHDM@menu?1medals?1medal_victory?$AA@ 40051358     ui_sppostgame.obj
 0002:00004374       ??_C@_0BI@GEHBOBII@menu?1medals?1medal_frags?$AA@ 40051374     ui_sppostgame.obj
 0002:0000438c       ??_C@_0BL@BIAPCDFH@menu?1medals?1medal_gauntlet?$AA@ 4005138c     ui_sppostgame.obj
 0002:000043a8       ??_C@_0BM@PMDFJJJH@menu?1medals?1medal_excellent?$AA@ 400513a8     ui_sppostgame.obj
 0002:000043c4       ??_C@_0BN@EIFIEJBJ@menu?1medals?1medal_impressive?$AA@ 400513c4     ui_sppostgame.obj
 0002:000043e4       ??_C@_0BL@IICGCJIO@menu?1medals?1medal_accuracy?$AA@ 400513e4     ui_sppostgame.obj
 0002:00004400       ??_C@_07ELNHFAIP@Perfect?$AA@ 40051400     ui_sppostgame.obj
 0002:00004408       ??_C@_05NODOGDHE@Frags?$AA@ 40051408     ui_sppostgame.obj
 0002:00004410       ??_C@_09IOGBPGDO@Excellent?$AA@ 40051410     ui_sppostgame.obj
 0002:0000441c       ??_C@_0L@OHCAAGDK@Impressive?$AA@ 4005141c     ui_sppostgame.obj
 0002:00004428       ??_C@_08NLCOAFEI@Accuracy?$AA@ 40051428     ui_sppostgame.obj
 0002:00004434       ??_C@_0CB@FGABOHI@sound?1player?1announce?1youwin?4wav@ 40051434     ui_sppostgame.obj
 0002:00004458       ??_C@_0O@JPEBDGNH@music?1win?4wav?$AA@ 40051458     ui_sppostgame.obj
 0002:00004468       ??_C@_0P@GGLGPLDB@music?1loss?4wav?$AA@ 40051468     ui_sppostgame.obj
 0002:00004478       ??_C@_0BA@DJMDHEHO@menu?1art?1next_1?$AA@ 40051478     ui_sppostgame.obj
 0002:00004488       ??_C@_0BA@CANIEFDP@menu?1art?1next_0?$AA@ 40051488     ui_sppostgame.obj
 0002:00004498       ??_C@_0BC@JBEGLPGA@menu?1art?1replay_1?$AA@ 40051498     ui_sppostgame.obj
 0002:000044ac       ??_C@_0BC@IIFNIOCB@menu?1art?1replay_0?$AA@ 400514ac     ui_sppostgame.obj
 0002:000044c0       ??_C@_0BA@FPDHGLKE@menu?1art?1menu_1?$AA@ 400514c0     ui_sppostgame.obj
 0002:000044d0       ??_C@_0BA@EGCMFKOF@menu?1art?1menu_0?$AA@ 400514d0     ui_sppostgame.obj
 0002:000044e0       ??_C@_0BB@BIKCIDIL@music?5music?1win?6?$AA@ 400514e0     ui_sppostgame.obj
 0002:000044f4       ??_C@_0BC@JPJPMLME@music?5music?1loss?6?$AA@ 400514f4     ui_sppostgame.obj
 0002:00004508       ??_C@_0M@KIKMJPNG@sv_serverid?$AA@ 40051508     ui_sppostgame.obj
 0002:00004514       ??_C@_0BJ@JNCFJPKJ@disconnect?$DL?5levelselect?6?$AA@ 40051514     ui_sppostgame.obj
 0002:00004530       ??_C@_0O@MPBACBMH@abort_podium?6?$AA@ 40051530     ui_sppostgame.obj
 0002:00004540       ??_C@_0BA@DEFBBFEG@ui_spScoreboard?$AA@ 40051540     ui_sppostgame.obj
 0002:00004550       ??_C@_0CC@LPJAPDLF@disconnect?$DL?5cinematic?5tier?$CFi?4RoQ@ 40051550     ui_sppostgame.obj
 0002:00004574       ??_C@_0BP@OICKMDNJ@disconnect?$DL?5cinematic?5end?4RoQ?6?$AA@ 40051574     ui_sppostgame.obj
 0002:00004594       ??_C@_0CD@HLFEGCPI@disconnect?$DL?5cinematic?5demoEnd?4Ro@ 40051594     ui_sppostgame.obj
 0002:000045b8       ??_C@_04KAKHEEPD@?$CFi?$CF?$CF?$AA@ 400515b8     ui_sppostgame.obj
 0002:000045c0       __real@44fa0000            400515c0     ui_sppostgame.obj
 0002:000045c4       ??_C@_0P@BJOCLPNC@?$CD?$CFi?3?5?$CF?916s?5?$CF2i?$AA@ 400515c4     ui_sppostgame.obj
 0002:000045d4       ??_C@_05OFOELBKB@?$CItie?$CJ?$AA@ 400515d4     ui_sppostgame.obj
 0002:000045dc       ??_C@_0BH@BFJMDBAL@sound?1misc?1silence?4wav?$AA@ 400515dc     ui_spskill.obj
 0002:000045f4       ??_C@_0BJ@FNGEFKND@sound?1misc?1nightmare?4wav?$AA@ 400515f4     ui_spskill.obj
 0002:00004610       ??_C@_0BE@EEOHPHNN@menu?1art?1back_1?4tga?$AA@ 40051610     ui_spskill.obj
 0002:00004624       ??_C@_0BE@IPLLCEHI@menu?1art?1back_0?4tga?$AA@ 40051624     ui_spskill.obj
 0002:00004638       ??_C@_0L@KIGHNPAI@NIGHTMARE?$CB?$AA@ 40051638     ui_spskill.obj
 0002:00004644       ??_C@_0L@KLJODGNE@DIFFICULTY?$AA@ 40051644     ui_spskill.obj
 0002:00004650       ??_C@_04ECGLBLOI@?9?9?9?9?$AA@ 40051650     ui_startserver.obj
 0002:00004658       ??_C@_03OHHOIALK@Bot?$AA@  40051658     ui_startserver.obj
 0002:0000465c       ??_C@_04DNCDCIAE@Open?$AA@ 4005165c     ui_startserver.obj
 0002:00004664       ??_C@_03BANLECBK@LAN?$AA@  40051664     ui_startserver.obj
 0002:00004668       ??_C@_0O@OBEFLHGN@levelshots?1?$CFs?$AA@ 40051668     ui_startserver.obj
 0002:00004678       ??_C@_03JHHHHEKD@ctf?$AA@  40051678     ui_startserver.obj
 0002:0000467c       ??_C@_04KADBPNCB@team?$AA@ 4005167c     ui_startserver.obj
 0002:00004684       ??_C@_07HMNMOHGJ@tourney?$AA@ 40051684     ui_startserver.obj
 0002:0000468c       ??_C@_03PAEKGFEI@ffa?$AA@  4005168c     ui_startserver.obj
 0002:00004690       ??_C@_0M@MOOBNNBD@GAME?5SERVER?$AA@ 40051690     ui_startserver.obj
 0002:0000469c       ??_C@_0O@DNCIPMCE@NO?5MAPS?5FOUND?$AA@ 4005169c     ui_startserver.obj
 0002:000046ac       ??_C@_0L@KEEMJOEG@g_gameType?$AA@ 400516ac     ui_startserver.obj
 0002:000046b8       ??_C@_0N@LPOBKLMH@Bot?5Skill?3?5?5?$AA@ 400516b8     ui_startserver.obj
 0002:000046c8       ??_C@_09BMGPDEFI@Hostname?3?$AA@ 400516c8     ui_startserver.obj
 0002:000046d4       ??_C@_0L@BICHPGEO@Dedicated?3?$AA@ 400516d4     ui_startserver.obj
 0002:000046e0       ??_C@_0N@BKOCJFPJ@Pure?5Server?3?$AA@ 400516e0     ui_startserver.obj
 0002:000046f0       ??_C@_0P@JEAHEJK@Friendly?5Fire?3?$AA@ 400516f0     ui_startserver.obj
 0002:00004700       ??_C@_0M@KGNIINDM@Time?5Limit?3?$AA@ 40051700     ui_startserver.obj
 0002:0000470c       ??_C@_0P@BAAGBMPK@Capture?5Limit?3?$AA@ 4005170c     ui_startserver.obj
 0002:0000471c       ??_C@_0M@PPOGHFNI@Frag?5Limit?3?$AA@ 4005171c     ui_startserver.obj
 0002:00004728       ??_C@_0O@FFCKPCKD@sv_punkbuster?$AA@ 40051728     ui_startserver.obj
 0002:00004738       ??_C@_0BB@POICCIP@wait?55?$DL?5team?5?$CFs?6?$AA@ 40051738     ui_startserver.obj
 0002:0000474c       ??_C@_0O@FNBCIOCK@addbot?5?$CFs?5?$CFi?6?$AA@ 4005174c     ui_startserver.obj
 0002:0000475c       ??_C@_0BB@NDKGFBMM@addbot?5?$CFs?5?$CFi?5?$CFs?6?$AA@ 4005175c     ui_startserver.obj
 0002:00004770       ??_C@_07EONAPLKO@wait?53?6?$AA@ 40051770     ui_startserver.obj
 0002:00004778       ??_C@_0BG@IEGGLJFO@wait?5?$DL?5wait?5?$DL?5map?5?$CFs?6?$AA@ 40051778     ui_startserver.obj
 0002:00004790       ??_C@_0M@NHCIKFPA@sv_hostname?$AA@ 40051790     ui_startserver.obj
 0002:0000479c       ??_C@_07CAKOHKGL@sv_pure?$AA@ 4005179c     ui_startserver.obj
 0002:000047a4       ??_C@_0P@EFCECDLM@g_friendlyfire?$AA@ 400517a4     ui_startserver.obj
 0002:000047b4       ??_C@_0N@FCAHJCDA@capturelimit?$AA@ 400517b4     ui_startserver.obj
 0002:000047c4       ??_C@_09GCIEGDDN@fraglimit?$AA@ 400517c4     ui_startserver.obj
 0002:000047d0       ??_C@_09KPHKOKCC@timelimit?$AA@ 400517d0     ui_startserver.obj
 0002:000047dc       ??_C@_09BJOAODLF@dedicated?$AA@ 400517dc     ui_startserver.obj
 0002:000047e8       ??_C@_0BA@IIGAKEDF@ui_ctf_friendlt?$AA@ 400517e8     ui_startserver.obj
 0002:000047f8       ??_C@_0BB@EAAICABF@ui_ctf_fraglimit?$AA@ 400517f8     ui_startserver.obj
 0002:0000480c       ??_C@_0BB@HFFCFBH@ui_team_friendlt?$AA@ 4005180c     ui_startserver.obj
 0002:00004820       ??_C@_05OHCDHBAC@Human?$AA@ 40051820     ui_startserver.obj
 0002:00004828       ??_C@_0N@IPKLOFPJ@0?5?$DN?5NO?5LIMIT?$AA@ 40051828     ui_startserver.obj
 0002:00004838       ??_C@_08GGNFKEJM@?9?9?9?9?9?9?9?9?$AA@ 40051838     ui_startserver.obj
 0002:00004844       ??_C@_05PDPNFFJO@sarge?$AA@ 40051844     ui_startserver.obj
 0002:0000484c       ??_C@_05CAGMDNKH@visor?$AA@ 4005184c     ui_startserver.obj
 0002:00004854       ??_C@_05FEBMJMCL@major?$AA@ 40051854     ui_startserver.obj
 0002:0000485c       ??_C@_05INCFNIGH@grunt?$AA@ 4005185c     ui_startserver.obj
 0002:00004864       ??_C@_0L@ODFNMNFC@SELECT?5BOT?$AA@ 40051864     ui_startserver.obj
 0002:00004870       ??_C@_08JAHACMEH@SPECTATE?$AA@ 40051870     ui_team.obj
 0002:0000487c       ??_C@_09INLLAADA@JOIN?5GAME?$AA@ 4005187c     ui_team.obj
 0002:00004888       ??_C@_09KFAEKFFF@JOIN?5BLUE?$AA@ 40051888     ui_team.obj
 0002:00004894       ??_C@_08ELHMEDI@JOIN?5RED?$AA@ 40051894     ui_team.obj
 0002:000048a0       ??_C@_0BE@BECJPKIL@cmd?5team?5spectator?6?$AA@ 400518a0     ui_team.obj
 0002:000048b4       ??_C@_0P@MFPJAJAM@cmd?5team?5free?6?$AA@ 400518b4     ui_team.obj
 0002:000048c4       ??_C@_0P@NBKBDFGG@cmd?5team?5blue?6?$AA@ 400518c4     ui_team.obj
 0002:000048d4       ??_C@_0O@BIOOBIJN@cmd?5team?5red?6?$AA@ 400518d4     ui_team.obj
 0002:000048e4       ??_C@_07IIHGGDCD@?$CFs?5roam?$AA@ 400518e4     ui_teamorders.obj
 0002:000048ec       ??_C@_04IBANMHOB@Roam?$AA@ 400518ec     ui_teamorders.obj
 0002:000048f4       ??_C@_0BI@IDJPJKPF@i?5stop?5being?5the?5leader?$AA@ 400518f4     ui_teamorders.obj
 0002:0000490c       ??_C@_09CACGJKOG@?$CFs?5report?$AA@ 4005190c     ui_teamorders.obj
 0002:00004918       ??_C@_0N@LADFMPMK@?$CFs?5camp?5here?$AA@ 40051918     ui_teamorders.obj
 0002:00004928       ??_C@_0BC@HLLEBIGP@?$CFs?5get?5enemy?5flag?$AA@ 40051928     ui_teamorders.obj
 0002:0000493c       ??_C@_0N@FFAENNJA@?$CFs?5follow?5me?$AA@ 4005193c     ui_teamorders.obj
 0002:0000494c       ??_C@_0BD@PLLLMKCL@?$CFs?5defend?5the?5base?$AA@ 4005194c     ui_teamorders.obj
 0002:00004960       ??_C@_0BA@LOCFBMM@i?5am?5the?5leader?$AA@ 40051960     ui_teamorders.obj
 0002:00004970       ??_C@_0BF@ODKMIDOP@I?5Relinquish?5Command?$AA@ 40051970     ui_teamorders.obj
 0002:00004988       ??_C@_06IFBEBKA@Report?$AA@ 40051988     ui_teamorders.obj
 0002:00004990       ??_C@_09KJEOOJNP@Camp?5Here?$AA@ 40051990     ui_teamorders.obj
 0002:0000499c       ??_C@_0P@JNEJHNNF@Get?5Enemy?5Flag?$AA@ 4005199c     ui_teamorders.obj
 0002:000049ac       ??_C@_09LFPDJCGB@Follow?5Me?$AA@ 400519ac     ui_teamorders.obj
 0002:000049b8       ??_C@_0BA@OLFJMBG@Defend?5the?5Base?$AA@ 400519b8     ui_teamorders.obj
 0002:000049c8       ??_C@_0BA@BOAEGLPF@I?5Am?5the?5Leader?$AA@ 400519c8     ui_teamorders.obj
 0002:000049d8       ??_C@_0P@BAMGBHOI@say_team?5?$CC?$CFs?$CC?6?$AA@ 400519d8     ui_teamorders.obj
 0002:000049e8       ??_C@_08LFOMOGKF@Everyone?$AA@ 400519e8     ui_teamorders.obj
 0002:000049f4       ??_C@_02IAAGKKDJ@On?$AA@   400519f4     ui_video.obj
 0002:000049f8       ??_C@_03GCDBBDDL@Off?$AA@  400519f8     ui_video.obj
 0002:000049fc       ??_C@_06LHIDHMIE@Medium?$AA@ 400519fc     ui_video.obj
 0002:00004a04       ??_C@_09KAHAONAF@Trilinear?$AA@ 40051a04     ui_video.obj
 0002:00004a10       ??_C@_08DLDNHHDN@Bilinear?$AA@ 40051a10     ui_video.obj
 0002:00004a1c       ??_C@_0BE@HILILFDG@856x480?5wide?5screen?$AA@ 40051a1c     ui_video.obj
 0002:00004a30       ??_C@_09NHLNGPFJ@2048x1536?$AA@ 40051a30     ui_video.obj
 0002:00004a3c       ??_C@_09DBPOMMCL@1600x1200?$AA@ 40051a3c     ui_video.obj
 0002:00004a48       ??_C@_09HCBGFPHD@1280x1024?$AA@ 40051a48     ui_video.obj
 0002:00004a54       ??_C@_08LNMDFBOF@1152x864?$AA@ 40051a54     ui_video.obj
 0002:00004a60       ??_C@_08JGEBNDLC@1024x768?$AA@ 40051a60     ui_video.obj
 0002:00004a6c       ??_C@_07JDGBJDBO@960x720?$AA@ 40051a6c     ui_video.obj
 0002:00004a74       ??_C@_07IHCDBFLB@800x600?$AA@ 40051a74     ui_video.obj
 0002:00004a7c       ??_C@_07MCPMLKKD@640x480?$AA@ 40051a7c     ui_video.obj
 0002:00004a84       ??_C@_07KKDIMOFB@512x384?$AA@ 40051a84     ui_video.obj
 0002:00004a8c       ??_C@_07OHFCPAMM@400x300?$AA@ 40051a8c     ui_video.obj
 0002:00004a94       ??_C@_07MFLNCHEF@320x240?$AA@ 40051a94     ui_video.obj
 0002:00004a9c       ??_C@_06LEBKBMLE@Vertex?$AA@ 40051a9c     ui_video.obj
 0002:00004aa4       ??_C@_08OHHGOOLO@Lightmap?$AA@ 40051aa4     ui_video.obj
 0002:00004ab0       ??_C@_06IFGIOHDE@Custom?$AA@ 40051ab0     ui_video.obj
 0002:00004ab8       ??_C@_07MIBGPIAH@Fastest?$AA@ 40051ab8     ui_video.obj
 0002:00004ac0       ??_C@_04HABAFPJG@Fast?$AA@ 40051ac0     ui_video.obj
 0002:00004ac8       ??_C@_06EFAGIKOH@Normal?$AA@ 40051ac8     ui_video.obj
 0002:00004ad0       ??_C@_0N@MIENBIGD@High?5Quality?$AA@ 40051ad0     ui_video.obj
 0002:00004ae0       ??_C@_06OOBBGFDJ@32?5bit?$AA@ 40051ae0     ui_video.obj
 0002:00004ae8       ??_C@_06OCBPDGAG@16?5bit?$AA@ 40051ae8     ui_video.obj
 0002:00004af0       ??_C@_06NFPMDKDO@Voodoo?$AA@ 40051af0     ui_video.obj
 0002:00004af8       ??_C@_07MCAEODGB@Default?$AA@ 40051af8     ui_video.obj
 0002:00004b00       ??_C@_07DDONFNPJ@3dfxvgl?$AA@ 40051b00     ui_video.obj
 0002:00004b08       ??_C@_08EMLDNFIC@opengl32?$AA@ 40051b08     ui_video.obj
 0002:00004b14       ??_C@_0M@HLDPNLNB@Driver?5Info?$AA@ 40051b14     ui_video.obj
 0002:00004b20       ??_C@_0BA@IOOKAOAF@Texture?5Filter?3?$AA@ 40051b20     ui_video.obj
 0002:00004b30       ??_C@_0BB@KKONKLFG@Texture?5Quality?3?$AA@ 40051b30     ui_video.obj
 0002:00004b44       ??_C@_0BA@BAIEMKMK@Texture?5Detail?3?$AA@ 40051b44     ui_video.obj
 0002:00004b54       ??_C@_0BC@GJPLLPN@Geometric?5Detail?3?$AA@ 40051b54     ui_video.obj
 0002:00004b68       ??_C@_09LNBNDFHP@Lighting?3?$AA@ 40051b68     ui_video.obj
 0002:00004b74       ??_C@_0M@EBCMOIOB@Fullscreen?3?$AA@ 40051b74     ui_video.obj
 0002:00004b80       ??_C@_0N@GBJEDJAA@Color?5Depth?3?$AA@ 40051b80     ui_video.obj
 0002:00004b90       ??_C@_0M@DCOMLGD@Video?5Mode?3?$AA@ 40051b90     ui_video.obj
 0002:00004b9c       ??_C@_0P@CAAMHJHI@GL?5Extensions?3?$AA@ 40051b9c     ui_video.obj
 0002:00004bac       ??_C@_0L@JMBBAEGM@GL?5Driver?3?$AA@ 40051bac     ui_video.obj
 0002:00004bb8       ??_C@_0BD@KEOJNAKE@Graphics?5Settings?3?$AA@ 40051bb8     ui_video.obj
 0002:00004bcc       ??_C@_0BJ@PCPDHFJH@GL_LINEAR_MIPMAP_NEAREST?$AA@ 40051bcc     ui_video.obj
 0002:00004be8       ??_C@_0O@BGKNIDHM@r_textureMode?$AA@ 40051be8     ui_video.obj
 0002:00004bf8       ??_C@_0BI@EMKCPMIG@GL_LINEAR_MIPMAP_LINEAR?$AA@ 40051bf8     ui_video.obj
 0002:00004c10       ??_C@_0P@CEFBGCNE@r_subdivisions?$AA@ 40051c10     ui_video.obj
 0002:00004c20       ??_C@_09DOHLALN@r_lodBias?$AA@ 40051c20     ui_video.obj
 0002:00004c2c       ??_C@_0O@LOOKMMOO@r_vertexLight?$AA@ 40051c2c     ui_video.obj
 0002:00004c3c       ??_C@_0O@HILFODLB@r_stencilbits?$AA@ 40051c3c     ui_video.obj
 0002:00004c4c       ??_C@_0M@MLADPBHK@r_depthbits?$AA@ 40051c4c     ui_video.obj
 0002:00004c58       ??_C@_0M@FAHBKNDA@r_colorbits?$AA@ 40051c58     ui_video.obj
 0002:00004c64       ??_C@_0L@LKKCCEBO@r_glDriver?$AA@ 40051c64     ui_video.obj
 0002:00004c70       ??_C@_0N@JILGCMBC@r_fullscreen?$AA@ 40051c70     ui_video.obj
 0002:00004c80       ??_C@_06LBAPPDBG@r_mode?$AA@ 40051c80     ui_video.obj
 0002:00004c88       ??_C@_0BC@HJALDEG@r_allowExtensions?$AA@ 40051c88     ui_video.obj
 0002:00004c9c       ??_C@_08PHNBMEML@r_picmip?$AA@ 40051c9c     ui_video.obj
 0002:00004ca8       ??_C@_0O@HAOJHCNC@r_texturebits?$AA@ 40051ca8     ui_video.obj
 0002:00004cb8       ??_C@_0M@LDPEDMD@DRIVER?5INFO?$AA@ 40051cb8     ui_video.obj
 0002:00004cc4       ??_C@_0CL@PBPGLKMP@color?$CI?$CFd?9bits?$CJ?5Z?$CI?$CFd?9bits?$CJ?5stenci@ 40051cc4     ui_video.obj
 0002:00004cf0       ??_C@_0L@DEEPEJIC@EXTENSIONS?$AA@ 40051cf0     ui_video.obj
 0002:00004cfc       ??_C@_0M@IFHIILG@PIXELFORMAT?$AA@ 40051cfc     ui_video.obj
 0002:00004d08       ??_C@_06HNPNLLLK@VENDOR?$AA@ 40051d08     ui_video.obj
 0002:00004d10       __real@41a00000            40051d10     ui_video.obj
 0002:00004d14       ??_C@_02PHMGELLB@?6?6?$AA@ 40051d14     LIBCMTD:assert.obj
 0002:00004d18       ??_C@_01EEMJAFIK@?6?$AA@   40051d18     LIBCMTD:assert.obj
 0002:00004d1c       ??_C@_03KHICJKCI@?4?4?4?$AA@ 40051d1c     LIBCMTD:assert.obj
 0002:00004d20       ??_C@_0CF@GOGNBNAK@Microsoft?5Visual?5C?$CL?$CL?5Runtime?5Lib@ 40051d20     LIBCMTD:assert.obj
 0002:00004d48       ??_C@_0DN@EBBNMLME@?$CIPress?5Retry?5to?5debug?5the?5applic@ 40051d48     LIBCMTD:assert.obj
 0002:00004d88       ??_C@_0HA@OJHAGA@For?5information?5on?5how?5your?5prog@ 40051d88     LIBCMTD:assert.obj
 0002:00004df8       ??_C@_0N@MEECIJGN@Expression?3?5?$AA@ 40051df8     LIBCMTD:assert.obj
 0002:00004e08       ??_C@_06FIEBOLOH@Line?3?5?$AA@ 40051e08     LIBCMTD:assert.obj
 0002:00004e10       ??_C@_06IGPBOHMJ@File?3?5?$AA@ 40051e10     LIBCMTD:assert.obj
 0002:00004e18       ??_C@_0BH@DNAGHKFM@?$DMprogram?5name?5unknown?$DO?$AA@ 40051e18     LIBCMTD:assert.obj
 0002:00004e30       ??_C@_09KLGCKDOD@Program?3?5?$AA@ 40051e30     LIBCMTD:assert.obj
 0002:00004e3c       ??_C@_0BC@LAIDCHCH@Assertion?5failed?$CB?$AA@ 40051e3c     LIBCMTD:assert.obj
 0002:00004e50       ??_C@_0P@NFGNABCI@string?5?$CB?$DN?5NULL?$AA@ 40051e50     LIBCMTD:vsprintf.obj
 0002:00004e60       ??_C@_0L@MDILGHEC@vsprintf?4c?$AA@ 40051e60     LIBCMTD:vsprintf.obj
 0002:00004e6c       ??_C@_0P@NHGFNCDP@format?5?$CB?$DN?5NULL?$AA@ 40051e6c     LIBCMTD:vsprintf.obj
 0002:00004e7c       ??_C@_09IFKEODFF@dllcrt0?4c?$AA@ 40051e7c     LIBCMTD:dllcrt0.obj
 0002:00004e94       ??_C@_0CK@CNLNOEPB@Local?5variable?5used?5before?5initi@ 40051e94     LIBCMTD:userapi.obj
 0002:00004ec0       ??_C@_0BI@CIGMDCBH@Stack?5memory?5corruption?$AA@ 40051ec0     LIBCMTD:userapi.obj
 0002:00004ed8       ??_C@_0CK@FEGOIOPB@Cast?5to?5smaller?5type?5causing?5los@ 40051ed8     LIBCMTD:userapi.obj
 0002:00004f04       ??_C@_0BJ@HEGAHDFO@Stack?5pointer?5corruption?$AA@ 40051f04     LIBCMTD:userapi.obj
 0002:00004f20       ??_C@_0O@NJIIDJEH@i386?2chkesp?4c?$AA@ 40051f20     LIBCMTD:chkesp.obj
 0002:00004f30       ??_C@_0NM@DNEDKLDF@The?5value?5of?5ESP?5was?5not?5properl@ 40051f30     LIBCMTD:chkesp.obj
 0002:00005020       ??_C@_0BO@GNIAFIKK@Unknown?5Runtime?5Check?5Error?6?$AN?$AA@ 40052020     LIBCMTD:error.obj
 0002:00005040       ??_C@_0DG@HKJMLLLP@A?5local?5variable?5was?5used?5before@ 40052040     LIBCMTD:error.obj
 0002:00005078       ??_C@_0BN@FFOINMNJ@Stack?5memory?5was?5corrupted?6?$AN?$AA@ 40052078     LIBCMTD:error.obj
 0002:00005098       ??_C@_0BBN@GPMLNJCF@A?5cast?5to?5a?5smaller?5data?5type?5ha@ 40052098     LIBCMTD:error.obj
 0002:000051b8       ??_C@_0NN@NGPKDKPD@The?5value?5of?5ESP?5was?5not?5properl@ 400521b8     LIBCMTD:error.obj
 0002:00005298       ??_C@_0CA@IODNCDPG@Run?9Time?5Check?5Failure?5?$CD?$CFd?5?9?5?$CFs?$AA@ 40052298     LIBCMTD:error.obj
 0002:000052d4       ??_C@_0L@CJCNHJJG@?6?$ANModule?3?7?$AA@ 400522d4     LIBCMTD:error.obj
 0002:000052e0       ??_C@_08GJEJCAJD@?6?$ANLine?3?7?$AA@ 400522e0     LIBCMTD:error.obj
 0002:000052ec       ??_C@_0CI@INCLAPNB@Invalid?5pointer?5was?5assigned?5at?6@ 400522ec     LIBCMTD:error.obj
 0002:00005314       ??_C@_0BB@JEGFEAAM@?8?5was?5corrupted?4?$AA@ 40052314     LIBCMTD:error.obj
 0002:00005328       ??_C@_0BM@FGFAMDLF@Stack?5around?5the?5variable?5?8?$AA@ 40052328     LIBCMTD:error.obj
 0002:00005344       ??_C@_0DA@BEGFPCGG@A?5variable?5is?5being?5used?5without@ 40052344     LIBCMTD:error.obj
 0002:00005374       ??_C@_0CH@LOIIHGKM@?8?5is?5being?5used?5without?5being?5de@ 40052374     LIBCMTD:error.obj
 0002:0000539c       ??_C@_0P@HLKMHJCG@The?5variable?5?8?$AA@ 4005239c     LIBCMTD:error.obj
 0002:000053ac       ??_C@_0BC@KNBMEBEO@IsDebuggerPresent?$AA@ 400523ac     LIBCMTD:error.obj
 0002:000053c0       ??_C@_0N@HAOHNMDE@Kernel32?4dll?$AA@ 400523c0     LIBCMTD:error.obj
 0002:000053d0       __real@4150017ec0000000    400523d0     LIBCMTD:testfdiv.obj
 0002:000053d8       __real@4147ffff80000000    400523d8     LIBCMTD:testfdiv.obj
 0002:000053e0       ??_C@_0BK@NHEOCAHP@IsProcessorFeaturePresent?$AA@ 400523e0     LIBCMTD:testfdiv.obj
 0002:000053fc       ??_C@_08CPNIBGIE@KERNEL32?$AA@ 400523fc     LIBCMTD:testfdiv.obj
 0002:00005408       ??_C@_05KLBDPFGC@e?$CL000?$AA@ 40052408     LIBCMTD:cvt.obj
 0002:00005418       __DEFAULT_CW_in_mem        40052418     LIBCMTD:common.obj
 0002:0000541a       __pi_by_2_to_61            4005241a     LIBCMTD:common.obj
 0002:00005454       ??_C@_0L@KDOEJCKC@_nextafter?$AA@ 40052454     LIBCMTD:fpexcept.obj
 0002:00005460       ??_C@_05JGDBENOH@_logb?$AA@ 40052460     LIBCMTD:fpexcept.obj
 0002:00005468       ??_C@_03ONILCKOB@_yn?$AA@  40052468     LIBCMTD:fpexcept.obj
 0002:0000546c       ??_C@_03NAKIGLHK@_y1?$AA@  4005246c     LIBCMTD:fpexcept.obj
 0002:00005470       ??_C@_03MJLDFKDL@_y0?$AA@  40052470     LIBCMTD:fpexcept.obj
 0002:00005474       ??_C@_05GKKHEGJL@frexp?$AA@ 40052474     LIBCMTD:fpexcept.obj
 0002:0000547c       ??_C@_04KEPJIHGP@fmod?$AA@ 4005247c     LIBCMTD:fpexcept.obj
 0002:00005484       ??_C@_06MEIMCGCF@_hypot?$AA@ 40052484     LIBCMTD:fpexcept.obj
 0002:0000548c       ??_C@_05KBKMEMPO@_cabs?$AA@ 4005248c     LIBCMTD:fpexcept.obj
 0002:00005494       ??_C@_05CEJMAHNP@ldexp?$AA@ 40052494     LIBCMTD:fpexcept.obj
 0002:0000549c       ??_C@_04EHEDPDJG@modf?$AA@ 4005249c     LIBCMTD:fpexcept.obj
 0002:000054a4       ??_C@_04ODHECPBC@fabs?$AA@ 400524a4     LIBCMTD:fpexcept.obj
 0002:000054ac       ??_C@_05PBJFFIGL@floor?$AA@ 400524ac     LIBCMTD:fpexcept.obj
 0002:000054b4       ??_C@_04GFPJNGEK@ceil?$AA@ 400524b4     LIBCMTD:fpexcept.obj
 0002:000054bc       ??_C@_03IIINPABG@tan?$AA@  400524bc     LIBCMTD:fpexcept.obj
 0002:000054c0       ??_C@_03LALBNOCG@cos?$AA@  400524c0     LIBCMTD:fpexcept.obj
 0002:000054c4       ??_C@_03BLEJJJBH@sin?$AA@  400524c4     LIBCMTD:fpexcept.obj
 0002:000054c8       ??_C@_04EIAKFFMI@sqrt?$AA@ 400524c8     LIBCMTD:fpexcept.obj
 0002:000054d0       ??_C@_05KNGEOGJB@atan2?$AA@ 400524d0     LIBCMTD:fpexcept.obj
 0002:000054d8       ??_C@_04MLLJIGOK@atan?$AA@ 400524d8     LIBCMTD:fpexcept.obj
 0002:000054e0       ??_C@_04PDIFKINK@acos?$AA@ 400524e0     LIBCMTD:fpexcept.obj
 0002:000054e8       ??_C@_04FIHNOPOL@asin?$AA@ 400524e8     LIBCMTD:fpexcept.obj
 0002:000054f0       ??_C@_04FJHINJAO@tanh?$AA@ 400524f0     LIBCMTD:fpexcept.obj
 0002:000054f8       ??_C@_04HPJJNFIM@cosh?$AA@ 400524f8     LIBCMTD:fpexcept.obj
 0002:00005500       ??_C@_04COOMCNPB@sinh?$AA@ 40052500     LIBCMTD:fpexcept.obj
 0002:00005508       ??_C@_05HGHHAHAP@log10?$AA@ 40052508     LIBCMTD:fpexcept.obj
 0002:00005510       ??_C@_03MGHMBJCF@log?$AA@  40052510     LIBCMTD:fpexcept.obj
 0002:00005514       ??_C@_03JGHBODFD@pow?$AA@  40052514     LIBCMTD:fpexcept.obj
 0002:00005518       ??_C@_03KHJOGHMM@exp?$AA@  40052518     LIBCMTD:fpexcept.obj
 0002:0000555c       ??_C@_0P@MIGLKIOC@CorExitProcess?$AA@ 4005255c     LIBCMTD:crt0dat.obj
 0002:0000556c       ??_C@_0M@MBOPBNBK@mscoree?4dll?$AA@ 4005256c     LIBCMTD:crt0dat.obj
 0002:00005578       ??_C@_08FKHPDPAC@winsig?4c?$AA@ 40052578     LIBCMTD:winsig.obj
 0002:000055b4       ??_C@_0BI@DFKBFLJE@GetProcessWindowStation?$AA@ 400525b4     LIBCMTD:crtmbox.obj
 0002:000055cc       ??_C@_0BK@CIDNPOGP@GetUserObjectInformationA?$AA@ 400525cc     LIBCMTD:crtmbox.obj
 0002:000055e8       ??_C@_0BD@HHGDFDBJ@GetLastActivePopup?$AA@ 400525e8     LIBCMTD:crtmbox.obj
 0002:000055fc       ??_C@_0BA@HNOPNCHB@GetActiveWindow?$AA@ 400525fc     LIBCMTD:crtmbox.obj
 0002:0000560c       ??_C@_0M@CHKKJDAI@MessageBoxA?$AA@ 4005260c     LIBCMTD:crtmbox.obj
 0002:00005618       ??_C@_0L@GMPLCCII@user32?4dll?$AA@ 40052618     LIBCMTD:crtmbox.obj
 0002:00005650       ??_C@_09JMJGGMME@fprintf?4c?$AA@ 40052650     LIBCMTD:fprintf.obj
 0002:0000565c       ??_C@_0M@CMNAFCJK@str?5?$CB?$DN?5NULL?$AA@ 4005265c     LIBCMTD:fprintf.obj
 0002:00005674       ??_C@_09KGBNCNDN@setvbuf?4c?$AA@ 40052674     LIBCMTD:setvbuf.obj
 0002:0000568c       ??_C@_07PNHPCIEC@_file?4c?$AA@ 4005268c     LIBCMTD:_file.obj
 0002:000056a4       ??_C@_0DP@FICHPIPH@?$CI?$CCinconsistent?5IOB?5fields?$CC?0?5stre@ 400526a4     LIBCMTD:_flsbuf.obj
 0002:000056e4       ??_C@_09DHJHPHJP@_flsbuf?4c?$AA@ 400526e4     LIBCMTD:_flsbuf.obj
 0002:000056f0       ___lookuptable             400526f0     LIBCMTD:output.obj
 0002:0000574c       ??_C@_1O@CEDCILHN@?$AA?$CI?$AAn?$AAu?$AAl?$AAl?$AA?$CJ?$AA?$AA@ 4005274c     LIBCMTD:output.obj
 0002:0000575c       ??_C@_06OJHGLDPL@?$CInull?$CJ?$AA@ 4005275c     LIBCMTD:output.obj
 0002:00005764       ??_C@_08MEPFMIND@output?4c?$AA@ 40052764     LIBCMTD:output.obj
 0002:00005770       ??_C@_0P@LGFCLPDP@ch?5?$CB?$DN?5_T?$CI?8?20?8?$CJ?$AA@ 40052770     LIBCMTD:output.obj
 0002:00005780       ??_C@_0BB@NAGLCMLI@Assertion?5Failed?$AA@ 40052780     LIBCMTD:dbgrpt.obj
 0002:00005794       ??_C@_05NAOIJFC@Error?$AA@ 40052794     LIBCMTD:dbgrpt.obj
 0002:0000579c       ??_C@_07KGMMFLDN@Warning?$AA@ 4005279c     LIBCMTD:dbgrpt.obj
 0002:000057a4       ??_C@_08ODMAMGBE@dbgrpt?4c?$AA@ 400527a4     LIBCMTD:dbgrpt.obj
 0002:000057bc       ??_C@_0M@IPILFDFN@?$CFs?$CI?$CFd?$CJ?5?3?5?$CFs?$AA@ 400527bc     LIBCMTD:dbgrpt.obj
 0002:000057c8       ??_C@_01LIIJDEN@?$AN?$AA@  400527c8     LIBCMTD:dbgrpt.obj
 0002:000057cc       ??_C@_0BD@CAENFOHP@Assertion?5failed?3?5?$AA@ 400527cc     LIBCMTD:dbgrpt.obj
 0002:000057e0       ??_C@_0CL@EACFGMNB@_CrtDbgReport?3?5String?5too?5long?5o@ 400527e0     LIBCMTD:dbgrpt.obj
 0002:0000580c       ??_C@_0DC@HLHDIIKH@Second?5Chance?5Assertion?5Failed?3?5@ 4005280c     LIBCMTD:dbgrpt.obj
 0002:00005840       ??_C@_09FOPFMPEJ@wsprintfA?$AA@ 40052840     LIBCMTD:dbgrpt.obj
 0002:0000585c       ??_C@_0CD@EBCGLDDL@Microsoft?5Visual?5C?$CL?$CL?5Debug?5Libra@ 4005285c     LIBCMTD:dbgrpt.obj
 0002:00005880       ??_C@_0FD@IIKNDPHJ@Debug?5?$CFs?$CB?6?6Program?3?5?$CFs?$CFs?$CFs?$CFs?$CFs?$CFs@ 40052880     LIBCMTD:dbgrpt.obj
 0002:000058d4       ??_C@_09OFBFHMBK@?6Module?3?5?$AA@ 400528d4     LIBCMTD:dbgrpt.obj
 0002:000058e0       ??_C@_07OPHPPLBG@?6File?3?5?$AA@ 400528e0     LIBCMTD:dbgrpt.obj
 0002:000058e8       ??_C@_07DBMPPHDI@?6Line?3?5?$AA@ 400528e8     LIBCMTD:dbgrpt.obj
 0002:000058f0       ??_C@_0HD@GNBNFCCL@?6?6For?5information?5on?5how?5your?5pr@ 400528f0     LIBCMTD:dbgrpt.obj
 0002:00005964       ??_C@_0BG@IHOEIIEJ@szUserMessage?5?$CB?$DN?5NULL?$AA@ 40052964     LIBCMTD:dbgrpt.obj
 0002:00005b00       ??_C@_07LCBHPJJN@LC_TIME?$AA@ 40052b00     LIBCMTD:setlocal.obj
 0002:00005b08       ??_C@_0L@DLHIECNL@LC_NUMERIC?$AA@ 40052b08     LIBCMTD:setlocal.obj
 0002:00005b14       ??_C@_0M@MIENIKLA@LC_MONETARY?$AA@ 40052b14     LIBCMTD:setlocal.obj
 0002:00005b20       ??_C@_08EADHIDAD@LC_CTYPE?$AA@ 40052b20     LIBCMTD:setlocal.obj
 0002:00005b2c       ??_C@_0L@KFJHEKIK@LC_COLLATE?$AA@ 40052b2c     LIBCMTD:setlocal.obj
 0002:00005b38       ??_C@_06NEFDFEKB@LC_ALL?$AA@ 40052b38     LIBCMTD:setlocal.obj
 0002:00005b4c       ??_C@_0L@LEECJGMI@setlocal?4c?$AA@ 40052b4c     LIBCMTD:setlocal.obj
 0002:00005b64       ??_C@_01ICJEACDI@?$DL?$AA@ 40052b64     LIBCMTD:setlocal.obj
 0002:00005b68       ??_C@_02BALPLPBG@?$DN?$DL?$AA@ 40052b68     LIBCMTD:setlocal.obj
 0002:00005b6c       ??_C@_01NEMOKFLO@?$DN?$AA@ 40052b6c     LIBCMTD:setlocal.obj
 0002:00005b70       ??_C@_03EGDHDPFD@_?4?0?$AA@ 40052b70     LIBCMTD:setlocal.obj
 0002:00005b74       ??_C@_01IDAFKMJL@_?$AA@    40052b74     LIBCMTD:setlocal.obj
 0002:00005b78       ??_C@_0L@JKCACIOJ@tidtable?4c?$AA@ 40052b78     LIBCMTD:tidtable.obj
 0002:00005b84       ??_C@_07PEJMOBNF@FlsFree?$AA@ 40052b84     LIBCMTD:tidtable.obj
 0002:00005b8c       ??_C@_0M@JCPCPOEF@FlsSetValue?$AA@ 40052b8c     LIBCMTD:tidtable.obj
 0002:00005b98       ??_C@_0M@GDNOONDI@FlsGetValue?$AA@ 40052b98     LIBCMTD:tidtable.obj
 0002:00005ba4       ??_C@_08KNHFBNJ@FlsAlloc?$AA@ 40052ba4     LIBCMTD:tidtable.obj
 0002:00005bb0       ??_C@_0N@MDJJJHMB@kernel32?4dll?$AA@ 40052bb0     LIBCMTD:tidtable.obj
 0002:00005bd8       ??_C@_07FEAFKIIG@a_map?4c?$AA@ 40052bd8     LIBCMTD:a_map.obj
 0002:00005be0       ??_C@_13NOLLCAOD@?$AA?$AA?$AA?$AA@ 40052be0     LIBCMTD:a_map.obj
 0002:00005c0c       ??_C@_09BLOOPMDK@isctype?4c?$AA@ 40052c0c     LIBCMTD:isctype.obj
 0002:00005c18       ??_C@_0BJ@IAKBGELC@?$CIunsigned?$CJ?$CIc?5?$CL?51?$CJ?5?$DM?$DN?5256?$AA@ 40052c18     LIBCMTD:isctype.obj
 0002:00005c34       ??_C@_06PJIGMIJB@Client?$AA@ 40052c34     LIBCMTD:dbgheap.obj
 0002:00005c3c       ??_C@_06KMEJCCGM@Ignore?$AA@ 40052c3c     LIBCMTD:dbgheap.obj
 0002:00005c44       ??_C@_03OGPFLFLO@CRT?$AA@  40052c44     LIBCMTD:dbgheap.obj
 0002:00005c54       ??_C@_0DC@JEMAGEKG@Error?3?5memory?5allocation?3?5bad?5me@ 40052c54     LIBCMTD:dbgheap.obj
 0002:00005c88       ??_C@_0CF@BICKFLAF@Invalid?5allocation?5size?3?5?$CFIu?5byt@ 40052c88     LIBCMTD:dbgheap.obj
 0002:00005cb0       ??_C@_0CB@CCLOLAHO@Client?5hook?5allocation?5failure?4?6@ 40052cb0     LIBCMTD:dbgheap.obj
 0002:00005cd4       ??_C@_0DF@BBEGIFEK@Client?5hook?5allocation?5failure?5a@ 40052cd4     LIBCMTD:dbgheap.obj
 0002:00005d0c       ??_C@_09DPMMACIH@dbgheap?4c?$AA@ 40052d0c     LIBCMTD:dbgheap.obj
 0002:00005d18       ??_C@_0BC@FKEPGOPH@_CrtCheckMemory?$CI?$CJ?$AA@ 40052d18     LIBCMTD:dbgheap.obj
 0002:00005d3c       ??_C@_0BK@DJDKJKNJ@_pFirstBlock?5?$DN?$DN?5pOldBlock?$AA@ 40052d3c     LIBCMTD:dbgheap.obj
 0002:00005d58       ??_C@_0BJ@PGMLBCKP@_pLastBlock?5?$DN?$DN?5pOldBlock?$AA@ 40052d58     LIBCMTD:dbgheap.obj
 0002:00005d74       ??_C@_0DC@LIEEBBFH@fRealloc?5?$HM?$HM?5?$CI?$CBfRealloc?5?$CG?$CG?5pNewBl@ 40052d74     LIBCMTD:dbgheap.obj
 0002:00005da8       ??_C@_0EF@BKJNHFDP@pOldBlock?9?$DOnLine?5?$DN?$DN?5IGNORE_LINE?5@ 40052da8     LIBCMTD:dbgheap.obj
 0002:00005df0       ??_C@_0CC@MCCNOMLK@_CrtIsValidHeapPointer?$CIpUserData@ 40052df0     LIBCMTD:dbgheap.obj
 0002:00005e18       ??_C@_0EM@LGFLMAGJ@The?5Block?5at?50x?$CFp?5was?5allocated?5@ 40052e18     LIBCMTD:dbgheap.obj
 0002:00005e64       ??_C@_0CO@KPNFNEPA@Allocation?5too?5large?5or?5negative@ 40052e64     LIBCMTD:dbgheap.obj
 0002:00005e94       ??_C@_0CE@DOFMDOL@Client?5hook?5re?9allocation?5failur@ 40052e94     LIBCMTD:dbgheap.obj
 0002:00005eb8       ??_C@_0DI@KKJPDPGM@Client?5hook?5re?9allocation?5failur@ 40052eb8     LIBCMTD:dbgheap.obj
 0002:00005f0c       ??_C@_0BG@JDINNDDC@_pFirstBlock?5?$DN?$DN?5pHead?$AA@ 40052f0c     LIBCMTD:dbgheap.obj
 0002:00005f24       ??_C@_0BF@LMGMGAEG@_pLastBlock?5?$DN?$DN?5pHead?$AA@ 40052f24     LIBCMTD:dbgheap.obj
 0002:00005f3c       ??_C@_0BO@LGCGBMOH@pHead?9?$DOnBlockUse?5?$DN?$DN?5nBlockUse?$AA@ 40052f3c     LIBCMTD:dbgheap.obj
 0002:00005f5c       ??_C@_0DN@GKKPDMLN@pHead?9?$DOnLine?5?$DN?$DN?5IGNORE_LINE?5?$CG?$CG?5p@ 40052f5c     LIBCMTD:dbgheap.obj
 0002:00005f9c       ??_C@_0CI@CMGHMNIC@DAMAGE?3?5after?5?$CFhs?5block?5?$CI?$CD?$CFd?$CJ?5at@ 40052f9c     LIBCMTD:dbgheap.obj
 0002:00005fc4       ??_C@_0CJ@OHOOBLKI@DAMAGE?3?5before?5?$CFhs?5block?5?$CI?$CD?$CFd?$CJ?5a@ 40052fc4     LIBCMTD:dbgheap.obj
 0002:00005ff0       ??_C@_0CH@IAGMNLOM@_BLOCK_TYPE_IS_VALID?$CIpHead?9?$DOnBlo@ 40052ff0     LIBCMTD:dbgheap.obj
 0002:00006018       ??_C@_0BL@KEIPLFAC@Client?5hook?5free?5failure?4?6?$AA@ 40053018     LIBCMTD:dbgheap.obj
 0002:00006038       ??_C@_0EJ@HEIBCIMJ@The?5Block?5at?50x?$CFp?5was?5allocated?5@ 40053038     LIBCMTD:dbgheap.obj
 0002:000060a4       ??_C@_0CI@JMLBEDHJ@?$CFhs?5located?5at?50x?$CFp?5is?5?$CFIu?5bytes@ 400530a4     LIBCMTD:dbgheap.obj
 0002:000060cc       ??_C@_0CA@FGFAGAOM@?$CFhs?5allocated?5at?5file?5?$CFhs?$CI?$CFd?$CJ?4?6?$AA@ 400530cc     LIBCMTD:dbgheap.obj
 0002:000060ec       ??_C@_0CH@JKKAOBEK@DAMAGE?3?5on?5top?5of?5Free?5block?5at?5@ 400530ec     LIBCMTD:dbgheap.obj
 0002:00006114       ??_C@_07OHKEFPKJ@DAMAGED?$AA@ 40053114     LIBCMTD:dbgheap.obj
 0002:0000611c       ??_C@_0CL@HNNNMKMJ@_heapchk?5fails?5with?5unknown?5retu@ 4005311c     LIBCMTD:dbgheap.obj
 0002:00006148       ??_C@_0CC@MFFCHFHO@_heapchk?5fails?5with?5_HEAPBADPTR?4@ 40053148     LIBCMTD:dbgheap.obj
 0002:0000616c       ??_C@_0CC@MJGLGBDG@_heapchk?5fails?5with?5_HEAPBADEND?4@ 4005316c     LIBCMTD:dbgheap.obj
 0002:00006190       ??_C@_0CD@CPKEAPBD@_heapchk?5fails?5with?5_HEAPBADNODE@ 40053190     LIBCMTD:dbgheap.obj
 0002:000061b4       ??_C@_0CE@MKKHMBMK@_heapchk?5fails?5with?5_HEAPBADBEGI@ 400531b4     LIBCMTD:dbgheap.obj
 0002:00006214       ??_C@_0CB@EAAIGELO@Bad?5memory?5block?5found?5at?50x?$CFp?4?6@ 40053214     LIBCMTD:dbgheap.obj
 0002:00006238       ??_C@_0CI@KDKEAJEJ@_CrtMemCheckPoint?3?5NULL?5state?5po@ 40053238     LIBCMTD:dbgheap.obj
 0002:0000626c       ??_C@_0CI@ENCLCMLG@_CrtMemDifference?3?5NULL?5state?5po@ 4005326c     LIBCMTD:dbgheap.obj
 0002:00006294       ??_C@_0BH@GFGKJDCO@Object?5dump?5complete?4?6?$AA@ 40053294     LIBCMTD:dbgheap.obj
 0002:000062ac       ??_C@_0DA@MDLBNIBM@crt?5block?5at?50x?$CFp?0?5subtype?5?$CFx?0?5?$CF@ 400532ac     LIBCMTD:dbgheap.obj
 0002:000062dc       ??_C@_0CH@FAGDDGPN@normal?5block?5at?50x?$CFp?0?5?$CFIu?5bytes?5@ 400532dc     LIBCMTD:dbgheap.obj
 0002:00006304       ??_C@_0DD@GHNAAKBB@client?5block?5at?50x?$CFp?0?5subtype?5?$CFx@ 40053304     LIBCMTD:dbgheap.obj
 0002:00006338       ??_C@_06PKLGBFGM@?$HL?$CFld?$HN?5?$AA@ 40053338     LIBCMTD:dbgheap.obj
 0002:00006340       ??_C@_0L@JMEFFCCJ@?$CFhs?$CI?$CFd?$CJ?5?3?5?$AA@ 40053340     LIBCMTD:dbgheap.obj
 0002:0000634c       ??_C@_0BE@OIEFNFL@?$CDFile?5Error?$CD?$CI?$CFd?$CJ?5?3?5?$AA@ 4005334c     LIBCMTD:dbgheap.obj
 0002:00006360       ??_C@_0BE@KCIPKCIA@Dumping?5objects?5?9?$DO?6?$AA@ 40053360     LIBCMTD:dbgheap.obj
 0002:00006384       ??_C@_0BA@HJBKCELP@?5Data?3?5?$DM?$CFs?$DO?5?$CFs?6?$AA@ 40053384     LIBCMTD:dbgheap.obj
 0002:00006394       ??_C@_05MKKEDADM@?$CF?42X?5?$AA@ 40053394     LIBCMTD:dbgheap.obj
 0002:0000639c       ??_C@_0BI@JBFPOEJA@Detected?5memory?5leaks?$CB?6?$AA@ 4005339c     LIBCMTD:dbgheap.obj
 0002:000063b4       ??_C@_0BP@DEDHGGGI@Total?5allocations?3?5?$CFId?5bytes?4?6?$AA@ 400533b4     LIBCMTD:dbgheap.obj
 0002:000063d4       ??_C@_0CB@BLHDAFNE@Largest?5number?5used?3?5?$CFId?5bytes?4?6@ 400533d4     LIBCMTD:dbgheap.obj
 0002:000063f8       ??_C@_0BO@DACNIABB@?$CFId?5bytes?5in?5?$CFId?5?$CFhs?5Blocks?4?6?$AA@ 400533f8     LIBCMTD:dbgheap.obj
 0002:00006418       ??_C@_0CC@GFBJAAAH@?$CI?$CCoffset?5must?5be?5within?5size?$CC?0?50@ 40053418     LIBCMTD:dbgheap.obj
 0002:0000643c       ??_C@_0CF@PGBEDOC@?$CI?$CCalignment?5must?5be?5a?5power?5of?52@ 4005343c     LIBCMTD:dbgheap.obj
 0002:00006464       ??_C@_0DL@PGHMMKNE@Damage?5before?50x?$CFp?5which?5was?5all@ 40053464     LIBCMTD:dbgheap.obj
 0002:000064a0       ??_C@_0EI@NDNJMAJK@The?5block?5at?50x?$CFp?5was?5not?5alloca@ 400534a0     LIBCMTD:dbgheap.obj
 0002:000064e8       ??_C@_0EF@PGELACII@The?5block?5at?50x?$CFp?5was?5not?5alloca@ 400534e8     LIBCMTD:dbgheap.obj
 0002:00006530       ??_C@_08MAFBHINM@ioinit?4c?$AA@ 40053530     LIBCMTD:ioinit.obj
 0002:0000653c       ??_C@_09HCDLHOJP@stdenvp?4c?$AA@ 4005353c     LIBCMTD:stdenvp.obj
 0002:00006548       ??_C@_09IKILHJIC@stdargv?4c?$AA@ 40053548     LIBCMTD:stdargv.obj
 0002:00006554       ??_C@_07BPGNOCOG@a_env?4c?$AA@ 40053554     LIBCMTD:a_env.obj
 0002:0000657c       ??_C@_0P@GGKDKEEG@runtime?5error?5?$AA@ 4005357c     LIBCMTD:crt0msg.obj
 0002:0000658c       ??_C@_02PCIJFNDE@?$AN?6?$AA@ 4005358c     LIBCMTD:crt0msg.obj
 0002:00006590       ??_C@_0O@MJNIPGOH@TLOSS?5error?$AN?6?$AA@ 40053590     LIBCMTD:crt0msg.obj
 0002:000065a0       ??_C@_0N@BONNPDHF@SING?5error?$AN?6?$AA@ 400535a0     LIBCMTD:crt0msg.obj
 0002:000065b0       ??_C@_0P@MBDAJNE@DOMAIN?5error?$AN?6?$AA@ 400535b0     LIBCMTD:crt0msg.obj
 0002:000065c0       ??_C@_0KC@BDDGGBEJ@R6029?$AN?6?9?5This?5application?5cannot@ 400535c0     LIBCMTD:crt0msg.obj
 0002:00006664       ??_C@_0CF@KJDAIALP@R6028?$AN?6?9?5unable?5to?5initialize?5he@ 40053664     LIBCMTD:crt0msg.obj
 0002:0000668c       ??_C@_0DF@GAKBPDFP@R6027?$AN?6?9?5not?5enough?5space?5for?5lo@ 4005368c     LIBCMTD:crt0msg.obj
 0002:000066c4       ??_C@_0DF@IBLNNAIG@R6026?$AN?6?9?5not?5enough?5space?5for?5st@ 400536c4     LIBCMTD:crt0msg.obj
 0002:000066fc       ??_C@_0CG@IOHKGFNJ@R6025?$AN?6?9?5pure?5virtual?5function?5c@ 400536fc     LIBCMTD:crt0msg.obj
 0002:00006724       ??_C@_0DF@JIJJFJDC@R6024?$AN?6?9?5not?5enough?5space?5for?5_o@ 40053724     LIBCMTD:crt0msg.obj
 0002:0000675c       ??_C@_0CJ@EGEJHFME@R6019?$AN?6?9?5unable?5to?5open?5console?5@ 4005375c     LIBCMTD:crt0msg.obj
 0002:00006788       ??_C@_0CB@GNHNIELH@R6018?$AN?6?9?5unexpected?5heap?5error?$AN?6@ 40053788     LIBCMTD:crt0msg.obj
 0002:000067ac       ??_C@_0CN@FOLDKNG@R6017?$AN?6?9?5unexpected?5multithread?5@ 400537ac     LIBCMTD:crt0msg.obj
 0002:000067dc       ??_C@_0CM@FAHFJNHO@R6016?$AN?6?9?5not?5enough?5space?5for?5th@ 400537dc     LIBCMTD:crt0msg.obj
 0002:00006808       ??_C@_0JG@LBKMGKLD@?$AN?6This?5application?5has?5requested@ 40053808     LIBCMTD:crt0msg.obj
 0002:000068a0       ??_C@_0CM@FLCNIPKK@R6009?$AN?6?9?5not?5enough?5space?5for?5en@ 400538a0     LIBCMTD:crt0msg.obj
 0002:000068cc       ??_C@_0CK@KMMJOAPP@R6008?$AN?6?9?5not?5enough?5space?5for?5ar@ 400538cc     LIBCMTD:crt0msg.obj
 0002:000068f8       ??_C@_0CF@HOHMHDEK@R6002?$AN?6?9?5floating?5point?5not?5load@ 400538f8     LIBCMTD:crt0msg.obj
 0002:00006920       ??_C@_0BK@OFGJDLJJ@Runtime?5Error?$CB?6?6Program?3?5?$AA@ 40053920     LIBCMTD:crt0msg.obj
 0002:0000693c       ??_C@_0M@HHEBEAAO@MSPDB71?4DLL?$AA@ 4005393c     LIBCMTD:pdblkup.obj
 0002:00006948       ??_C@_01KDCPPGHE@r?$AA@    40053948     LIBCMTD:pdblkup.obj
 0002:0000694c       ??_C@_08ONJBEOFA@PDBClose?$AA@ 4005394c     LIBCMTD:pdblkup.obj
 0002:00006958       ??_C@_08NINFAAFA@DBIClose?$AA@ 40053958     LIBCMTD:pdblkup.obj
 0002:00006964       ??_C@_08LIGPJJNA@ModClose?$AA@ 40053964     LIBCMTD:pdblkup.obj
 0002:00006970       ??_C@_0O@IPLOKOKN@ModQueryLines?$AA@ 40053970     LIBCMTD:pdblkup.obj
 0002:00006980       ??_C@_0BE@GDNPNLGH@DBIQueryModFromAddr?$AA@ 40053980     LIBCMTD:pdblkup.obj
 0002:00006994       ??_C@_0L@KPMOCKEL@PDBOpenDBI?$AA@ 40053994     LIBCMTD:pdblkup.obj
 0002:000069a0       ??_C@_0BB@PENKIMFE@PDBOpenValidate3?$AA@ 400539a0     LIBCMTD:pdblkup.obj
 0002:000069b4       ??_C@_0N@KIGOLBLC@Module32Next?$AA@ 400539b4     LIBCMTD:pdblkup.obj
 0002:000069c4       ??_C@_0O@CNMFJJGO@Module32First?$AA@ 400539c4     LIBCMTD:pdblkup.obj
 0002:000069d4       ??_C@_0BF@OCLFCNKN@GetModuleInformation?$AA@ 400539d4     LIBCMTD:pdblkup.obj
 0002:000069ec       ??_C@_0BD@FIEJBLME@EnumProcessModules?$AA@ 400539ec     LIBCMTD:pdblkup.obj
 0002:00006a00       ??_C@_09EPMADGLA@PSAPI?4DLL?$AA@ 40053a00     LIBCMTD:pdblkup.obj
 0002:00006a0c       ??_C@_0BJ@JEFKDHMD@CreateToolhelp32Snapshot?$AA@ 40053a0c     LIBCMTD:pdblkup.obj
 0002:00006a28       ??_C@_0O@CHDGJGFP@ImageNtHeader?$AA@ 40053a28     LIBCMTD:pdblkup.obj
 0002:00006a38       ??_C@_0N@KBGMOMJO@IMAGEHLP?4DLL?$AA@ 40053a38     LIBCMTD:pdblkup.obj
 0002:00006a48       ??_C@_0N@NHGLKGEC@KERNEL32?4DLL?$AA@ 40053a48     LIBCMTD:pdblkup.obj
 0002:00006a58       ??_C@_0BF@BMIHBHCA@EnvironmentDirectory?$AA@ 40053a58     LIBCMTD:pdblkup.obj
 0002:00006a70       ??_C@_0CN@KGLAKABH@SOFTWARE?2Microsoft?2VisualStudio?2@ 40053a70     LIBCMTD:pdblkup.obj
 0002:00006aa0       ??_C@_0M@HLOHPNFA@RegCloseKey?$AA@ 40053aa0     LIBCMTD:pdblkup.obj
 0002:00006aac       ??_C@_0BB@HHEIPGME@RegQueryValueExA?$AA@ 40053aac     LIBCMTD:pdblkup.obj
 0002:00006ac0       ??_C@_0O@DCOGKJGG@RegOpenKeyExA?$AA@ 40053ac0     LIBCMTD:pdblkup.obj
 0002:00006ad0       ??_C@_0N@JJPEKNFO@ADVAPI32?4DLL?$AA@ 40053ad0     LIBCMTD:pdblkup.obj
 0002:00006aec       ??_C@_08GNMOIKDK@onexit?4c?$AA@ 40053aec     LIBCMTD:onexit.obj
 0002:00006af8       ??_C@_07CKDBCAPD@mlock?4c?$AA@ 40053af8     LIBCMTD:mlock.obj
 0002:00006b2c       ??_C@_09IFKHNCOH@_sftbuf?4c?$AA@ 40053b2c     LIBCMTD:_sftbuf.obj
 0002:00006b38       ??_C@_0BH@HIGALIFJ@flag?5?$DN?$DN?50?5?$HM?$HM?5flag?5?$DN?$DN?51?$AA@ 40053b38     LIBCMTD:_sftbuf.obj
 0002:00006b50       ??_C@_0L@CKFHAPLH@_freebuf?4c?$AA@ 40053b50     LIBCMTD:_freebuf.obj
 0002:00006b5c       ??_C@_0P@FELNCIKG@stream?5?$CB?$DN?5NULL?$AA@ 40053b5c     LIBCMTD:_freebuf.obj
 0002:00006b80       ??_C@_0KA@JEHFIFGP@A?5buffer?5overrun?5has?5been?5detect@ 40053b80     LIBCMTD:secfail.obj
 0002:00006c20       ??_C@_0BJ@MDEKIEOJ@Buffer?5overrun?5detected?$CB?$AA@ 40053c20     LIBCMTD:secfail.obj
 0002:00006c40       ??_C@_0LB@BPLHHLFD@A?5security?5error?5of?5unknown?5caus@ 40053c40     LIBCMTD:secfail.obj
 0002:00006cf4       ??_C@_0CD@GMKACBEK@Unknown?5security?5failure?5detecte@ 40053cf4     LIBCMTD:secfail.obj
 0002:00006d34       ??_C@_09PKAEMGHJ@_getbuf?4c?$AA@ 40053d34     LIBCMTD:_getbuf.obj
 0002:00006d40       ___newctype                40053d40     LIBCMTD:ctype.obj
 0002:00007040       __wctype                   40054040     LIBCMTD:ctype.obj
 0002:00007244       ??_C@_0CP@PEILCOHB@f?3?2vs70builds?23077?2vc?2crtbld?2crt@ 40054244     LIBCMTD:snprintf.obj
 0002:00007274       ??_C@_0DA@KHEJFFIK@f?3?2vs70builds?23077?2vc?2crtbld?2crt@ 40054274     LIBCMTD:vsnprint.obj
 0002:000072a4       ??_C@_08JCCMCCIL@HH?3mm?3ss?$AA@ 400542a4     LIBCMTD:strftime.obj
 0002:000072b0       ??_C@_0BE@CKGJFCPC@dddd?0?5MMMM?5dd?0?5yyyy?$AA@ 400542b0     LIBCMTD:strftime.obj
 0002:000072c4       ??_C@_08BPBNCDIB@MM?1dd?1yy?$AA@ 400542c4     LIBCMTD:strftime.obj
 0002:000072d0       ??_C@_02CJNFDJBF@PM?$AA@   400542d0     LIBCMTD:strftime.obj
 0002:000072d4       ??_C@_02DEDBPAFC@AM?$AA@   400542d4     LIBCMTD:strftime.obj
 0002:000072d8       ??_C@_08EDHMEBNP@December?$AA@ 400542d8     LIBCMTD:strftime.obj
 0002:000072e4       ??_C@_08HCHEGEOA@November?$AA@ 400542e4     LIBCMTD:strftime.obj
 0002:000072f0       ??_C@_07JJNFCEND@October?$AA@ 400542f0     LIBCMTD:strftime.obj
 0002:000072f8       ??_C@_09BHHEALKD@September?$AA@ 400542f8     LIBCMTD:strftime.obj
 0002:00007304       ??_C@_06LBBHFDDG@August?$AA@ 40054304     LIBCMTD:strftime.obj
 0002:0000730c       ??_C@_04MIEPOIFP@July?$AA@ 4005430c     LIBCMTD:strftime.obj
 0002:00007314       ??_C@_04CNLMGBGM@June?$AA@ 40054314     LIBCMTD:strftime.obj
 0002:0000731c       ??_C@_05DMJDNLEJ@April?$AA@ 4005431c     LIBCMTD:strftime.obj
 0002:00007324       ??_C@_05HPCKOFNC@March?$AA@ 40054324     LIBCMTD:strftime.obj
 0002:0000732c       ??_C@_08GNJGEPFN@February?$AA@ 4005432c     LIBCMTD:strftime.obj
 0002:00007338       ??_C@_07CGJPFGJA@January?$AA@ 40054338     LIBCMTD:strftime.obj
 0002:00007340       ??_C@_03MKABNOCG@Dec?$AA@  40054340     LIBCMTD:strftime.obj
 0002:00007344       ??_C@_03JPJOFNIA@Nov?$AA@  40054344     LIBCMTD:strftime.obj
 0002:00007348       ??_C@_03BMAOKBAD@Oct?$AA@  40054348     LIBCMTD:strftime.obj
 0002:0000734c       ??_C@_03GGCAPAJC@Sep?$AA@  4005434c     LIBCMTD:strftime.obj
 0002:00007350       ??_C@_03IFJFEIGA@Aug?$AA@  40054350     LIBCMTD:strftime.obj
 0002:00007354       ??_C@_03LBGABGKK@Jul?$AA@  40054354     LIBCMTD:strftime.obj
 0002:00007358       ??_C@_03IDFGHECI@Jun?$AA@  40054358     LIBCMTD:strftime.obj
 0002:0000735c       ??_C@_03CNMDKL@May?$AA@    4005435c     LIBCMTD:strftime.obj
 0002:00007360       ??_C@_03LEOLGMJP@Apr?$AA@  40054360     LIBCMTD:strftime.obj
 0002:00007364       ??_C@_03ODNJBKGA@Mar?$AA@  40054364     LIBCMTD:strftime.obj
 0002:00007368       ??_C@_03HJBDCHOM@Feb?$AA@  40054368     LIBCMTD:strftime.obj
 0002:0000736c       ??_C@_03JIHJHPIE@Jan?$AA@  4005436c     LIBCMTD:strftime.obj
 0002:00007370       ??_C@_08INBOOONO@Saturday?$AA@ 40054370     LIBCMTD:strftime.obj
 0002:0000737c       ??_C@_06JECMNKMI@Friday?$AA@ 4005437c     LIBCMTD:strftime.obj
 0002:00007384       ??_C@_08HACCIKIA@Thursday?$AA@ 40054384     LIBCMTD:strftime.obj
 0002:00007390       ??_C@_09DLIGFAKA@Wednesday?$AA@ 40054390     LIBCMTD:strftime.obj
 0002:0000739c       ??_C@_07BAAGCFCM@Tuesday?$AA@ 4005439c     LIBCMTD:strftime.obj
 0002:000073a4       ??_C@_06JLEDEDGH@Monday?$AA@ 400543a4     LIBCMTD:strftime.obj
 0002:000073ac       ??_C@_06OOPIFAJ@Sunday?$AA@ 400543ac     LIBCMTD:strftime.obj
 0002:000073b4       ??_C@_03FEFJNEK@Sat?$AA@   400543b4     LIBCMTD:strftime.obj
 0002:000073b8       ??_C@_03IDIOELNC@Fri?$AA@  400543b8     LIBCMTD:strftime.obj
 0002:000073bc       ??_C@_03IOFIKPDN@Thu?$AA@  400543bc     LIBCMTD:strftime.obj
 0002:000073c0       ??_C@_03MHOMLAJA@Wed?$AA@  400543c0     LIBCMTD:strftime.obj
 0002:000073c4       ??_C@_03NAGEINEP@Tue?$AA@  400543c4     LIBCMTD:strftime.obj
 0002:000073c8       ??_C@_03PDAGKDH@Mon?$AA@   400543c8     LIBCMTD:strftime.obj
 0002:000073cc       ??_C@_03KOEHGMDN@Sun?$AA@  400543cc     LIBCMTD:strftime.obj
 0002:000073d0       ??_C@_0L@OCEOFAIF@strftime?4c?$AA@ 400543d0     LIBCMTD:strftime.obj
 0002:000073dc       ??_C@_0DJ@BLPIACFC@?$CI?$CCInvalid?5MBCS?5character?5sequenc@ 400543dc     LIBCMTD:strftime.obj
 0002:00007418       ??_C@_0DD@GLPHLKIC@?$CI?$CCZero?5length?5output?5buffer?5pass@ 40054418     LIBCMTD:strftime.obj
 0002:0000744c       ??_C@_0DL@LLHFCBKO@?$CI?$CCInvalid?5MBCS?5character?5sequenc@ 4005444c     LIBCMTD:strftime.obj
 0002:00007488       ??_C@_0EC@CJNAOFBG@?$CI?$CCInvalid?5MBCS?5character?5sequenc@ 40054488     LIBCMTD:strftime.obj
 0002:000074cc       ??_C@_03EBAPMIKO@a?1p?$AA@ 400544cc     LIBCMTD:strftime.obj
 0002:000074d0       ??_C@_05JAMEPDIN@am?1pm?$AA@ 400544d0     LIBCMTD:strftime.obj
 0002:000074e4       ??_C@_0L@IOJADHBB@inittime?4c?$AA@ 400544e4     LIBCMTD:inittime.obj
 0002:000074f0       ??_C@_09MECGNAGI@initnum?4c?$AA@ 400544f0     LIBCMTD:initnum.obj
 0002:000074fc       ??_C@_09HKFHICAL@initmon?4c?$AA@ 400544fc     LIBCMTD:initmon.obj
 0002:00007508       ??_C@_0L@GBAGBCPL@initctyp?4c?$AA@ 40054508     LIBCMTD:initctyp.obj
 0002:00007514       ??_C@_07GPNABLBE@a_str?4c?$AA@ 40054514     LIBCMTD:a_str.obj
 0002:00007530       ___rgLocInfo               40054530     LIBCMTD:getqloc.obj
 0002:000079d4       ??_C@_08PKBIPKE@Paraguay?$AA@ 400549d4     LIBCMTD:getqloc.obj
 0002:000079e0       ??_C@_07GHBIBIBP@Uruguay?$AA@ 400549e0     LIBCMTD:getqloc.obj
 0002:000079e8       ??_C@_05HBNKAPDN@Chile?$AA@ 400549e8     LIBCMTD:getqloc.obj
 0002:000079f0       ??_C@_07FEIFIPNF@Ecuador?$AA@ 400549f0     LIBCMTD:getqloc.obj
 0002:000079f8       ??_C@_09PGNFPGME@Argentina?$AA@ 400549f8     LIBCMTD:getqloc.obj
 0002:00007a04       ??_C@_04IALPBJF@Peru?$AA@  40054a04     LIBCMTD:getqloc.obj
 0002:00007a0c       ??_C@_08IJPLNLKH@Colombia?$AA@ 40054a0c     LIBCMTD:getqloc.obj
 0002:00007a18       ??_C@_09IDMFKCN@Venezuela?$AA@ 40054a18     LIBCMTD:getqloc.obj
 0002:00007a24       ??_C@_0BD@DNEJOGOK@Dominican?5Republic?$AA@ 40054a24     LIBCMTD:getqloc.obj
 0002:00007a38       ??_C@_0N@LPINDNDB@South?5Africa?$AA@ 40054a38     LIBCMTD:getqloc.obj
 0002:00007a48       ??_C@_06BLJPEOBG@Panama?$AA@ 40054a48     LIBCMTD:getqloc.obj
 0002:00007a50       ??_C@_0L@BOCNDGON@Luxembourg?$AA@ 40054a50     LIBCMTD:getqloc.obj
 0002:00007a5c       ??_C@_0L@CONEHKA@Costa?5Rica?$AA@ 40054a5c     LIBCMTD:getqloc.obj
 0002:00007a68       ??_C@_0M@KGBPELAM@Switzerland?$AA@ 40054a68     LIBCMTD:getqloc.obj
 0002:00007a74       ??_C@_09FJGLIMAG@Guatemala?$AA@ 40054a74     LIBCMTD:getqloc.obj
 0002:00007a80       ??_C@_06ECHIPDMK@Canada?$AA@ 40054a80     LIBCMTD:getqloc.obj
 0002:00007a88       ??_C@_0BG@CCEBNPGH@Spanish?5?9?5Modern?5Sort?$AA@ 40054a88     LIBCMTD:getqloc.obj
 0002:00007aa0       ??_C@_09EFGJAPAD@Australia?$AA@ 40054aa0     LIBCMTD:getqloc.obj
 0002:00007aac       ??_C@_07NEKHPBCG@English?$AA@ 40054aac     LIBCMTD:getqloc.obj
 0002:00007ab4       ??_C@_07LKIIOGFH@Austria?$AA@ 40054ab4     LIBCMTD:getqloc.obj
 0002:00007abc       ??_C@_06EDDDIONA@German?$AA@ 40054abc     LIBCMTD:getqloc.obj
 0002:00007ac4       ??_C@_07LIIIOFOA@Belgium?$AA@ 40054ac4     LIBCMTD:getqloc.obj
 0002:00007acc       ??_C@_06DIAOLLEH@Mexico?$AA@ 40054acc     LIBCMTD:getqloc.obj
 0002:00007ad4       ??_C@_07PFALJOGE@Spanish?$AA@ 40054ad4     LIBCMTD:getqloc.obj
 0002:00007adc       ??_C@_06FFOOPAJB@Basque?$AA@ 40054adc     LIBCMTD:getqloc.obj
 0002:00007ae4       ??_C@_06DGHNDJFJ@Sweden?$AA@ 40054ae4     LIBCMTD:getqloc.obj
 0002:00007aec       ??_C@_07OBINPKFN@Swedish?$AA@ 40054aec     LIBCMTD:getqloc.obj
 0002:00007af4       ??_C@_07NCOIHDGC@Iceland?$AA@ 40054af4     LIBCMTD:getqloc.obj
 0002:00007afc       ??_C@_09JHBBDDIA@Icelandic?$AA@ 40054afc     LIBCMTD:getqloc.obj
 0002:00007b08       ??_C@_06COBCPIFO@France?$AA@ 40054b08     LIBCMTD:getqloc.obj
 0002:00007b10       ??_C@_06GODMCAND@French?$AA@ 40054b10     LIBCMTD:getqloc.obj
 0002:00007b18       ??_C@_07MFHPMOED@Finland?$AA@ 40054b18     LIBCMTD:getqloc.obj
 0002:00007b20       ??_C@_07MCEAMKOD@Finnish?$AA@ 40054b20     LIBCMTD:getqloc.obj
 0002:00007b28       ??_C@_05CBHOCCK@Spain?$AA@ 40054b28     LIBCMTD:getqloc.obj
 0002:00007b30       ??_C@_0BL@GIOEGDHB@Spanish?5?9?5Traditional?5Sort?$AA@ 40054b30     LIBCMTD:getqloc.obj
 0002:00007b4c       ___rglangidNotDefault      40054b4c     LIBCMTD:getqloc.obj
 0002:00007b60       ___rg_country              40054b60     LIBCMTD:getqloc.obj
 0002:00007c18       ??_C@_0O@FMJNFNKE@united?9states?$AA@ 40054c18     LIBCMTD:getqloc.obj
 0002:00007c28       ??_C@_0P@NDHFFKCA@united?9kingdom?$AA@ 40054c28     LIBCMTD:getqloc.obj
 0002:00007c38       ??_C@_0BC@HHDADLGF@trinidad?5?$CG?5tobago?$AA@ 40054c38     LIBCMTD:getqloc.obj
 0002:00007c4c       ??_C@_0M@IOAEBDAC@south?9korea?$AA@ 40054c4c     LIBCMTD:getqloc.obj
 0002:00007c58       ??_C@_0N@FIELFKIJ@south?9africa?$AA@ 40054c58     LIBCMTD:getqloc.obj
 0002:00007c68       ??_C@_0M@OPNDHCMC@south?5korea?$AA@ 40054c68     LIBCMTD:getqloc.obj
 0002:00007c74       ??_C@_0N@MDEOEPFI@south?5africa?$AA@ 40054c74     LIBCMTD:getqloc.obj
 0002:00007c84       ??_C@_06FKAPCJLB@slovak?$AA@ 40054c84     LIBCMTD:getqloc.obj
 0002:00007c8c       ??_C@_0M@EFJANOAL@puerto?9rico?$AA@ 40054c8c     LIBCMTD:getqloc.obj
 0002:00007c98       ??_C@_08PGOJKDAI@pr?9china?$AA@ 40054c98     LIBCMTD:getqloc.obj
 0002:00007ca4       ??_C@_08JHDOMCMI@pr?5china?$AA@ 40054ca4     LIBCMTD:getqloc.obj
 0002:00007cb0       ??_C@_02JHCHFBLL@nz?$AA@   40054cb0     LIBCMTD:getqloc.obj
 0002:00007cb4       ??_C@_0M@LINHDHKP@new?9zealand?$AA@ 40054cb4     LIBCMTD:getqloc.obj
 0002:00007cc0       ??_C@_09IIIPPBDB@hong?9kong?$AA@ 40054cc0     LIBCMTD:getqloc.obj
 0002:00007ccc       ??_C@_07HJLCKBG@holland?$AA@ 40054ccc     LIBCMTD:getqloc.obj
 0002:00007cd4       ??_C@_0O@LEHGMHAG@great?5britain?$AA@ 40054cd4     LIBCMTD:getqloc.obj
 0002:00007ce4       ??_C@_07FACOMELA@england?$AA@ 40054ce4     LIBCMTD:getqloc.obj
 0002:00007cec       ??_C@_05JIHCEICB@czech?$AA@ 40054cec     LIBCMTD:getqloc.obj
 0002:00007cf4       ??_C@_05BBJOBLGB@china?$AA@ 40054cf4     LIBCMTD:getqloc.obj
 0002:00007cfc       ??_C@_07GPKPHICP@britain?$AA@ 40054cfc     LIBCMTD:getqloc.obj
 0002:00007d04       ??_C@_07MHIPBHMG@america?$AA@ 40054d04     LIBCMTD:getqloc.obj
 0002:00007d10       ___rg_language             40054d10     LIBCMTD:getqloc.obj
 0002:00007f18       ??_C@_03KIALPMKC@usa?$AA@  40054f18     LIBCMTD:getqloc.obj
 0002:00007f1c       ??_C@_02FGJGKGGD@us?$AA@   40054f1c     LIBCMTD:getqloc.obj
 0002:00007f20       ??_C@_02NEINDODK@uk?$AA@   40054f20     LIBCMTD:getqloc.obj
 0002:00007f24       ??_C@_05JMPCFJFJ@swiss?$AA@ 40054f24     LIBCMTD:getqloc.obj
 0002:00007f2c       ??_C@_0BA@HLOCPIOD@swedish?9finland?$AA@ 40054f2c     LIBCMTD:getqloc.obj
 0002:00007f3c       ??_C@_0BC@PKCNIABK@spanish?9venezuela?$AA@ 40054f3c     LIBCMTD:getqloc.obj
 0002:00007f50       ??_C@_0BA@GBHHMIJI@spanish?9uruguay?$AA@ 40054f50     LIBCMTD:getqloc.obj
 0002:00007f60       ??_C@_0BE@BHDOHPMC@spanish?9puerto?5rico?$AA@ 40054f60     LIBCMTD:getqloc.obj
 0002:00007f74       ??_C@_0N@KMOIDGGN@spanish?9peru?$AA@ 40054f74     LIBCMTD:getqloc.obj
 0002:00007f84       ??_C@_0BB@HMHLPGPH@spanish?9paraguay?$AA@ 40054f84     LIBCMTD:getqloc.obj
 0002:00007f98       ??_C@_0P@MCPKNGFD@spanish?9panama?$AA@ 40054f98     LIBCMTD:getqloc.obj
 0002:00007fa8       ??_C@_0BC@IHOHGAIL@spanish?9nicaragua?$AA@ 40054fa8     LIBCMTD:getqloc.obj
 0002:00007fbc       ??_C@_0P@KLMJDNFJ@spanish?9modern?$AA@ 40054fbc     LIBCMTD:getqloc.obj
 0002:00007fcc       ??_C@_0BA@BPAPGBCM@spanish?9mexican?$AA@ 40054fcc     LIBCMTD:getqloc.obj
 0002:00007fdc       ??_C@_0BB@PDECHHHE@spanish?9honduras?$AA@ 40054fdc     LIBCMTD:getqloc.obj
 0002:00007ff0       ??_C@_0BC@KLHKFGDB@spanish?9guatemala?$AA@ 40054ff0     LIBCMTD:getqloc.obj
 0002:00008004       ??_C@_0BE@MFOOKJAI@spanish?9el?5salvador?$AA@ 40055004     LIBCMTD:getqloc.obj
 0002:00008018       ??_C@_0BA@FCOKFPFC@spanish?9ecuador?$AA@ 40055018     LIBCMTD:getqloc.obj
 0002:00008028       ??_C@_0BL@PLMGIMOO@spanish?9dominican?5republic?$AA@ 40055028     LIBCMTD:getqloc.obj
 0002:00008044       ??_C@_0BD@HLGDNMHB@spanish?9costa?5rica?$AA@ 40055044     LIBCMTD:getqloc.obj
 0002:00008058       ??_C@_0BB@PKCBKCPE@spanish?9colombia?$AA@ 40055058     LIBCMTD:getqloc.obj
 0002:0000806c       ??_C@_0O@MCBIJGNE@spanish?9chile?$AA@ 4005506c     LIBCMTD:getqloc.obj
 0002:0000807c       ??_C@_0BA@BEFEIGJJ@spanish?9bolivia?$AA@ 4005507c     LIBCMTD:getqloc.obj
 0002:0000808c       ??_C@_0BC@EMECMPD@spanish?9argentina?$AA@ 4005508c     LIBCMTD:getqloc.obj
 0002:000080a0       ??_C@_0BF@EALFLENP@portuguese?9brazilian?$AA@ 400550a0     LIBCMTD:getqloc.obj
 0002:000080b8       ??_C@_0BC@HBLEBLNN@norwegian?9nynorsk?$AA@ 400550b8     LIBCMTD:getqloc.obj
 0002:000080cc       ??_C@_0BB@HMACDDCK@norwegian?9bokmal?$AA@ 400550cc     LIBCMTD:getqloc.obj
 0002:000080e0       ??_C@_09BAFFPPHE@norwegian?$AA@ 400550e0     LIBCMTD:getqloc.obj
 0002:000080ec       ??_C@_0O@EAJFJDFG@italian?9swiss?$AA@ 400550ec     LIBCMTD:getqloc.obj
 0002:000080fc       ??_C@_0O@CNOMPGD@irish?9english?$AA@ 400550fc     LIBCMTD:getqloc.obj
 0002:0000810c       ??_C@_0N@EDHBGCKG@german?9swiss?$AA@ 4005510c     LIBCMTD:getqloc.obj
 0002:0000811c       ??_C@_0BC@JACMHNBP@german?9luxembourg?$AA@ 4005511c     LIBCMTD:getqloc.obj
 0002:00008130       ??_C@_0BE@HBGMGFEG@german?9lichtenstein?$AA@ 40055130     LIBCMTD:getqloc.obj
 0002:00008144       ??_C@_0BA@HKKBIBKL@german?9austrian?$AA@ 40055144     LIBCMTD:getqloc.obj
 0002:00008154       ??_C@_0N@GCAEPEBK@french?9swiss?$AA@ 40055154     LIBCMTD:getqloc.obj
 0002:00008164       ??_C@_0BC@DJFJJCK@french?9luxembourg?$AA@ 40055164     LIBCMTD:getqloc.obj
 0002:00008178       ??_C@_0BA@NNCEDFIC@french?9canadian?$AA@ 40055178     LIBCMTD:getqloc.obj
 0002:00008188       ??_C@_0P@CMPOCLM@french?9belgian?$AA@ 40055188     LIBCMTD:getqloc.obj
 0002:00008198       ??_C@_0M@GHHDJOK@english?9usa?$AA@ 40055198     LIBCMTD:getqloc.obj
 0002:000081a4       ??_C@_0L@PLDJKEIL@english?9us?$AA@ 400551a4     LIBCMTD:getqloc.obj
 0002:000081b0       ??_C@_0L@HJCCDMNC@english?9uk?$AA@ 400551b0     LIBCMTD:getqloc.obj
 0002:000081bc       ??_C@_0BK@CKLIAGJB@english?9trinidad?5y?5tobago?$AA@ 400551bc     LIBCMTD:getqloc.obj
 0002:000081d8       ??_C@_0BF@JMJMGNNF@english?9south?5africa?$AA@ 400551d8     LIBCMTD:getqloc.obj
 0002:000081f0       ??_C@_0L@DKIIFDFD@english?9nz?$AA@ 400551f0     LIBCMTD:getqloc.obj
 0002:000081fc       ??_C@_0BA@ONHGJCLH@english?9jamaica?$AA@ 400551fc     LIBCMTD:getqloc.obj
 0002:0000820c       ??_C@_0M@HJBGHOPO@english?9ire?$AA@ 4005520c     LIBCMTD:getqloc.obj
 0002:00008218       ??_C@_0BC@LFEKMIFB@english?9caribbean?$AA@ 40055218     LIBCMTD:getqloc.obj
 0002:0000822c       ??_C@_0M@OLDPFKHI@english?9can?$AA@ 4005522c     LIBCMTD:getqloc.obj
 0002:00008238       ??_C@_0P@OMDEHBMP@english?9belize?$AA@ 40055238     LIBCMTD:getqloc.obj
 0002:00008248       ??_C@_0M@KFHFPFED@english?9aus?$AA@ 40055248     LIBCMTD:getqloc.obj
 0002:00008254       ??_C@_0BB@MNMBKDFE@english?9american?$AA@ 40055254     LIBCMTD:getqloc.obj
 0002:00008268       ??_C@_0O@KIDLNNBA@dutch?9belgian?$AA@ 40055268     LIBCMTD:getqloc.obj
 0002:00008278       ??_C@_0BE@JBKABBMH@chinese?9traditional?$AA@ 40055278     LIBCMTD:getqloc.obj
 0002:0000828c       ??_C@_0BC@MJJMPKCG@chinese?9singapore?$AA@ 4005528c     LIBCMTD:getqloc.obj
 0002:000082a0       ??_C@_0BD@FDKADDCP@chinese?9simplified?$AA@ 400552a0     LIBCMTD:getqloc.obj
 0002:000082b4       ??_C@_0BB@DBEFDDME@chinese?9hongkong?$AA@ 400552b4     LIBCMTD:getqloc.obj
 0002:000082c8       ??_C@_07DHNMFMCI@chinese?$AA@ 400552c8     LIBCMTD:getqloc.obj
 0002:000082d0       ??_C@_03FNDDCHI@chi?$AA@   400552d0     LIBCMTD:getqloc.obj
 0002:000082d4       ??_C@_03BMMIADDJ@chh?$AA@  400552d4     LIBCMTD:getqloc.obj
 0002:000082d8       ??_C@_08OAIPJDGI@canadian?$AA@ 400552d8     LIBCMTD:getqloc.obj
 0002:000082e4       ??_C@_07HBPMNPNJ@belgian?$AA@ 400552e4     LIBCMTD:getqloc.obj
 0002:000082ec       ??_C@_0L@OEKOPBEL@australian?$AA@ 400552ec     LIBCMTD:getqloc.obj
 0002:000082f8       ??_C@_0BB@MEIMBEDG@american?9english?$AA@ 400552f8     LIBCMTD:getqloc.obj
 0002:0000830c       ??_C@_0BB@DFMDPDGB@american?5english?$AA@ 4005530c     LIBCMTD:getqloc.obj
 0002:00008320       ??_C@_08IJLOKOLL@american?$AA@ 40055320     LIBCMTD:getqloc.obj
 0002:0000832c       ??_C@_0BC@NFIEMBLL@Norwegian?9Nynorsk?$AA@ 4005532c     LIBCMTD:getqloc.obj
 0002:00008340       ??_C@_03NFKLAGEF@OCP?$AA@  40055340     LIBCMTD:getqloc.obj
 0002:00008344       ??_C@_03DFHEHBHG@ACP?$AA@  40055344     LIBCMTD:getqloc.obj
 0002:00008354       ??_C@_09KJLOAKHC@mbctype?4c?$AA@ 40055354     LIBCMTD:mbctype.obj
 0002:0000836c       ??_C@_0L@KBNGFDKM@convrtcp?4c?$AA@ 4005536c     LIBCMTD:convrtcp.obj
 0002:000083d4       ??_C@_09FNBBCGGI@sprintf?4c?$AA@ 400553d4     LIBCMTD:sprintf.obj
 0002:000083e0       ??_C@_0CG@PKBDLMEO@InitializeCriticalSectionAndSpin@ 400553e0     LIBCMTD:initcrit.obj
 0002:00008414       ??_C@_06IMKFLFPG@1?$CDQNAN?$AA@ 40055414     LIBCMTD:x10fout.obj
 0002:0000841c       ??_C@_05DNEBIAHO@1?$CDINF?$AA@ 4005541c     LIBCMTD:x10fout.obj
 0002:00008424       ??_C@_05PHHOCPM@1?$CDIND?$AA@ 40055424     LIBCMTD:x10fout.obj
 0002:0000842c       ??_C@_06PGGFOGJG@1?$CDSNAN?$AA@ 4005542c     LIBCMTD:x10fout.obj
 0002:00008434       ??_C@_09MGNHMPHC@osfinfo?4c?$AA@ 40055434     LIBCMTD:osfinfo.obj
 0002:00008484       ??_C@_08BDNGOBJJ@fclose?4c?$AA@ 40055484     LIBCMTD:fclose.obj
 0002:0000849c       ___dnames                  4005549c     LIBCMTD:timeset.obj
 0002:000084b4       ___mnames                  400554b4     LIBCMTD:timeset.obj
 0002:000084fc       ??_C@_07LOOFNDIO@tzset?4c?$AA@ 400554fc     LIBCMTD:tzset.obj
 0002:00008504       ??_C@_02CLFPBFFP@TZ?$AA@   40055504     LIBCMTD:tzset.obj
 0002:00008524       ??_C@_0L@DILIPMN@inithelp?4c?$AA@ 40055524     LIBCMTD:inithelp.obj
 0002:0000854c       ??_C@_07NIBBAFJP@w_loc?4c?$AA@ 4005554c     LIBCMTD:w_loc.obj
 0002:00008564       ??_C@_07GCMFDNDD@a_loc?4c?$AA@ 40055564     LIBCMTD:a_loc.obj
 0002:0000857c       ??_C@_0L@CELCHBFJ@wtombenv?4c?$AA@ 4005557c     LIBCMTD:wtombenv.obj
 0002:00008588       ??_C@_07KLPPCEPH@a_cmp?4c?$AA@ 40055588     LIBCMTD:a_cmp.obj
 0002:00008590       ??_C@_0DN@NFIMOOFE@cchCount1?$DN?$DN0?5?$CG?$CG?5cchCount2?$DN?$DN1?5?$HM?$HM?5@ 40055590     LIBCMTD:a_cmp.obj
 0002:000085e8       ??_C@_08BMJILFKN@setenv?4c?$AA@ 400555e8     LIBCMTD:setenv.obj
 0002:000085f4       ??_C@_05MAJJAKPI@FALSE?$AA@ 400555f4     LIBCMTD:setenv.obj
 0002:0000863c       ___rtc_iaa                 4005563c     LIBCMTD:initsect.obj
 0002:000086e8       ___rtc_izz                 400556e8     LIBCMTD:initsect.obj
 0002:000086ec       ___rtc_taa                 400556ec     LIBCMTD:initsect.obj
 0002:00008798       ___rtc_tzz                 40055798     LIBCMTD:initsect.obj
 0002:0000879c       __IMPORT_DESCRIPTOR_KERNEL32 4005579c     kernel32:KERNEL32.dll
 0002:000087b0       __NULL_IMPORT_DESCRIPTOR   400557b0     kernel32:KERNEL32.dll
 0003:00000000       ___xc_a                    40056000     LIBCMTD:crt0init.obj
 0003:00000008       ___xc_z                    40056008     LIBCMTD:crt0init.obj
 0003:0000000c       ___xi_a                    4005600c     LIBCMTD:crt0init.obj
 0003:0000001c       ___xi_z                    4005601c     LIBCMTD:crt0init.obj
 0003:00000020       ___xp_a                    40056020     LIBCMTD:crt0init.obj
 0003:00000028       ___xp_z                    40056028     LIBCMTD:crt0init.obj
 0003:0000002c       ___xt_a                    4005602c     LIBCMTD:crt0init.obj
 0003:00000030       ___xt_z                    40056030     LIBCMTD:crt0init.obj
 0003:00000040       _bg_itemlist               40056040     bg_misc.obj
 0003:000007c4       _bg_numItems               400567c4     bg_misc.obj
 0003:000007c8       _eventnames                400567c8     bg_misc.obj
 0003:000008f8       _axisDefault               400568f8     q_math.obj
 0003:0000091c       _colorBlack                4005691c     q_math.obj
 0003:0000092c       _colorRed                  4005692c     q_math.obj
 0003:0000093c       _colorGreen                4005693c     q_math.obj
 0003:0000094c       _colorBlue                 4005694c     q_math.obj
 0003:0000095c       _colorYellow               4005695c     q_math.obj
 0003:0000096c       _colorMagenta              4005696c     q_math.obj
 0003:0000097c       _colorCyan                 4005697c     q_math.obj
 0003:0000098c       _colorWhite                4005698c     q_math.obj
 0003:0000099c       _colorLtGrey               4005699c     q_math.obj
 0003:000009ac       _colorMdGrey               400569ac     q_math.obj
 0003:000009bc       _colorDkGrey               400569bc     q_math.obj
 0003:000009d0       _g_color_table             400569d0     q_math.obj
 0003:00000a50       _bytedirs                  40056a50     q_math.obj
 0003:000011e8       ?__LINE__Var@?1??ProjectPointOnPlane@@9@9 400571e8     q_math.obj
 0003:00001978       _passwordNeeded            40057978     ui_connect.obj
 0003:00002338       _menu_text_color           40058338     ui_qmenu.obj
 0003:00002348       _menu_dim_color            40058348     ui_qmenu.obj
 0003:00002358       _color_black               40058358     ui_qmenu.obj
 0003:00002368       _color_white               40058368     ui_qmenu.obj
 0003:00002378       _color_yellow              40058378     ui_qmenu.obj
 0003:00002388       _color_blue                40058388     ui_qmenu.obj
 0003:00002398       _color_lightOrange         40058398     ui_qmenu.obj
 0003:000023a8       _color_orange              400583a8     ui_qmenu.obj
 0003:000023b8       _color_red                 400583b8     ui_qmenu.obj
 0003:000023c8       _color_dim                 400583c8     ui_qmenu.obj
 0003:000023d8       _pulse_color               400583d8     ui_qmenu.obj
 0003:000023e8       _text_color_disabled       400583e8     ui_qmenu.obj
 0003:000023f8       _text_color_normal         400583f8     ui_qmenu.obj
 0003:00002408       _text_color_highlight      40058408     ui_qmenu.obj
 0003:00002418       _listbar_color             40058418     ui_qmenu.obj
 0003:00002428       _text_color_status         40058428     ui_qmenu.obj
 0003:00002510       _punkbuster_items          40058510     ui_servers2.obj
 0003:0000251c       _punkbuster_msg            4005851c     ui_servers2.obj
 0003:00002558       _ui_medalNames             40058558     ui_sppostgame.obj
 0003:00002570       _ui_medalPicNames          40058570     ui_sppostgame.obj
 0003:00002588       _ui_medalSounds            40058588     ui_sppostgame.obj
 0003:00002844       __fltused                  40058844     LIBCMTD:fpinit.obj
 0003:00002848       __ldused                   40058848     LIBCMTD:fpinit.obj
 0003:0000284c       __FPinit                   4005884c     LIBCMTD:fpinit.obj
 0003:00002850       __FPmtinit                 40058850     LIBCMTD:fpinit.obj
 0003:00002854       __FPmtterm                 40058854     LIBCMTD:fpinit.obj
 0003:000028d4       __aexit_rtn                400588d4     LIBCMTD:dllcrt0.obj
 0003:000028e8       ?_RTC_ErrorLevels@@3PAHA   400588e8     LIBCMTD:error.obj
 0003:0000290c       __cfltcvt_tab              4005890c     LIBCMTD:cmiscdat.obj
 0003:00002930       __indefinite               40058930     LIBCMTD:87disp.obj
 0003:0000293a       __piby2                    4005893a     LIBCMTD:87disp.obj
 0003:00002a48       __d_inf                    40058a48     LIBCMTD:util.obj
 0003:00002a50       __d_ind                    40058a50     LIBCMTD:util.obj
 0003:00002a58       __d_max                    40058a58     LIBCMTD:util.obj
 0003:00002a60       __d_min                    40058a60     LIBCMTD:util.obj
 0003:00002a68       __d_mzero                  40058a68     LIBCMTD:util.obj
 0003:00002a90       __OP_ATAN2jmptab           40058a90     LIBCMTD:87triga.obj
 0003:00002ae0       __iob                      40058ae0     LIBCMTD:_file.obj
 0003:00002d60       ___security_cookie         40058d60     LIBCMTD:seccook.obj
 0003:00002d64       ___nullstring              40058d64     LIBCMTD:output.obj
 0003:00002d68       ___wnullstring             40058d68     LIBCMTD:output.obj
 0003:00002d6c       __crtAssertBusy            40058d6c     LIBCMTD:dbgrpt.obj
 0003:00002d70       __CrtDbgMode               40058d70     LIBCMTD:dbgrpt.obj
 0003:00002d7c       __CrtDbgFile               40058d7c     LIBCMTD:dbgrpt.obj
 0003:00002da0       ___initiallocinfo          40058da0     LIBCMTD:setlocal.obj
 0003:00002df4       ___ptlocinfo               40058df4     LIBCMTD:setlocal.obj
 0003:00002f30       ___lc_category             40058f30     LIBCMTD:setlocal.obj
 0003:00002f78       ___tlsindex                40058f78     LIBCMTD:tidtable.obj
 0003:00002f80       __crtDbgFlag               40058f80     LIBCMTD:dbgheap.obj
 0003:00002f88       __crtBreakAlloc            40058f88     LIBCMTD:dbgheap.obj
 0003:00002fa4       ___badioinfo               40058fa4     LIBCMTD:ioinit.obj
 0003:00002fc8       __amblksiz                 40058fc8     LIBCMTD:heapinit.obj
 0003:00002fd0       __XcptActTab               40058fd0     LIBCMTD:winxfltr.obj
 0003:00003048       __First_FPE_Indx           40059048     LIBCMTD:winxfltr.obj
 0003:0000304c       __Num_FPE                  4005904c     LIBCMTD:winxfltr.obj
 0003:00003050       __XcptActTabSize           40059050     LIBCMTD:winxfltr.obj
 0003:00003054       __XcptActTabCount          40059054     LIBCMTD:winxfltr.obj
 0003:00003058       __NLG_Destination          40059058     LIBCMTD:exsup.obj
 0003:00003104       ___mb_cur_max              40059104     LIBCMTD:nlsdata1.obj
 0003:00003108       ___decimal_point           40059108     LIBCMTD:nlsdata1.obj
 0003:0000310c       ___decimal_point_length    4005910c     LIBCMTD:nlsdata1.obj
 0003:000032a8       __matherr_flag             400592a8     LIBCMTD:matherr.obj
 0003:000033d0       __pctype                   400593d0     LIBCMTD:ctype.obj
 0003:000033d4       __pwctype                  400593d4     LIBCMTD:ctype.obj
 0003:000033d8       ___lc_time_curr            400593d8     LIBCMTD:strftime.obj
 0003:000033e0       ___lc_time_c               400593e0     LIBCMTD:strftime.obj
 0003:00003498       ___lconv_static_decimal    40059498     LIBCMTD:lconv.obj
 0003:0000349c       ___lconv_c                 4005949c     LIBCMTD:lconv.obj
 0003:000034cc       ___lconv                   400594cc     LIBCMTD:lconv.obj
 0003:000034d0       ___lc_clike                400594d0     LIBCMTD:nlsdata2.obj
 0003:000035d8       __pfnAllocHook             400595d8     LIBCMTD:dbghook.obj
 0003:000035e0       __timezone                 400595e0     LIBCMTD:timeset.obj
 0003:000035e4       __daylight                 400595e4     LIBCMTD:timeset.obj
 0003:000035e8       __dstbias                  400595e8     LIBCMTD:timeset.obj
 0003:00003670       __tzname                   40059670     LIBCMTD:timeset.obj
 0003:00003690       __pow10pos                 40059690     LIBCMTD:constpow.obj
 0003:000037f0       __pow10neg                 400597f0     LIBCMTD:constpow.obj
 0003:0000394c       __lpdays                   4005994c     LIBCMTD:days.obj
 0003:00003980       __days                     40059980     LIBCMTD:days.obj
 0003:000039fc       _vec3_origin               400599fc     q_math.obj
 0003:0006ba00       ___fastflag                400c1a00     LIBCMTD:fpinit.obj
 0003:0006ba04       __adjust_fdiv              400c1a04     LIBCMTD:fpinit.obj
 0003:0006ba0c       __aenvptr                  400c1a0c     LIBCMTD:dllcrt0.obj
 0003:0006ba10       __wenvptr                  400c1a10     LIBCMTD:dllcrt0.obj
 0003:0006ba14       ___error_mode              400c1a14     LIBCMTD:dllcrt0.obj
 0003:0006ba18       ___app_type                400c1a18     LIBCMTD:dllcrt0.obj
 0003:0006ba38       __umaskval                 400c1a38     LIBCMTD:crt0dat.obj
 0003:0006ba3c       __osplatform               400c1a3c     LIBCMTD:crt0dat.obj
 0003:0006ba40       __osver                    400c1a40     LIBCMTD:crt0dat.obj
 0003:0006ba44       __winver                   400c1a44     LIBCMTD:crt0dat.obj
 0003:0006ba48       __winmajor                 400c1a48     LIBCMTD:crt0dat.obj
 0003:0006ba4c       __winminor                 400c1a4c     LIBCMTD:crt0dat.obj
 0003:0006ba50       ___argc                    400c1a50     LIBCMTD:crt0dat.obj
 0003:0006ba54       ___argv                    400c1a54     LIBCMTD:crt0dat.obj
 0003:0006ba58       ___wargv                   400c1a58     LIBCMTD:crt0dat.obj
 0003:0006ba5c       __environ                  400c1a5c     LIBCMTD:crt0dat.obj
 0003:0006ba60       ___initenv                 400c1a60     LIBCMTD:crt0dat.obj
 0003:0006ba64       __wenviron                 400c1a64     LIBCMTD:crt0dat.obj
 0003:0006ba68       ___winitenv                400c1a68     LIBCMTD:crt0dat.obj
 0003:0006ba6c       __pgmptr                   400c1a6c     LIBCMTD:crt0dat.obj
 0003:0006ba70       __wpgmptr                  400c1a70     LIBCMTD:crt0dat.obj
 0003:0006ba74       __exitflag                 400c1a74     LIBCMTD:crt0dat.obj
 0003:0006ba78       __C_Termination_Done       400c1a78     LIBCMTD:crt0dat.obj
 0003:0006ba7c       __C_Exit_Done              400c1a7c     LIBCMTD:crt0dat.obj
 0003:0006baac       __cflush                   400c1aac     LIBCMTD:_file.obj
 0003:0006bac0       _gpFlsAlloc                400c1ac0     LIBCMTD:tidtable.obj
 0003:0006bac4       _gpFlsGetValue             400c1ac4     LIBCMTD:tidtable.obj
 0003:0006bac8       _gpFlsSetValue             400c1ac8     LIBCMTD:tidtable.obj
 0003:0006bacc       _gpFlsFree                 400c1acc     LIBCMTD:tidtable.obj
 0003:0006bbfc       __adbgmsg                  400c1bfc     LIBCMTD:crt0msg.obj
 0003:0006bda0       __stdbuf                   400c1da0     LIBCMTD:_sftbuf.obj
 0003:0006bdac       ___lconv_static_null       400c1dac     LIBCMTD:lconv.obj
 0003:0006bdb0       ___lc_time_intl            400c1db0     LIBCMTD:inittime.obj
 0003:0006bdb4       ___lconv_intl              400c1db4     LIBCMTD:initmon.obj
 0003:0006bdb8       ___lc_handle               400c1db8     LIBCMTD:nlsdata2.obj
 0003:0006bdd0       ___lc_codepage             400c1dd0     LIBCMTD:nlsdata2.obj
 0003:0006bdd4       ___lc_collate_cp           400c1dd4     LIBCMTD:nlsdata2.obj
 0003:0006bddc       ___lc_id                   400c1ddc     LIBCMTD:nlsdata3.obj
 0003:0006be28       __newmode                  400c1e28     LIBCMTD:_newmode.obj
 0003:0006be2c       ?_pnhHeap@@3P6AHI@ZA       400c1e2c     LIBCMTD:handler.obj
 0003:0006bf54       _menu_in_sound             400c1f54     <common>
 0003:0006bf58       _menu_out_sound            400c1f58     <common>
 0003:0006bf5c       _menu_buzz_sound           400c1f5c     <common>
 0003:0006bf60       _menu_null_sound           400c1f60     <common>
 0003:0006bf64       _menu_move_sound           400c1f64     <common>
 0003:0006bf68       _weaponChangeSound         400c1f68     <common>
 0003:0006bf80       _ui_ctf_capturelimit       400c1f80     <common>
 0003:0006c0a0       _ui_server4                400c20a0     <common>
 0003:0006c1c0       _ui_spAwards               400c21c0     <common>
 0003:0006c2e0       _ui_spSkill                400c22e0     <common>
 0003:0006c400       _ui_ffa_timelimit          400c2400     <common>
 0003:0006c520       _ui_browserGameType        400c2520     <common>
 0003:0006c640       _ui_server2                400c2640     <common>
 0003:0006c760       _ui_marks                  400c2760     <common>
 0003:0006c880       _ui_spScores2              400c2880     <common>
 0003:0006c9a0       _ui_spVideos               400c29a0     <common>
 0003:0006cac0       _ui_spScores3              400c2ac0     <common>
 0003:0006cbe0       _ui_server7                400c2be0     <common>
 0003:0006cd00       _ui_server3                400c2d00     <common>
 0003:0006ce20       _ui_drawCrosshair          400c2e20     <common>
 0003:0006cf40       _ui_spSelection            400c2f40     <common>
 0003:0006d060       _ui_server14               400c3060     <common>
 0003:0006d180       _ui_server9                400c3180     <common>
 0003:0006d2a0       _ui_arenasFile             400c32a0     <common>
 0003:0006d3c0       _ui_server16               400c33c0     <common>
 0003:0006d4e0       _ui_server1                400c34e0     <common>
 0003:0006d600       _ui_browserSortKey         400c3600     <common>
 0003:0006d720       _ui_team_timelimit         400c3720     <common>
 0003:0006d840       _ui_server13               400c3840     <common>
 0003:0006d960       _ui_browserMaster          400c3960     <common>
 0003:0006da80       _ui_ffa_fraglimit          400c3a80     <common>
 0003:0006dba0       _ui_brassTime              400c3ba0     <common>
 0003:0006dcc0       _ui_spScores4              400c3cc0     <common>
 0003:0006dde0       _ui_browserShowEmpty       400c3de0     <common>
 0003:0006df00       _ui_team_friendly          400c3f00     <common>
 0003:0006e020       _ui_cdkeychecked           400c4020     <common>
 0003:0006e140       _ui_server15               400c4140     <common>
 0003:0006e260       _ui_ctf_friendly           400c4260     <common>
 0003:0006e380       _ui_spScores5              400c4380     <common>
 0003:0006e4a0       _ui_tourney_fraglimit      400c44a0     <common>
 0003:0006e5c0       _ui_server10               400c45c0     <common>
 0003:0006e6e0       _ui_server11               400c46e0     <common>
 0003:0006e800       _ui_browserShowFull        400c4800     <common>
 0003:0006e920       _ui_server8                400c4920     <common>
 0003:0006ea40       _ui_server5                400c4a40     <common>
 0003:0006eb60       _ui_botsFile               400c4b60     <common>
 0003:0006ec80       _ui_server12               400c4c80     <common>
 0003:0006eda0       _ui_tourney_timelimit      400c4da0     <common>
 0003:0006eec0       _ui_server6                400c4ec0     <common>
 0003:0006efe0       _ui_spScores1              400c4fe0     <common>
 0003:0006f100       _ui_drawCrosshairNames     400c5100     <common>
 0003:0006f220       _ui_team_fraglimit         400c5220     <common>
 0003:0006f340       _ui_ctf_timelimit          400c5340     <common>
 0003:0006f450       _ui_numBots                400c5450     <common>
 0003:0006f460       _passwordField             400c5460     <common>
 0003:0006f5ac       _m_entersound              400c55ac     <common>
 0003:0006f5c0       _uis                       400c55c0     <common>
 0003:00072278       ___sbh_initialized         400c8278     <common>
 0003:0007227c       ___sbh_pHeaderDefer        400c827c     <common>
 0003:00072280       ___sbh_cntHeaderList       400c8280     <common>
 0003:00072284       ___sbh_pHeaderList         400c8284     <common>
 0003:00072288       ___sbh_threshold           400c8288     <common>
 0003:0007228c       ___sbh_pHeaderScan         400c828c     <common>
 0003:00072290       ___sbh_sizeHeaderList      400c8290     <common>
 0003:00072294       ___sbh_indGroupDefer       400c8294     <common>
 0003:00072298       ___mblcid                  400c8298     <common>
 0003:0007229c       ___ptmbcinfo               400c829c     <common>
 0003:000722a0       ___ismbcodepage            400c82a0     <common>
 0003:000722c0       __mbctype                  400c82c0     <common>
 0003:000723c4       ___mbcodepage              400c83c4     <common>
 0003:000723d0       ___mbulinfo                400c83d0     <common>
 0003:000723e0       __mbcasemap                400c83e0     <common>
 0003:000724e0       ___ctype1                  400c84e0     <common>
 0003:000724e4       ___ctype1_refcount         400c84e4     <common>
 0003:000724e8       ___lconv_mon_refcount      400c84e8     <common>
 0003:000724ec       ___lconv_intl_refcount     400c84ec     <common>
 0003:000724f0       ___lconv_num_refcount      400c84f0     <common>
 0003:000724f4       __crtheap                  400c84f4     <common>
 0003:000724f8       ___active_heap             400c84f8     <common>
 0003:000724fc       __nhandle                  400c84fc     <common>
 0003:00072500       ___pioinfo                 400c8500     <common>
 0003:00072600       __pfnDumpClient            400c8600     <common>
 0003:00072604       ___setlc_active            400c8604     <common>
 0003:00072608       ___unguarded_readlc_active 400c8608     <common>
 0003:0007260c       __pfnReportHook            400c860c     <common>
 0003:00072610       __pReportHookList          400c8610     <common>
 0003:00072614       ___piob                    400c8614     <common>
 0003:00072620       __bufin                    400c8620     <common>
 0003:00073620       __nstream                  400c9620     <common>
 0003:00073624       ___env_initialized         400c9624     <common>
 0003:00073628       ___onexitend               400c9628     <common>
 0003:0007362c       ___onexitbegin             400c962c     <common>
 0003:00073630       ___mbctype_initialized     400c9630     <common>
 0003:00073634       __acmdln                   400c9634     <common>
 0003:00073638       __pRawDllMain              400c9638     <common>

 entry point at        0001:00030670

 Static symbols

 0001:00001920       _CrossProduct              40002920 f   q_math.obj
 0001:00002af0       _VectorLength              40003af0 f   q_math.obj
 0001:000040f0       _SkipWhitespace            400050f0 f   q_shared.obj
 0001:00005830       _UI_AddBotsMenu_Init       40006830 f   ui_addbots.obj
 0001:00005da0       _UI_AddBotsMenu_FightEvent 40006da0 f   ui_addbots.obj
 0001:00005e40       _UI_AddBotsMenu_BotEvent   40006e40 f   ui_addbots.obj
 0001:00005ea0       _UI_AddBotsMenu_BackEvent  40006ea0 f   ui_addbots.obj
 0001:00005ee0       _UI_AddBotsMenu_SetBotNames 40006ee0 f   ui_addbots.obj
 0001:00005f70       _UI_AddBotsMenu_UpEvent    40006f70 f   ui_addbots.obj
 0001:00005fd0       _UI_AddBotsMenu_DownEvent  40006fd0 f   ui_addbots.obj
 0001:00006030       _UI_AddBotsMenu_GetSortedBotNums 40007030 f   ui_addbots.obj
 0001:000060b0       _UI_AddBotsMenu_SortCompare 400070b0 f   ui_addbots.obj
 0001:00006150       _UI_AddBotsMenu_Draw       40007150 f   ui_addbots.obj
 0001:00006810       _UI_DrawBannerString2      40007810 f   ui_atoms.obj
 0001:00006d20       _UI_DrawProportionalString2 40007d20 f   ui_atoms.obj
 0001:00007310       _UI_DrawString2            40008310 f   ui_atoms.obj
 0001:000076e0       _NeedCDAction              400086e0 f   ui_atoms.obj
 0001:00007730       _NeedCDKeyAction           40008730 f   ui_atoms.obj
 0001:00008620       _UI_CDKeyMenu_Init         40009620 f   ui_cdkey.obj
 0001:000088c0       _UI_CDKeyMenu_Event        400098c0 f   ui_cdkey.obj
 0001:00008940       _UI_CDKeyMenu_DrawKey      40009940 f   ui_cdkey.obj
 0001:00008ad0       _UI_CDKeyMenu_PreValidateKey 40009ad0 f   ui_cdkey.obj
 0001:00008cd0       _UI_CinematicsMenu_Init    40009cd0 f   ui_cinematics.obj
 0001:00009420       _UI_CinematicsMenu_BackEvent 4000a420 f   ui_cinematics.obj
 0001:00009460       _UI_CinematicsMenu_Event   4000a460 f   ui_cinematics.obj
 0001:00009830       _ConfirmMenu_Event         4000a830 f   ui_confirm.obj
 0001:000098b0       _ConfirmMenu_Key           4000a8b0 f   ui_confirm.obj
 0001:000099c0       _ConfirmMenu_Draw          4000a9c0 f   ui_confirm.obj
 0001:00009c60       _MessageMenu_Draw          4000ac60 f   ui_confirm.obj
 0001:00009fe0       _UI_DisplayDownloadInfo    4000afe0 f   ui_connect.obj
 0001:0000a550       _UI_ReadableSize           4000b550 f   ui_connect.obj
 0001:0000a6d0       _UI_PrintTime              4000b6d0 f   ui_connect.obj
 0001:0000a8b0       _Controls_MenuInit         4000b8b0 f   ui_controls2.obj
 0001:0000b930       _Controls_InitCvars        4000c930 f   ui_controls2.obj
 0001:0000b9e0       _Controls_Update           4000c9e0 f   ui_controls2.obj
 0001:0000bd20       _Controls_DrawKeyBinding   4000cd20 f   ui_controls2.obj
 0001:0000c070       _Controls_StatusBar        4000d070 f   ui_controls2.obj
 0001:0000c0c0       _Controls_DrawPlayer       4000d0c0 f   ui_controls2.obj
 0001:0000c1c0       _Controls_UpdateModel      4000d1c0 f   ui_controls2.obj
 0001:0000c4e0       _Controls_GetConfig        4000d4e0 f   ui_controls2.obj
 0001:0000c6e0       _Controls_GetCvarValue     4000d6e0 f   ui_controls2.obj
 0001:0000c770       _Controls_GetKeyAssignment 4000d770 f   ui_controls2.obj
 0001:0000c860       _Controls_MenuKey          4000d860 f   ui_controls2.obj
 0001:0000cbc0       _Controls_SetConfig        4000dbc0 f   ui_controls2.obj
 0001:0000cd70       _Controls_MenuEvent        4000dd70 f   ui_controls2.obj
 0001:0000cf20       _Controls_ResetDefaults_Action 4000df20 f   ui_controls2.obj
 0001:0000cf70       _Controls_SetDefaults      4000df70 f   ui_controls2.obj
 0001:0000d0c0       _Controls_GetCvarDefault   4000e0c0 f   ui_controls2.obj
 0001:0000d150       _Controls_ResetDefaults_Draw 4000e150 f   ui_controls2.obj
 0001:0000d1c0       _Controls_ActionEvent      4000e1c0 f   ui_controls2.obj
 0001:0000d250       _Controls_InitModel        4000e250 f   ui_controls2.obj
 0001:0000d2c0       _Controls_InitWeapons      4000e2c0 f   ui_controls2.obj
 0001:0000d3b0       _UI_CreditMenu_Key         4000e3b0 f   ui_credits.obj
 0001:0000d410       _UI_CreditMenu_Draw        4000e410 f   ui_credits.obj
 0001:0000d8d0       _Demos_MenuInit            4000e8d0 f   ui_demo2.obj
 0001:0000de10       _Demos_MenuEvent           4000ee10 f   ui_demo2.obj
 0001:0000def0       _UI_DemosMenu_Key          4000eef0 f   ui_demo2.obj
 0001:0000e020       _UI_DisplayOptionsMenu_Init 4000f020 f   ui_display.obj
 0001:0000e4e0       _UI_DisplayOptionsMenu_Event 4000f4e0 f   ui_display.obj
 0001:0000f960       _UI_LoadArenas             40010960 f   ui_gameinfo.obj
 0001:0000fe70       _UI_LoadArenasFromFile     40010e70 f   ui_gameinfo.obj
 0001:0000ffc0       _UI_LoadBots               40010fc0 f   ui_gameinfo.obj
 0001:00010180       _UI_LoadBotsFromFile       40011180 f   ui_gameinfo.obj
 0001:000103f0       _InGame_RestartAction      400113f0 f   ui_ingame.obj
 0001:00010440       _InGame_QuitAction         40011440 f   ui_ingame.obj
 0001:00010f50       _MainMenu_ExitAction       40011f50 f   ui_menu.obj
 0001:00011590       _Main_MenuDraw             40012590 f   ui_menu.obj
 0001:000119b0       _UI_TeamArenaExists        400129b0 f   ui_menu.obj
 0001:000127e0       _UI_Mods_MenuInit          400137e0 f   ui_mods.obj
 0001:00012a90       _UI_Mods_MenuEvent         40013a90 f   ui_mods.obj
 0001:00012b20       _UI_Mods_LoadMods          40013b20 f   ui_mods.obj
 0001:00012cc0       _UI_Mods_ParseInfos        40013cc0 f   ui_mods.obj
 0001:00012e70       _UI_NetworkOptionsMenu_Init 40013e70 f   ui_network.obj
 0001:000132e0       _UI_NetworkOptionsMenu_Event 400142e0 f   ui_network.obj
 0001:000138a0       _Options_Event             400148a0 f   ui_options.obj
 0001:00013a30       _PlayerModel_BuildList     40014a30 f   ui_playermodel.obj
 0001:00013dd0       _PlayerModel_MenuInit      40014dd0 f   ui_playermodel.obj
 0001:000144d0       _PlayerModel_UpdateGrid    400154d0 f   ui_playermodel.obj
 0001:000146d0       _PlayerModel_UpdateModel   400156d0 f   ui_playermodel.obj
 0001:000147c0       _PlayerModel_MenuEvent     400157c0 f   ui_playermodel.obj
 0001:00014870       _PlayerModel_SaveChanges   40015870 f   ui_playermodel.obj
 0001:000148f0       _PlayerModel_MenuKey       400158f0 f   ui_playermodel.obj
 0001:00014b70       _PlayerModel_PicEvent      40015b70 f   ui_playermodel.obj
 0001:00014d60       _PlayerModel_DrawPlayer    40015d60 f   ui_playermodel.obj
 0001:00014e20       _PlayerModel_SetMenuItems  40015e20 f   ui_playermodel.obj
 0001:00015b10       _UI_PositionEntityOnTag    40016b10 f   ui_players.obj
 0001:00015c70       _UI_PositionRotatedEntityOnTag 40016c70 f   ui_players.obj
 0001:00015df0       _UI_PlayerAnimation        40016df0 f   ui_players.obj
 0001:00015f50       _UI_TorsoSequencing        40016f50 f   ui_players.obj
 0001:00016060       _UI_PlayerInfo_SetWeapon   40017060 f   ui_players.obj
 0001:00016460       _UI_ForceTorsoAnim         40017460 f   ui_players.obj
 0001:000164e0       _UI_SetTorsoAnim           400174e0 f   ui_players.obj
 0001:00016550       _UI_LegsSequencing         40017550 f   ui_players.obj
 0001:00016630       _UI_ForceLegsAnim          40017630 f   ui_players.obj
 0001:00016690       _UI_SetLegsAnim            40017690 f   ui_players.obj
 0001:00016700       _UI_RunLerpFrame           40017700 f   ui_players.obj
 0001:000168e0       _UI_SetLerpFrameAnimation  400178e0 f   ui_players.obj
 0001:00016980       _UI_PlayerAngles           40017980 f   ui_players.obj
 0001:00016c00       _UI_SwingAngles            40017c00 f   ui_players.obj
 0001:00016e00       _UI_MovedirAdjustment      40017e00 f   ui_players.obj
 0001:00017050       _UI_PlayerFloatSprite      40018050 f   ui_players.obj
 0001:000173e0       _UI_RegisterClientSkin     400183e0 f   ui_players.obj
 0001:000174f0       _UI_ParseAnimationFile     400184f0 f   ui_players.obj
 0001:00017ea0       _PlayerSettings_MenuInit   40018ea0 f   ui_playersettings.obj
 0001:00018340       _PlayerSettings_DrawName   40019340 f   ui_playersettings.obj
 0001:00018580       _PlayerSettings_DrawHandicap 40019580 f   ui_playersettings.obj
 0001:00018650       _PlayerSettings_DrawEffects 40019650 f   ui_playersettings.obj
 0001:00018790       _PlayerSettings_DrawPlayer 40019790 f   ui_playersettings.obj
 0001:000188d0       _PlayerSettings_MenuKey    400198d0 f   ui_playersettings.obj
 0001:00018930       _PlayerSettings_SaveChanges 40019930 f   ui_playersettings.obj
 0001:000189c0       _PlayerSettings_SetMenuItems 400199c0 f   ui_playersettings.obj
 0001:00018b30       _PlayerSettings_MenuEvent  40019b30 f   ui_playersettings.obj
 0001:00018ce0       _Preferences_MenuInit      40019ce0 f   ui_preferences.obj
 0001:00019330       _Preferences_SetMenuItems  4001a330 f   ui_preferences.obj
 0001:000195d0       _Preferences_Event         4001a5d0 f   ui_preferences.obj
 0001:00019800       _Crosshair_Draw            4001a800 f   ui_preferences.obj
 0001:0001a9c0       _Text_Init                 4001b9c0 f   ui_qmenu.obj
 0001:0001aa00       _BText_Init                4001ba00 f   ui_qmenu.obj
 0001:0001aa40       _PText_Init                4001ba40 f   ui_qmenu.obj
 0001:0001ab60       _Action_Init               4001bb60 f   ui_qmenu.obj
 0001:0001abf0       _RadioButton_Init          4001bbf0 f   ui_qmenu.obj
 0001:0001ac90       _Slider_Init               4001bc90 f   ui_qmenu.obj
 0001:0001ad30       _SpinControl_Init          4001bd30 f   ui_qmenu.obj
 0001:0001ae20       _ScrollList_Init           4001be20 f   ui_qmenu.obj
 0001:0001b4b0       _Text_Draw                 4001c4b0 f   ui_qmenu.obj
 0001:0001b5b0       _BText_Draw                4001c5b0 f   ui_qmenu.obj
 0001:0001b640       _PText_Draw                4001c640 f   ui_qmenu.obj
 0001:0001b710       _Action_Draw               4001c710 f   ui_qmenu.obj
 0001:0001b840       _RadioButton_Draw          4001c840 f   ui_qmenu.obj
 0001:0001ba60       _Slider_Draw               4001ca60 f   ui_qmenu.obj
 0001:0001bc70       _SpinControl_Draw          4001cc70 f   ui_qmenu.obj
 0001:0001c290       _RadioButton_Key           4001d290 f   ui_qmenu.obj
 0001:0001c410       _Slider_Key                4001d410 f   ui_qmenu.obj
 0001:0001c610       _SpinControl_Key           4001d610 f   ui_qmenu.obj
 0001:0001ca00       _UI_RemoveBotsMenu_Init    4001da00 f   ui_removebots.obj
 0001:0001ce80       _UI_RemoveBotsMenu_SetBotNames 4001de80 f   ui_removebots.obj
 0001:0001cf80       _UI_RemoveBotsMenu_DeleteEvent 4001df80 f   ui_removebots.obj
 0001:0001cff0       _UI_RemoveBotsMenu_BotEvent 4001dff0 f   ui_removebots.obj
 0001:0001d050       _UI_RemoveBotsMenu_BackEvent 4001e050 f   ui_removebots.obj
 0001:0001d090       _UI_RemoveBotsMenu_UpEvent 4001e090 f   ui_removebots.obj
 0001:0001d0f0       _UI_RemoveBotsMenu_DownEvent 4001e0f0 f   ui_removebots.obj
 0001:0001d150       _UI_RemoveBotsMenu_GetBots 4001e150 f   ui_removebots.obj
 0001:0001d7b0       _ServerInfo_Event          4001e7b0 f   ui_serverinfo.obj
 0001:0001d830       _ServerInfo_MenuDraw       4001e830 f   ui_serverinfo.obj
 0001:0001d980       _ServerInfo_MenuKey        4001e980 f   ui_serverinfo.obj
 0001:0001daf0       _ArenaServers_MaxPing      4001eaf0 f   ui_servers2.obj
 0001:0001db50       _ArenaServers_Insert       4001eb50 f   ui_servers2.obj
 0001:0001e180       _ArenaServers_Compare      4001f180 f   ui_servers2.obj
 0001:0001e4b0       _ArenaServers_UpdateMenu   4001f4b0 f   ui_servers2.obj
 0001:0001e9f0       _ArenaServers_UpdatePicture 4001f9f0 f   ui_servers2.obj
 0001:0001ea80       _ArenaServers_StartRefresh 4001fa80 f   ui_servers2.obj
 0001:0001ee70       _ArenaServers_MenuInit     4001fe70 f   ui_servers2.obj
 0001:0001f8f0       _ArenaServers_Event        400208f0 f   ui_servers2.obj
 0001:0001fb50       _ArenaServers_Go           40020b50 f   ui_servers2.obj
 0001:0001fbc0       _ArenaServers_Remove       40020bc0 f   ui_servers2.obj
 0001:0001fd60       _ArenaServers_StopRefresh  40020d60 f   ui_servers2.obj
 0001:0001fe00       _Punkbuster_ConfirmEnable  40020e00 f   ui_servers2.obj
 0001:0001fe70       _Punkbuster_ConfirmDisable 40020e70 f   ui_servers2.obj
 0001:0001fef0       _ArenaServers_MenuDraw     40020ef0 f   ui_servers2.obj
 0001:0001ff40       _ArenaServers_DoRefresh    40020f40 f   ui_servers2.obj
 0001:00020290       _ArenaServers_MenuKey      40021290 f   ui_servers2.obj
 0001:00020410       _UI_SetupMenu_Init         40021410 f   ui_setup.obj
 0001:000208d0       _UI_SetupMenu_Event        400218d0 f   ui_setup.obj
 0001:000209a0       _Setup_ResetDefaults_Action 400219a0 f   ui_setup.obj
 0001:00020a10       _Setup_ResetDefaults_Draw  40021a10 f   ui_setup.obj
 0001:00020b50       _UI_SoundOptionsMenu_Init  40021b50 f   ui_sound.obj
 0001:000210a0       _UI_SoundOptionsMenu_Event 400220a0 f   ui_sound.obj
 0001:00021650       _SpecifyServer_Event       40022650 f   ui_specifyserver.obj
 0001:00021ba0       _UI_SPLevelMenu_Init       40022ba0 f   ui_splevel.obj
 0001:00022440       _PlayerIcon                40023440 f   ui_splevel.obj
 0001:00022540       _UI_SPLevelMenu_SetMenuItems 40023540 f   ui_splevel.obj
 0001:000228d0       _UI_SPLevelMenu_SetBots    400238d0 f   ui_splevel.obj
 0001:00022ac0       _PlayerIconHandle          40023ac0 f   ui_splevel.obj
 0001:00022b40       _UI_SPLevelMenu_SetMenuArena 40023b40 f   ui_splevel.obj
 0001:00022d00       _UI_SPLevelMenu_ResetEvent 40023d00 f   ui_splevel.obj
 0001:00022d60       _UI_SPLevelMenu_ResetDraw  40023d60 f   ui_splevel.obj
 0001:00022e10       _UI_SPLevelMenu_ResetAction 40023e10 f   ui_splevel.obj
 0001:00022e70       _UI_SPLevelMenu_LevelEvent 40023e70 f   ui_splevel.obj
 0001:00022f30       _UI_SPLevelMenu_LeftArrowEvent 40023f30 f   ui_splevel.obj
 0001:00022f90       _UI_SPLevelMenu_RightArrowEvent 40023f90 f   ui_splevel.obj
 0001:00022ff0       _UI_SPLevelMenu_PlayerEvent 40023ff0 f   ui_splevel.obj
 0001:00023030       _UI_SPLevelMenu_AwardEvent 40024030 f   ui_splevel.obj
 0001:00023090       _UI_SPLevelMenu_NextEvent  40024090 f   ui_splevel.obj
 0001:00023100       _UI_SPLevelMenu_BackEvent  40024100 f   ui_splevel.obj
 0001:00023160       _UI_SPLevelMenu_CustomEvent 40024160 f   ui_splevel.obj
 0001:000231b0       _UI_SPLevelMenu_MenuDraw   400241b0 f   ui_splevel.obj
 0001:00024000       _UI_SPPostgameMenu_Init    40025000 f   ui_sppostgame.obj
 0001:000241d0       _UI_SPPostgameMenu_AgainEvent 400251d0 f   ui_sppostgame.obj
 0001:00024220       _UI_SPPostgameMenu_NextEvent 40025220 f   ui_sppostgame.obj
 0001:000242f0       _UI_SPPostgameMenu_MenuEvent 400252f0 f   ui_sppostgame.obj
 0001:00024340       _UI_SPPostgameMenu_MenuKey 40025340 f   ui_sppostgame.obj
 0001:00024420       _UI_SPPostgameMenu_MenuDraw 40025420 f   ui_sppostgame.obj
 0001:000247d0       _UI_SPPostgameMenu_DrawAwardsMedals 400257d0 f   ui_sppostgame.obj
 0001:00024910       _UI_SPPostgameMenu_DrawAwardsPresentation 40025910 f   ui_sppostgame.obj
 0001:00024a40       _UI_SPPostgameMenu_MenuDrawScoreLine 40025a40 f   ui_sppostgame.obj
 0001:00024bb0       _Prepname                  40025bb0 f   ui_sppostgame.obj
 0001:00024fd0       _Reset_MenuKey             40025fd0 f   ui_spreset.obj
 0001:000250e0       _Reset_MenuDraw            400260e0 f   ui_spreset.obj
 0001:00025360       _UI_SPSkillMenu_Init       40026360 f   ui_spskill.obj
 0001:00025830       _SetSkillColor             40026830 f   ui_spskill.obj
 0001:000258d0       _UI_SPSkillMenu_SkillEvent 400268d0 f   ui_spskill.obj
 0001:000259a0       _UI_SPSkillMenu_FightEvent 400269a0 f   ui_spskill.obj
 0001:000259f0       _UI_SPSkillMenu_BackEvent  400269f0 f   ui_spskill.obj
 0001:00025a40       _UI_SPSkillMenu_Key        40026a40 f   ui_spskill.obj
 0001:00025cb0       _GametypeBits              40026cb0 f   ui_startserver.obj
 0001:00025e50       _StartServer_MenuInit      40026e50 f   ui_startserver.obj
 0001:00026500       _StartServer_MapEvent      40027500 f   ui_startserver.obj
 0001:00026560       _StartServer_Update        40027560 f   ui_startserver.obj
 0001:000267c0       _StartServer_GametypeEvent 400277c0 f   ui_startserver.obj
 0001:00026930       _StartServer_MenuEvent     40027930 f   ui_startserver.obj
 0001:00026a30       _StartServer_LevelshotDraw 40027a30 f   ui_startserver.obj
 0001:00026cc0       _UI_ServerOptionsMenu      40027cc0 f   ui_startserver.obj
 0001:00026d10       _ServerOptions_MenuInit    40027d10 f   ui_startserver.obj
 0001:000276b0       _ServerOptions_Event       400286b0 f   ui_startserver.obj
 0001:00027770       _ServerOptions_Start       40028770 f   ui_startserver.obj
 0001:00027bd0       _ServerOptions_SetPlayerItems 40028bd0 f   ui_startserver.obj
 0001:00027d10       _ServerOptions_PlayerNameEvent 40028d10 f   ui_startserver.obj
 0001:00027d70       _ServerOptions_StatusBar   40028d70 f   ui_startserver.obj
 0001:00027dd0       _ServerOptions_LevelshotDraw 40028dd0 f   ui_startserver.obj
 0001:00027ef0       _ServerOptions_SetMenuItems 40028ef0 f   ui_startserver.obj
 0001:00028210       _ServerOptions_InitPlayerItems 40029210 f   ui_startserver.obj
 0001:000283a0       _ServerOptions_InitBotNames 400293a0 f   ui_startserver.obj
 0001:00028690       _PlayerName_Draw           40029690 f   ui_startserver.obj
 0001:00028920       _UI_BotSelectMenu_Init     40029920 f   ui_startserver.obj
 0001:00028ec0       _UI_BotSelectMenu_BuildList 40029ec0 f   ui_startserver.obj
 0001:00028f90       _UI_BotSelectMenu_SortCompare 40029f90 f   ui_startserver.obj
 0001:00029030       _UI_BotSelectMenu_UpdateGrid 4002a030 f   ui_startserver.obj
 0001:000292f0       _BotAlreadySelected        4002a2f0 f   ui_startserver.obj
 0001:000293a0       _ServerPlayerIcon          4002a3a0 f   ui_startserver.obj
 0001:000294a0       _UI_BotSelectMenu_Default  4002a4a0 f   ui_startserver.obj
 0001:00029590       _UI_BotSelectMenu_LeftEvent 4002a590 f   ui_startserver.obj
 0001:00029600       _UI_BotSelectMenu_RightEvent 4002a600 f   ui_startserver.obj
 0001:00029670       _UI_BotSelectMenu_BotEvent 4002a670 f   ui_startserver.obj
 0001:00029750       _UI_BotSelectMenu_BackEvent 4002a750 f   ui_startserver.obj
 0001:00029790       _UI_BotSelectMenu_SelectEvent 4002a790 f   ui_startserver.obj
 0001:0002b970       _TeamMain_MenuEvent        4002c970 f   ui_team.obj
 0001:0002bd90       _UI_TeamOrdersMenu_Init    4002cd90 f   ui_teamorders.obj
 0001:0002bf80       _UI_TeamOrdersMenu_BackEvent 4002cf80 f   ui_teamorders.obj
 0001:0002bfc0       _UI_TeamOrdersMenu_SetList 4002cfc0 f   ui_teamorders.obj
 0001:0002c070       _UI_TeamOrdersMenu_ListDraw 4002d070 f   ui_teamorders.obj
 0001:0002c150       _UI_TeamOrdersMenu_ListEvent 4002d150 f   ui_teamorders.obj
 0001:0002c290       _UI_TeamOrdersMenu_BuildBotList 4002d290 f   ui_teamorders.obj
 0001:0002c700       _GraphicsOptions_UpdateMenuItems 4002d700 f   ui_video.obj
 0001:0002c900       _GraphicsOptions_CheckConfig 4002d900 f   ui_video.obj
 0001:0002d2c0       _GraphicsOptions_GetInitialVideo 4002e2c0 f   ui_video.obj
 0001:0002d350       _GraphicsOptions_ApplyChanges 4002e350 f   ui_video.obj
 0001:0002d5f0       _GraphicsOptions_Event     4002e5f0 f   ui_video.obj
 0001:0002d760       _UI_DriverInfo_Menu        4002e760 f   ui_video.obj
 0001:0002da60       _DriverInfo_Event          4002ea60 f   ui_video.obj
 0001:0002dac0       _DriverInfo_MenuDraw       4002eac0 f   ui_video.obj
 0001:0002dca0       _GraphicsOptions_TQEvent   4002eca0 f   ui_video.obj
 0001:0002dcf0       _GraphicsOptions_SetMenuItems 4002ecf0 f   ui_video.obj
 0001:0002f7a0       _$$$00001                  400307a0 f   LIBCMTD:strchr.obj
 0001:0002fe80       _shortsort                 40030e80 f   LIBCMTD:qsort.obj
 0001:0002fef0       _swap                      40030ef0 f   LIBCMTD:qsort.obj
 0001:00030970       ?failwithmessage@@YAXPAXHHPBD@Z 40031970 f   LIBCMTD:error.obj
 0001:00030a60       ?DebuggerProbe@@YAHK@Z     40031a60 f   LIBCMTD:error.obj
 0001:00030ae0       ?DebuggerRuntime@@YAHKHPAXPB_W@Z 40031ae0 f   LIBCMTD:error.obj
 0001:00030d70       ?IntToString@@YAPADH@Z     40031d70 f   LIBCMTD:error.obj
 0001:00030f60       ?_IsDebuggerPresent@@YAHXZ 40031f60 f   LIBCMTD:error.obj
 0001:00030f90       ?Initialize@@YAHXZ         40031f90 f   LIBCMTD:error.obj
 0001:00031010       ?Win95IsDebuggerPresent@@YGHXZ 40032010 f   LIBCMTD:error.obj
 0001:00031020       ?WinGetDebugContext@@YAPAXXZ 40032020 f   LIBCMTD:error.obj
 0001:00031030       ?GetCurrentTib@@YAPAU_TIB@@XZ 40032030 f   LIBCMTD:error.obj
 0001:00031370       __cftoe2                   40032370 f   LIBCMTD:cvt.obj
 0001:00031560       __cftof2                   40032560 f   LIBCMTD:cvt.obj
 0001:00031800       __shift                    40032800 f   LIBCMTD:cvt.obj
 0001:00031923       _$$$00003                  40032923 f   LIBCMTD:87disp.obj
 0001:00032d70       __get_fname                40033d70 f   LIBCMTD:fpexcept.obj
 0001:00033170       _$$$00001                  40034170 f   LIBCMTD:87triga.obj
 0001:000335a0       _doexit                    400345a0 f   LIBCMTD:crt0dat.obj
 0001:00033740       __initterm                 40034740 f   LIBCMTD:crt0dat.obj
 0001:00033770       __initterm_e               40034770 f   LIBCMTD:crt0dat.obj
 0001:00033a20       _ctrlevent_capture@4       40034a20 f   LIBCMTD:winsig.obj
 0001:00033d50       _siglookup                 40034d50 f   LIBCMTD:winsig.obj
 0001:00033f90       _xtoa                      40034f90 f   LIBCMTD:xtoa.obj
 0001:00034110       _x64toa@20                 40035110 f   LIBCMTD:xtoa.obj
 0001:00034510       _flsall                    40035510 f   LIBCMTD:fflush.obj
 0001:00034b80       _report_failure            40035b80 f   LIBCMTD:secchk.obj
 0001:00035c20       _write_char                40036c20 f   LIBCMTD:output.obj
 0001:00035cc0       _write_multi_char          40036cc0 f   LIBCMTD:output.obj
 0001:00035d00       _write_string              40036d00 f   LIBCMTD:output.obj
 0001:00035d70       _get_int_arg               40036d70 f   LIBCMTD:output.obj
 0001:00035d90       _get_int64_arg             40036d90 f   LIBCMTD:output.obj
 0001:00035db0       _get_short_arg             40036db0 f   LIBCMTD:output.obj
 0001:000365a0       _CrtMessageWindow          400375a0 f   LIBCMTD:dbgrpt.obj
 0001:00036ab0       ___updatetlocinfo_lk       40037ab0 f   LIBCMTD:setlocal.obj
 0001:00036ea0       __setlocale_lk             40037ea0 f   LIBCMTD:setlocal.obj
 0001:00037250       __setlocale_set_cat        40038250 f   LIBCMTD:setlocal.obj
 0001:00037620       __setlocale_get_all        40038620 f   LIBCMTD:setlocal.obj
 0001:000385f0       _strncnt                   400395f0 f   LIBCMTD:a_map.obj
 0001:00038db0       _realloc_help              40039db0 f   LIBCMTD:dbgheap.obj
 0001:00039af0       _CheckBytes                4003aaf0 f   LIBCMTD:dbgheap.obj
 0001:0003a840       __printMemBlockData        4003b840 f   LIBCMTD:dbgheap.obj
 0001:0003b660       _parse_cmdline             4003c660 f   LIBCMTD:stdargv.obj
 0001:0003c040       _xcptlookup                4003d040 f   LIBCMTD:winxfltr.obj
 0001:0003c0ac       $$$00001                   4003d0ac f   LIBCMTD:exsup.obj
 0001:0003c0cc       __unwind_handler           4003d0cc f   LIBCMTD:exsup.obj
 0001:0003c0cc       $$$00003                   4003d0cc f   LIBCMTD:exsup.obj
 0001:0003c0ee       $$$00005                   4003d0ee f   LIBCMTD:exsup.obj
 0001:0003c156       $$$00007                   4003d156 f   LIBCMTD:exsup.obj
 0001:0003c19a       $$$00011                   4003d19a f   LIBCMTD:exsup.obj
 0001:0003c2a5       $$$00003                   4003d2a5 f   LIBCMTD:exsup3.obj
 0001:0003c900       ?GetImageInfo@@YAPAUImageInfo@@K@Z 4003d900 f   LIBCMTD:pdblkup.obj
 0001:0003ccc0       ?GetPdbDll@@YAPAUHINSTANCE__@@XZ 4003dcc0 f   LIBCMTD:pdblkup.obj
 0001:0003cf00       __abstract_cw              4003df00 f   LIBCMTD:ieee87.obj
 0001:0003d050       __hw_cw                    4003e050 f   LIBCMTD:ieee87.obj
 0001:0003d1b0       __abstract_sw              4003e1b0 f   LIBCMTD:ieee87.obj
 0001:0003ea70       __onexit_lk                4003fa70 f   LIBCMTD:onexit.obj
 0001:00040950       __expandtime               40041950 f   LIBCMTD:strftime.obj
 0001:00040f30       __store_str                40041f30 f   LIBCMTD:strftime.obj
 0001:00040f80       __store_num                40041f80 f   LIBCMTD:strftime.obj
 0001:00041030       __store_number             40042030 f   LIBCMTD:strftime.obj
 0001:000410e0       __store_winword            400420e0 f   LIBCMTD:strftime.obj
 0001:00041a40       __get_lc_time              40042a40 f   LIBCMTD:inittime.obj
 0001:00042580       _fix_grouping              40043580 f   LIBCMTD:initnum.obj
 0001:00042a20       _fix_grouping              40043a20 f   LIBCMTD:initmon.obj
 0001:000435d0       _TranslateName             400445d0 f   LIBCMTD:getqloc.obj
 0001:00043660       _GetLcidFromLangCountry    40044660 f   LIBCMTD:getqloc.obj
 0001:00043720       _LangCountryEnumProc@4     40044720 f   LIBCMTD:getqloc.obj
 0001:00043aa0       _GetLcidFromLanguage       40044aa0 f   LIBCMTD:getqloc.obj
 0001:00043b10       _LanguageEnumProc@4        40044b10 f   LIBCMTD:getqloc.obj
 0001:00043c60       _GetLcidFromCountry        40044c60 f   LIBCMTD:getqloc.obj
 0001:00043cb0       _CountryEnumProc@4         40044cb0 f   LIBCMTD:getqloc.obj
 0001:00043d80       _GetLcidFromDefault        40044d80 f   LIBCMTD:getqloc.obj
 0001:00043db0       _ProcessCodePage           40044db0 f   LIBCMTD:getqloc.obj
 0001:00043e60       _TestDefaultCountry        40044e60 f   LIBCMTD:getqloc.obj
 0001:00043eb0       _TestDefaultLanguage       40044eb0 f   LIBCMTD:getqloc.obj
 0001:00043f50       _crtGetLocaleInfoA@16      40044f50 f   LIBCMTD:getqloc.obj
 0001:000440e0       _LcidFromHexString         400450e0 f   LIBCMTD:getqloc.obj
 0001:00044160       _GetPrimaryLen             40045160 f   LIBCMTD:getqloc.obj
 0001:00044470       _getSystemCP               40045470 f   LIBCMTD:mbctype.obj
 0001:000444d0       __setmbcp_lk               400454d0 f   LIBCMTD:mbctype.obj
 0001:000447c0       _CPtoLCID                  400457c0 f   LIBCMTD:mbctype.obj
 0001:00044840       _setSBCS                   40045840 f   LIBCMTD:mbctype.obj
 0001:000448c0       _setSBUpLow                400458c0 f   LIBCMTD:mbctype.obj
 0001:000475e0       ___crtInitCritSecNoSpinCount@8 400485e0 f   LIBCMTD:initcrit.obj
 0001:00049200       __tzset_lk                 4004a200 f   LIBCMTD:tzset.obj
 0001:00049690       __isindst_lk               4004a690 f   LIBCMTD:tzset.obj
 0001:00049960       _cvtdate                   4004a960 f   LIBCMTD:tzset.obj
 0001:0004ae10       _strncnt                   4004be10 f   LIBCMTD:a_cmp.obj
 0001:0004b1e0       _findenv                   4004c1e0 f   LIBCMTD:setenv.obj
 0001:0004b260       _copy_environ              4004c260 f   LIBCMTD:setenv.obj
